
kernel.elf:     file format elf64-x86-64


Disassembly of section .text:

0000000000001000 <strncmp>:
    1000:	f3 0f 1e fa          	endbr64
    1004:	55                   	push   %rbp
    1005:	48 89 e5             	mov    %rsp,%rbp
    1008:	48 89 7d e8          	mov    %rdi,-0x18(%rbp)
    100c:	48 89 75 e0          	mov    %rsi,-0x20(%rbp)
    1010:	48 89 55 d8          	mov    %rdx,-0x28(%rbp)
    1014:	48 c7 45 f8 00 00 00 	movq   $0x0,-0x8(%rbp)
    101b:	00 
    101c:	eb 64                	jmp    1082 <strncmp+0x82>
    101e:	48 8b 55 e8          	mov    -0x18(%rbp),%rdx
    1022:	48 8b 45 f8          	mov    -0x8(%rbp),%rax
    1026:	48 01 d0             	add    %rdx,%rax
    1029:	0f b6 10             	movzbl (%rax),%edx
    102c:	48 8b 4d e0          	mov    -0x20(%rbp),%rcx
    1030:	48 8b 45 f8          	mov    -0x8(%rbp),%rax
    1034:	48 01 c8             	add    %rcx,%rax
    1037:	0f b6 00             	movzbl (%rax),%eax
    103a:	38 c2                	cmp    %al,%dl
    103c:	74 26                	je     1064 <strncmp+0x64>
    103e:	48 8b 55 e8          	mov    -0x18(%rbp),%rdx
    1042:	48 8b 45 f8          	mov    -0x8(%rbp),%rax
    1046:	48 01 d0             	add    %rdx,%rax
    1049:	0f b6 00             	movzbl (%rax),%eax
    104c:	0f b6 c0             	movzbl %al,%eax
    104f:	48 8b 4d e0          	mov    -0x20(%rbp),%rcx
    1053:	48 8b 55 f8          	mov    -0x8(%rbp),%rdx
    1057:	48 01 ca             	add    %rcx,%rdx
    105a:	0f b6 12             	movzbl (%rdx),%edx
    105d:	0f b6 d2             	movzbl %dl,%edx
    1060:	29 d0                	sub    %edx,%eax
    1062:	eb 2d                	jmp    1091 <strncmp+0x91>
    1064:	48 8b 55 e8          	mov    -0x18(%rbp),%rdx
    1068:	48 8b 45 f8          	mov    -0x8(%rbp),%rax
    106c:	48 01 d0             	add    %rdx,%rax
    106f:	0f b6 00             	movzbl (%rax),%eax
    1072:	84 c0                	test   %al,%al
    1074:	75 07                	jne    107d <strncmp+0x7d>
    1076:	b8 00 00 00 00       	mov    $0x0,%eax
    107b:	eb 14                	jmp    1091 <strncmp+0x91>
    107d:	48 83 45 f8 01       	addq   $0x1,-0x8(%rbp)
    1082:	48 8b 45 f8          	mov    -0x8(%rbp),%rax
    1086:	48 3b 45 d8          	cmp    -0x28(%rbp),%rax
    108a:	72 92                	jb     101e <strncmp+0x1e>
    108c:	b8 00 00 00 00       	mov    $0x0,%eax
    1091:	5d                   	pop    %rbp
    1092:	c3                   	ret

0000000000001093 <memcpy>:
    1093:	f3 0f 1e fa          	endbr64
    1097:	55                   	push   %rbp
    1098:	48 89 e5             	mov    %rsp,%rbp
    109b:	48 89 7d d8          	mov    %rdi,-0x28(%rbp)
    109f:	48 89 75 d0          	mov    %rsi,-0x30(%rbp)
    10a3:	48 89 55 c8          	mov    %rdx,-0x38(%rbp)
    10a7:	48 8b 45 d8          	mov    -0x28(%rbp),%rax
    10ab:	48 89 45 f0          	mov    %rax,-0x10(%rbp)
    10af:	48 8b 45 d0          	mov    -0x30(%rbp),%rax
    10b3:	48 89 45 e8          	mov    %rax,-0x18(%rbp)
    10b7:	48 c7 45 f8 00 00 00 	movq   $0x0,-0x8(%rbp)
    10be:	00 
    10bf:	eb 20                	jmp    10e1 <memcpy+0x4e>
    10c1:	48 8b 55 e8          	mov    -0x18(%rbp),%rdx
    10c5:	48 8b 45 f8          	mov    -0x8(%rbp),%rax
    10c9:	48 01 d0             	add    %rdx,%rax
    10cc:	48 8b 4d f0          	mov    -0x10(%rbp),%rcx
    10d0:	48 8b 55 f8          	mov    -0x8(%rbp),%rdx
    10d4:	48 01 ca             	add    %rcx,%rdx
    10d7:	0f b6 00             	movzbl (%rax),%eax
    10da:	88 02                	mov    %al,(%rdx)
    10dc:	48 83 45 f8 01       	addq   $0x1,-0x8(%rbp)
    10e1:	48 8b 45 f8          	mov    -0x8(%rbp),%rax
    10e5:	48 3b 45 c8          	cmp    -0x38(%rbp),%rax
    10e9:	72 d6                	jb     10c1 <memcpy+0x2e>
    10eb:	48 8b 45 d8          	mov    -0x28(%rbp),%rax
    10ef:	5d                   	pop    %rbp
    10f0:	c3                   	ret

00000000000010f1 <_Z15ReadUnaligned64Ph>:
    10f1:	f3 0f 1e fa          	endbr64
    10f5:	55                   	push   %rbp
    10f6:	48 89 e5             	mov    %rsp,%rbp
    10f9:	48 83 ec 18          	sub    $0x18,%rsp
    10fd:	48 89 7d e8          	mov    %rdi,-0x18(%rbp)
    1101:	48 8b 4d e8          	mov    -0x18(%rbp),%rcx
    1105:	48 8d 45 f8          	lea    -0x8(%rbp),%rax
    1109:	ba 08 00 00 00       	mov    $0x8,%edx
    110e:	48 89 ce             	mov    %rcx,%rsi
    1111:	48 89 c7             	mov    %rax,%rdi
    1114:	e8 7a ff ff ff       	call   1093 <memcpy>
    1119:	48 8b 45 f8          	mov    -0x8(%rbp),%rax
    111d:	c9                   	leave
    111e:	c3                   	ret
    111f:	90                   	nop

0000000000001120 <_ZN4ACPI10InitializeEP12BasicConsolePv>:
    1120:	f3 0f 1e fa          	endbr64
    1124:	55                   	push   %rbp
    1125:	48 89 e5             	mov    %rsp,%rbp
    1128:	53                   	push   %rbx
    1129:	48 83 ec 38          	sub    $0x38,%rsp
    112d:	48 89 7d d8          	mov    %rdi,-0x28(%rbp)
    1131:	48 89 75 d0          	mov    %rsi,-0x30(%rbp)
    1135:	48 89 55 c8          	mov    %rdx,-0x38(%rbp)
    1139:	48 8b 45 d8          	mov    -0x28(%rbp),%rax
    113d:	48 8b 55 d0          	mov    -0x30(%rbp),%rdx
    1141:	48 89 50 10          	mov    %rdx,0x10(%rax)
    1145:	48 8b 45 c8          	mov    -0x38(%rbp),%rax
    1149:	48 89 45 e8          	mov    %rax,-0x18(%rbp)
    114d:	48 8b 45 d8          	mov    -0x28(%rbp),%rax
    1151:	48 8b 40 10          	mov    0x10(%rax),%rax
    1155:	ba ff ff ff ff       	mov    $0xffffffff,%edx
    115a:	48 8d 0d 9f be 00 00 	lea    0xbe9f(%rip),%rcx        # d000 <_ZL4font+0x1000>
    1161:	48 89 ce             	mov    %rcx,%rsi
    1164:	48 89 c7             	mov    %rax,%rdi
    1167:	e8 02 14 00 00       	call   256e <_ZN12BasicConsole5PrintEPKcj>
    116c:	48 8b 45 d8          	mov    -0x28(%rbp),%rax
    1170:	48 8b 58 10          	mov    0x10(%rax),%rbx
    1174:	48 8b 45 e8          	mov    -0x18(%rbp),%rax
    1178:	48 89 c7             	mov    %rax,%rdi
    117b:	e8 b4 94 00 00       	call   a634 <_Z10to_hstringm>
    1180:	ba ff ff ff ff       	mov    $0xffffffff,%edx
    1185:	48 89 c6             	mov    %rax,%rsi
    1188:	48 89 df             	mov    %rbx,%rdi
    118b:	e8 aa 14 00 00       	call   263a <_ZN12BasicConsole7PrintlnEPKcj>
    1190:	48 8b 45 d8          	mov    -0x28(%rbp),%rax
    1194:	48 8b 40 10          	mov    0x10(%rax),%rax
    1198:	ba ff ff ff ff       	mov    $0xffffffff,%edx
    119d:	48 8d 0d 68 be 00 00 	lea    0xbe68(%rip),%rcx        # d00c <_ZL4font+0x100c>
    11a4:	48 89 ce             	mov    %rcx,%rsi
    11a7:	48 89 c7             	mov    %rax,%rdi
    11aa:	e8 bf 13 00 00       	call   256e <_ZN12BasicConsole5PrintEPKcj>
    11af:	48 8b 45 d8          	mov    -0x28(%rbp),%rax
    11b3:	48 8b 40 10          	mov    0x10(%rax),%rax
    11b7:	48 8b 4d e8          	mov    -0x18(%rbp),%rcx
    11bb:	ba ff ff ff ff       	mov    $0xffffffff,%edx
    11c0:	48 89 ce             	mov    %rcx,%rsi
    11c3:	48 89 c7             	mov    %rax,%rdi
    11c6:	e8 6f 14 00 00       	call   263a <_ZN12BasicConsole7PrintlnEPKcj>
    11cb:	48 8b 45 d8          	mov    -0x28(%rbp),%rax
    11cf:	48 8b 40 10          	mov    0x10(%rax),%rax
    11d3:	ba ff ff ff ff       	mov    $0xffffffff,%edx
    11d8:	48 8d 0d 3e be 00 00 	lea    0xbe3e(%rip),%rcx        # d01d <_ZL4font+0x101d>
    11df:	48 89 ce             	mov    %rcx,%rsi
    11e2:	48 89 c7             	mov    %rax,%rdi
    11e5:	e8 84 13 00 00       	call   256e <_ZN12BasicConsole5PrintEPKcj>
    11ea:	48 8b 45 d8          	mov    -0x28(%rbp),%rax
    11ee:	48 8b 40 10          	mov    0x10(%rax),%rax
    11f2:	48 8b 55 e8          	mov    -0x18(%rbp),%rdx
    11f6:	48 8d 4a 09          	lea    0x9(%rdx),%rcx
    11fa:	ba ff ff ff ff       	mov    $0xffffffff,%edx
    11ff:	48 89 ce             	mov    %rcx,%rsi
    1202:	48 89 c7             	mov    %rax,%rdi
    1205:	e8 30 14 00 00       	call   263a <_ZN12BasicConsole7PrintlnEPKcj>
    120a:	48 8b 45 d8          	mov    -0x28(%rbp),%rax
    120e:	48 8b 40 10          	mov    0x10(%rax),%rax
    1212:	ba ff ff ff ff       	mov    $0xffffffff,%edx
    1217:	48 8d 0d 0d be 00 00 	lea    0xbe0d(%rip),%rcx        # d02b <_ZL4font+0x102b>
    121e:	48 89 ce             	mov    %rcx,%rsi
    1221:	48 89 c7             	mov    %rax,%rdi
    1224:	e8 45 13 00 00       	call   256e <_ZN12BasicConsole5PrintEPKcj>
    1229:	48 8b 45 d8          	mov    -0x28(%rbp),%rax
    122d:	48 8b 58 10          	mov    0x10(%rax),%rbx
    1231:	48 8b 45 e8          	mov    -0x18(%rbp),%rax
    1235:	0f b6 40 0f          	movzbl 0xf(%rax),%eax
    1239:	0f b6 c0             	movzbl %al,%eax
    123c:	89 c7                	mov    %eax,%edi
    123e:	e8 54 95 00 00       	call   a797 <_Z10to_hstringh>
    1243:	ba ff ff ff ff       	mov    $0xffffffff,%edx
    1248:	48 89 c6             	mov    %rax,%rsi
    124b:	48 89 df             	mov    %rbx,%rdi
    124e:	e8 e7 13 00 00       	call   263a <_ZN12BasicConsole7PrintlnEPKcj>
    1253:	48 8b 45 e8          	mov    -0x18(%rbp),%rax
    1257:	0f b6 40 0f          	movzbl 0xf(%rax),%eax
    125b:	84 c0                	test   %al,%al
    125d:	75 43                	jne    12a2 <_ZN4ACPI10InitializeEP12BasicConsolePv+0x182>
    125f:	48 8b 45 d8          	mov    -0x28(%rbp),%rax
    1263:	c6 40 18 01          	movb   $0x1,0x18(%rax)
    1267:	48 8b 45 d8          	mov    -0x28(%rbp),%rax
    126b:	48 8b 55 e8          	mov    -0x18(%rbp),%rdx
    126f:	48 89 10             	mov    %rdx,(%rax)
    1272:	48 8b 45 d8          	mov    -0x28(%rbp),%rax
    1276:	48 c7 40 08 00 00 00 	movq   $0x0,0x8(%rax)
    127d:	00 
    127e:	48 8b 45 d8          	mov    -0x28(%rbp),%rax
    1282:	48 8b 40 10          	mov    0x10(%rax),%rax
    1286:	ba ff ff ff ff       	mov    $0xffffffff,%edx
    128b:	48 8d 0d ae bd 00 00 	lea    0xbdae(%rip),%rcx        # d040 <_ZL4font+0x1040>
    1292:	48 89 ce             	mov    %rcx,%rsi
    1295:	48 89 c7             	mov    %rax,%rdi
    1298:	e8 9d 13 00 00       	call   263a <_ZN12BasicConsole7PrintlnEPKcj>
    129d:	e9 9c 02 00 00       	jmp    153e <_ZN4ACPI10InitializeEP12BasicConsolePv+0x41e>
    12a2:	48 8b 45 e8          	mov    -0x18(%rbp),%rax
    12a6:	0f b6 40 0f          	movzbl 0xf(%rax),%eax
    12aa:	3c 01                	cmp    $0x1,%al
    12ac:	0f 86 4d 02 00 00    	jbe    14ff <_ZN4ACPI10InitializeEP12BasicConsolePv+0x3df>
    12b2:	48 8b 45 d8          	mov    -0x28(%rbp),%rax
    12b6:	c6 40 18 00          	movb   $0x0,0x18(%rax)
    12ba:	48 8b 45 d8          	mov    -0x28(%rbp),%rax
    12be:	48 8b 55 c8          	mov    -0x38(%rbp),%rdx
    12c2:	48 89 50 08          	mov    %rdx,0x8(%rax)
    12c6:	48 8b 45 d8          	mov    -0x28(%rbp),%rax
    12ca:	48 8b 55 e8          	mov    -0x18(%rbp),%rdx
    12ce:	48 89 10             	mov    %rdx,(%rax)
    12d1:	48 8b 45 d8          	mov    -0x28(%rbp),%rax
    12d5:	48 8b 40 10          	mov    0x10(%rax),%rax
    12d9:	ba ff ff ff ff       	mov    $0xffffffff,%edx
    12de:	48 8d 0d 98 bd 00 00 	lea    0xbd98(%rip),%rcx        # d07d <_ZL4font+0x107d>
    12e5:	48 89 ce             	mov    %rcx,%rsi
    12e8:	48 89 c7             	mov    %rax,%rdi
    12eb:	e8 7e 12 00 00       	call   256e <_ZN12BasicConsole5PrintEPKcj>
    12f0:	48 8b 45 d8          	mov    -0x28(%rbp),%rax
    12f4:	48 8b 58 10          	mov    0x10(%rax),%rbx
    12f8:	48 8b 45 d8          	mov    -0x28(%rbp),%rax
    12fc:	48 8b 40 08          	mov    0x8(%rax),%rax
    1300:	48 8b 40 18          	mov    0x18(%rax),%rax
    1304:	48 ba 00 00 00 00 ff 	movabs $0xffffffff00000000,%rdx
    130b:	ff ff ff 
    130e:	48 01 d0             	add    %rdx,%rax
    1311:	48 89 c7             	mov    %rax,%rdi
    1314:	e8 1b 93 00 00       	call   a634 <_Z10to_hstringm>
    1319:	ba ff ff ff ff       	mov    $0xffffffff,%edx
    131e:	48 89 c6             	mov    %rax,%rsi
    1321:	48 89 df             	mov    %rbx,%rdi
    1324:	e8 11 13 00 00       	call   263a <_ZN12BasicConsole7PrintlnEPKcj>
    1329:	48 8b 05 d0 55 02 00 	mov    0x255d0(%rip),%rax        # 26900 <ks>
    1330:	48 83 e8 80          	sub    $0xffffffffffffff80,%rax
    1334:	48 8b 55 d8          	mov    -0x28(%rbp),%rdx
    1338:	48 8b 52 08          	mov    0x8(%rdx),%rdx
    133c:	48 8b 52 18          	mov    0x18(%rdx),%rdx
    1340:	48 89 d7             	mov    %rdx,%rdi
    1343:	48 8b 55 d8          	mov    -0x28(%rbp),%rdx
    1347:	48 8b 52 08          	mov    0x8(%rdx),%rdx
    134b:	48 8b 52 18          	mov    0x18(%rdx),%rdx
    134f:	48 b9 00 00 00 00 ff 	movabs $0xffffffff00000000,%rcx
    1356:	ff ff ff 
    1359:	48 01 ca             	add    %rcx,%rdx
    135c:	48 89 d6             	mov    %rdx,%rsi
    135f:	b9 00 00 00 00       	mov    $0x0,%ecx
    1364:	48 89 fa             	mov    %rdi,%rdx
    1367:	48 89 c7             	mov    %rax,%rdi
    136a:	e8 f9 7f 00 00       	call   9368 <_ZN16PageTableManager9MapMemoryEPvS0_b>
    136f:	48 8b 45 d8          	mov    -0x28(%rbp),%rax
    1373:	48 8b 40 08          	mov    0x8(%rax),%rax
    1377:	48 8b 40 18          	mov    0x18(%rax),%rax
    137b:	48 ba 00 00 00 00 ff 	movabs $0xffffffff00000000,%rdx
    1382:	ff ff ff 
    1385:	48 01 d0             	add    %rdx,%rax
    1388:	48 89 c2             	mov    %rax,%rdx
    138b:	48 8b 45 d8          	mov    -0x28(%rbp),%rax
    138f:	48 89 50 20          	mov    %rdx,0x20(%rax)
    1393:	48 8b 45 d8          	mov    -0x28(%rbp),%rax
    1397:	48 8b 40 10          	mov    0x10(%rax),%rax
    139b:	ba ff ff ff ff       	mov    $0xffffffff,%edx
    13a0:	48 8d 0d e7 bc 00 00 	lea    0xbce7(%rip),%rcx        # d08e <_ZL4font+0x108e>
    13a7:	48 89 ce             	mov    %rcx,%rsi
    13aa:	48 89 c7             	mov    %rax,%rdi
    13ad:	e8 bc 11 00 00       	call   256e <_ZN12BasicConsole5PrintEPKcj>
    13b2:	48 8b 45 d8          	mov    -0x28(%rbp),%rax
    13b6:	48 8b 58 10          	mov    0x10(%rax),%rbx
    13ba:	48 8b 45 d8          	mov    -0x28(%rbp),%rax
    13be:	48 8b 40 20          	mov    0x20(%rax),%rax
    13c2:	8b 40 04             	mov    0x4(%rax),%eax
    13c5:	89 c7                	mov    %eax,%edi
    13c7:	e8 df 92 00 00       	call   a6ab <_Z10to_hstringj>
    13cc:	ba ff ff ff ff       	mov    $0xffffffff,%edx
    13d1:	48 89 c6             	mov    %rax,%rsi
    13d4:	48 89 df             	mov    %rbx,%rdi
    13d7:	e8 5e 12 00 00       	call   263a <_ZN12BasicConsole7PrintlnEPKcj>
    13dc:	48 8b 45 d8          	mov    -0x28(%rbp),%rax
    13e0:	48 8b 40 10          	mov    0x10(%rax),%rax
    13e4:	ba ff ff ff ff       	mov    $0xffffffff,%edx
    13e9:	48 8d 0d ac bc 00 00 	lea    0xbcac(%rip),%rcx        # d09c <_ZL4font+0x109c>
    13f0:	48 89 ce             	mov    %rcx,%rsi
    13f3:	48 89 c7             	mov    %rax,%rdi
    13f6:	e8 73 11 00 00       	call   256e <_ZN12BasicConsole5PrintEPKcj>
    13fb:	48 8b 45 d8          	mov    -0x28(%rbp),%rax
    13ff:	48 8b 40 10          	mov    0x10(%rax),%rax
    1403:	48 8b 55 d8          	mov    -0x28(%rbp),%rdx
    1407:	48 8b 52 20          	mov    0x20(%rdx),%rdx
    140b:	48 89 d1             	mov    %rdx,%rcx
    140e:	ba ff ff ff ff       	mov    $0xffffffff,%edx
    1413:	48 89 ce             	mov    %rcx,%rsi
    1416:	48 89 c7             	mov    %rax,%rdi
    1419:	e8 1c 12 00 00       	call   263a <_ZN12BasicConsole7PrintlnEPKcj>
    141e:	48 8b 45 d8          	mov    -0x28(%rbp),%rax
    1422:	48 8b 40 10          	mov    0x10(%rax),%rax
    1426:	ba ff ff ff ff       	mov    $0xffffffff,%edx
    142b:	48 8d 0d 7b bc 00 00 	lea    0xbc7b(%rip),%rcx        # d0ad <_ZL4font+0x10ad>
    1432:	48 89 ce             	mov    %rcx,%rsi
    1435:	48 89 c7             	mov    %rax,%rdi
    1438:	e8 31 11 00 00       	call   256e <_ZN12BasicConsole5PrintEPKcj>
    143d:	48 8b 45 d8          	mov    -0x28(%rbp),%rax
    1441:	48 8b 40 10          	mov    0x10(%rax),%rax
    1445:	48 8b 55 d8          	mov    -0x28(%rbp),%rdx
    1449:	48 8b 52 20          	mov    0x20(%rdx),%rdx
    144d:	48 8d 4a 0a          	lea    0xa(%rdx),%rcx
    1451:	ba ff ff ff ff       	mov    $0xffffffff,%edx
    1456:	48 89 ce             	mov    %rcx,%rsi
    1459:	48 89 c7             	mov    %rax,%rdi
    145c:	e8 d9 11 00 00       	call   263a <_ZN12BasicConsole7PrintlnEPKcj>
    1461:	48 8b 45 d8          	mov    -0x28(%rbp),%rax
    1465:	48 8b 40 20          	mov    0x20(%rax),%rax
    1469:	8b 40 04             	mov    0x4(%rax),%eax
    146c:	89 c0                	mov    %eax,%eax
    146e:	48 83 e8 24          	sub    $0x24,%rax
    1472:	48 c1 e8 03          	shr    $0x3,%rax
    1476:	89 45 e4             	mov    %eax,-0x1c(%rbp)
    1479:	48 8b 45 d8          	mov    -0x28(%rbp),%rax
    147d:	48 8b 40 10          	mov    0x10(%rax),%rax
    1481:	ba ff ff ff ff       	mov    $0xffffffff,%edx
    1486:	48 8d 0d 2e bc 00 00 	lea    0xbc2e(%rip),%rcx        # d0bb <_ZL4font+0x10bb>
    148d:	48 89 ce             	mov    %rcx,%rsi
    1490:	48 89 c7             	mov    %rax,%rdi
    1493:	e8 d6 10 00 00       	call   256e <_ZN12BasicConsole5PrintEPKcj>
    1498:	48 8b 45 d8          	mov    -0x28(%rbp),%rax
    149c:	48 8b 58 10          	mov    0x10(%rax),%rbx
    14a0:	8b 45 e4             	mov    -0x1c(%rbp),%eax
    14a3:	48 98                	cltq
    14a5:	48 89 c7             	mov    %rax,%rdi
    14a8:	e8 87 91 00 00       	call   a634 <_Z10to_hstringm>
    14ad:	ba ff ff ff ff       	mov    $0xffffffff,%edx
    14b2:	48 89 c6             	mov    %rax,%rsi
    14b5:	48 89 df             	mov    %rbx,%rdi
    14b8:	e8 7d 11 00 00       	call   263a <_ZN12BasicConsole7PrintlnEPKcj>
    14bd:	48 8b 45 d8          	mov    -0x28(%rbp),%rax
    14c1:	48 8b 40 20          	mov    0x20(%rax),%rax
    14c5:	48 89 c2             	mov    %rax,%rdx
    14c8:	48 8b 45 d8          	mov    -0x28(%rbp),%rax
    14cc:	48 89 d6             	mov    %rdx,%rsi
    14cf:	48 89 c7             	mov    %rax,%rdi
    14d2:	e8 6d 00 00 00       	call   1544 <_ZN4ACPI10doChecksumEP13ACPISDTHeader>
    14d7:	83 f0 01             	xor    $0x1,%eax
    14da:	84 c0                	test   %al,%al
    14dc:	74 60                	je     153e <_ZN4ACPI10InitializeEP12BasicConsolePv+0x41e>
    14de:	48 8b 45 d8          	mov    -0x28(%rbp),%rax
    14e2:	48 8b 40 10          	mov    0x10(%rax),%rax
    14e6:	ba ff ff ff ff       	mov    $0xffffffff,%edx
    14eb:	48 8d 0d d8 bb 00 00 	lea    0xbbd8(%rip),%rcx        # d0ca <_ZL4font+0x10ca>
    14f2:	48 89 ce             	mov    %rcx,%rsi
    14f5:	48 89 c7             	mov    %rax,%rdi
    14f8:	e8 3d 11 00 00       	call   263a <_ZN12BasicConsole7PrintlnEPKcj>
    14fd:	eb 3f                	jmp    153e <_ZN4ACPI10InitializeEP12BasicConsolePv+0x41e>
    14ff:	48 8b 45 d8          	mov    -0x28(%rbp),%rax
    1503:	48 8b 40 10          	mov    0x10(%rax),%rax
    1507:	ba ff ff ff ff       	mov    $0xffffffff,%edx
    150c:	48 8d 0d cd bb 00 00 	lea    0xbbcd(%rip),%rcx        # d0e0 <_ZL4font+0x10e0>
    1513:	48 89 ce             	mov    %rcx,%rsi
    1516:	48 89 c7             	mov    %rax,%rdi
    1519:	e8 1c 11 00 00       	call   263a <_ZN12BasicConsole7PrintlnEPKcj>
    151e:	48 8b 45 d8          	mov    -0x28(%rbp),%rax
    1522:	48 8b 40 10          	mov    0x10(%rax),%rax
    1526:	ba ff ff ff ff       	mov    $0xffffffff,%edx
    152b:	48 8d 0d ce bb 00 00 	lea    0xbbce(%rip),%rcx        # d100 <_ZL4font+0x1100>
    1532:	48 89 ce             	mov    %rcx,%rsi
    1535:	48 89 c7             	mov    %rax,%rdi
    1538:	e8 fd 10 00 00       	call   263a <_ZN12BasicConsole7PrintlnEPKcj>
    153d:	90                   	nop
    153e:	48 8b 5d f8          	mov    -0x8(%rbp),%rbx
    1542:	c9                   	leave
    1543:	c3                   	ret

0000000000001544 <_ZN4ACPI10doChecksumEP13ACPISDTHeader>:
    1544:	f3 0f 1e fa          	endbr64
    1548:	55                   	push   %rbp
    1549:	48 89 e5             	mov    %rsp,%rbp
    154c:	48 89 7d e8          	mov    %rdi,-0x18(%rbp)
    1550:	48 89 75 e0          	mov    %rsi,-0x20(%rbp)
    1554:	c6 45 ff 00          	movb   $0x0,-0x1(%rbp)
    1558:	c7 45 f8 00 00 00 00 	movl   $0x0,-0x8(%rbp)
    155f:	eb 17                	jmp    1578 <_ZN4ACPI10doChecksumEP13ACPISDTHeader+0x34>
    1561:	8b 45 f8             	mov    -0x8(%rbp),%eax
    1564:	48 63 d0             	movslq %eax,%rdx
    1567:	48 8b 45 e0          	mov    -0x20(%rbp),%rax
    156b:	48 01 d0             	add    %rdx,%rax
    156e:	0f b6 00             	movzbl (%rax),%eax
    1571:	00 45 ff             	add    %al,-0x1(%rbp)
    1574:	83 45 f8 01          	addl   $0x1,-0x8(%rbp)
    1578:	48 8b 45 e0          	mov    -0x20(%rbp),%rax
    157c:	8b 40 04             	mov    0x4(%rax),%eax
    157f:	8b 55 f8             	mov    -0x8(%rbp),%edx
    1582:	39 c2                	cmp    %eax,%edx
    1584:	72 db                	jb     1561 <_ZN4ACPI10doChecksumEP13ACPISDTHeader+0x1d>
    1586:	80 7d ff 00          	cmpb   $0x0,-0x1(%rbp)
    158a:	0f 94 c0             	sete   %al
    158d:	5d                   	pop    %rbp
    158e:	c3                   	ret
    158f:	90                   	nop

0000000000001590 <_ZN4ACPI7GetFADTEv>:
    1590:	f3 0f 1e fa          	endbr64
    1594:	55                   	push   %rbp
    1595:	48 89 e5             	mov    %rsp,%rbp
    1598:	48 83 ec 30          	sub    $0x30,%rsp
    159c:	48 89 7d d8          	mov    %rdi,-0x28(%rbp)
    15a0:	48 8b 45 d8          	mov    -0x28(%rbp),%rax
    15a4:	48 8b 40 20          	mov    0x20(%rax),%rax
    15a8:	8b 40 04             	mov    0x4(%rax),%eax
    15ab:	89 c0                	mov    %eax,%eax
    15ad:	48 83 e8 24          	sub    $0x24,%rax
    15b1:	48 c1 e8 03          	shr    $0x3,%rax
    15b5:	89 45 f8             	mov    %eax,-0x8(%rbp)
    15b8:	48 8b 45 d8          	mov    -0x28(%rbp),%rax
    15bc:	48 8b 40 20          	mov    0x20(%rax),%rax
    15c0:	48 83 c0 24          	add    $0x24,%rax
    15c4:	48 89 45 f0          	mov    %rax,-0x10(%rbp)
    15c8:	c7 45 fc 00 00 00 00 	movl   $0x0,-0x4(%rbp)
    15cf:	e9 91 00 00 00       	jmp    1665 <_ZN4ACPI7GetFADTEv+0xd5>
    15d4:	8b 45 fc             	mov    -0x4(%rbp),%eax
    15d7:	48 98                	cltq
    15d9:	48 8d 14 c5 00 00 00 	lea    0x0(,%rax,8),%rdx
    15e0:	00 
    15e1:	48 8b 45 f0          	mov    -0x10(%rbp),%rax
    15e5:	48 01 d0             	add    %rdx,%rax
    15e8:	48 89 c7             	mov    %rax,%rdi
    15eb:	e8 01 fb ff ff       	call   10f1 <_Z15ReadUnaligned64Ph>
    15f0:	48 89 45 e8          	mov    %rax,-0x18(%rbp)
    15f4:	48 8b 05 05 53 02 00 	mov    0x25305(%rip),%rax        # 26900 <ks>
    15fb:	48 8d b8 80 00 00 00 	lea    0x80(%rax),%rdi
    1602:	48 8b 45 e8          	mov    -0x18(%rbp),%rax
    1606:	48 b9 00 00 00 00 ff 	movabs $0xffffffff00000000,%rcx
    160d:	ff ff ff 
    1610:	48 8b 55 e8          	mov    -0x18(%rbp),%rdx
    1614:	48 01 ca             	add    %rcx,%rdx
    1617:	48 89 d6             	mov    %rdx,%rsi
    161a:	b9 00 00 00 00       	mov    $0x0,%ecx
    161f:	48 89 c2             	mov    %rax,%rdx
    1622:	e8 41 7d 00 00       	call   9368 <_ZN16PageTableManager9MapMemoryEPvS0_b>
    1627:	48 ba 00 00 00 00 ff 	movabs $0xffffffff00000000,%rdx
    162e:	ff ff ff 
    1631:	48 8b 45 e8          	mov    -0x18(%rbp),%rax
    1635:	48 01 d0             	add    %rdx,%rax
    1638:	48 89 45 e0          	mov    %rax,-0x20(%rbp)
    163c:	48 8b 45 e0          	mov    -0x20(%rbp),%rax
    1640:	ba 04 00 00 00       	mov    $0x4,%edx
    1645:	48 8d 0d cd ba 00 00 	lea    0xbacd(%rip),%rcx        # d119 <_ZL4font+0x1119>
    164c:	48 89 ce             	mov    %rcx,%rsi
    164f:	48 89 c7             	mov    %rax,%rdi
    1652:	e8 a9 f9 ff ff       	call   1000 <strncmp>
    1657:	85 c0                	test   %eax,%eax
    1659:	75 06                	jne    1661 <_ZN4ACPI7GetFADTEv+0xd1>
    165b:	48 8b 45 e0          	mov    -0x20(%rbp),%rax
    165f:	eb 34                	jmp    1695 <_ZN4ACPI7GetFADTEv+0x105>
    1661:	83 45 fc 01          	addl   $0x1,-0x4(%rbp)
    1665:	8b 45 fc             	mov    -0x4(%rbp),%eax
    1668:	3b 45 f8             	cmp    -0x8(%rbp),%eax
    166b:	0f 8c 63 ff ff ff    	jl     15d4 <_ZN4ACPI7GetFADTEv+0x44>
    1671:	48 8b 45 d8          	mov    -0x28(%rbp),%rax
    1675:	48 8b 40 10          	mov    0x10(%rax),%rax
    1679:	ba ff ff ff ff       	mov    $0xffffffff,%edx
    167e:	48 8d 0d 99 ba 00 00 	lea    0xba99(%rip),%rcx        # d11e <_ZL4font+0x111e>
    1685:	48 89 ce             	mov    %rcx,%rsi
    1688:	48 89 c7             	mov    %rax,%rdi
    168b:	e8 aa 0f 00 00       	call   263a <_ZN12BasicConsole7PrintlnEPKcj>
    1690:	b8 00 00 00 00       	mov    $0x0,%eax
    1695:	c9                   	leave
    1696:	c3                   	ret
    1697:	90                   	nop

0000000000001698 <_ZN4ACPI7GetMADTEv>:
    1698:	f3 0f 1e fa          	endbr64
    169c:	55                   	push   %rbp
    169d:	48 89 e5             	mov    %rsp,%rbp
    16a0:	48 83 ec 30          	sub    $0x30,%rsp
    16a4:	48 89 7d d8          	mov    %rdi,-0x28(%rbp)
    16a8:	48 8b 45 d8          	mov    -0x28(%rbp),%rax
    16ac:	48 8b 40 20          	mov    0x20(%rax),%rax
    16b0:	8b 40 04             	mov    0x4(%rax),%eax
    16b3:	89 c0                	mov    %eax,%eax
    16b5:	48 83 e8 24          	sub    $0x24,%rax
    16b9:	48 c1 e8 03          	shr    $0x3,%rax
    16bd:	89 45 f8             	mov    %eax,-0x8(%rbp)
    16c0:	48 8b 45 d8          	mov    -0x28(%rbp),%rax
    16c4:	48 8b 40 20          	mov    0x20(%rax),%rax
    16c8:	48 83 c0 24          	add    $0x24,%rax
    16cc:	48 89 45 f0          	mov    %rax,-0x10(%rbp)
    16d0:	c7 45 fc 00 00 00 00 	movl   $0x0,-0x4(%rbp)
    16d7:	e9 91 00 00 00       	jmp    176d <_ZN4ACPI7GetMADTEv+0xd5>
    16dc:	8b 45 fc             	mov    -0x4(%rbp),%eax
    16df:	48 98                	cltq
    16e1:	48 8d 14 c5 00 00 00 	lea    0x0(,%rax,8),%rdx
    16e8:	00 
    16e9:	48 8b 45 f0          	mov    -0x10(%rbp),%rax
    16ed:	48 01 d0             	add    %rdx,%rax
    16f0:	48 89 c7             	mov    %rax,%rdi
    16f3:	e8 f9 f9 ff ff       	call   10f1 <_Z15ReadUnaligned64Ph>
    16f8:	48 89 45 e8          	mov    %rax,-0x18(%rbp)
    16fc:	48 8b 05 fd 51 02 00 	mov    0x251fd(%rip),%rax        # 26900 <ks>
    1703:	48 8d b8 80 00 00 00 	lea    0x80(%rax),%rdi
    170a:	48 8b 45 e8          	mov    -0x18(%rbp),%rax
    170e:	48 b9 00 00 00 00 ff 	movabs $0xffffffff00000000,%rcx
    1715:	ff ff ff 
    1718:	48 8b 55 e8          	mov    -0x18(%rbp),%rdx
    171c:	48 01 ca             	add    %rcx,%rdx
    171f:	48 89 d6             	mov    %rdx,%rsi
    1722:	b9 00 00 00 00       	mov    $0x0,%ecx
    1727:	48 89 c2             	mov    %rax,%rdx
    172a:	e8 39 7c 00 00       	call   9368 <_ZN16PageTableManager9MapMemoryEPvS0_b>
    172f:	48 ba 00 00 00 00 ff 	movabs $0xffffffff00000000,%rdx
    1736:	ff ff ff 
    1739:	48 8b 45 e8          	mov    -0x18(%rbp),%rax
    173d:	48 01 d0             	add    %rdx,%rax
    1740:	48 89 45 e0          	mov    %rax,-0x20(%rbp)
    1744:	48 8b 45 e0          	mov    -0x20(%rbp),%rax
    1748:	ba 04 00 00 00       	mov    $0x4,%edx
    174d:	48 8d 0d e2 b9 00 00 	lea    0xb9e2(%rip),%rcx        # d136 <_ZL4font+0x1136>
    1754:	48 89 ce             	mov    %rcx,%rsi
    1757:	48 89 c7             	mov    %rax,%rdi
    175a:	e8 a1 f8 ff ff       	call   1000 <strncmp>
    175f:	85 c0                	test   %eax,%eax
    1761:	75 06                	jne    1769 <_ZN4ACPI7GetMADTEv+0xd1>
    1763:	48 8b 45 e0          	mov    -0x20(%rbp),%rax
    1767:	eb 34                	jmp    179d <_ZN4ACPI7GetMADTEv+0x105>
    1769:	83 45 fc 01          	addl   $0x1,-0x4(%rbp)
    176d:	8b 45 fc             	mov    -0x4(%rbp),%eax
    1770:	3b 45 f8             	cmp    -0x8(%rbp),%eax
    1773:	0f 8c 63 ff ff ff    	jl     16dc <_ZN4ACPI7GetMADTEv+0x44>
    1779:	48 8b 45 d8          	mov    -0x28(%rbp),%rax
    177d:	48 8b 40 10          	mov    0x10(%rax),%rax
    1781:	ba ff ff ff ff       	mov    $0xffffffff,%edx
    1786:	48 8d 0d ae b9 00 00 	lea    0xb9ae(%rip),%rcx        # d13b <_ZL4font+0x113b>
    178d:	48 89 ce             	mov    %rcx,%rsi
    1790:	48 89 c7             	mov    %rax,%rdi
    1793:	e8 a2 0e 00 00       	call   263a <_ZN12BasicConsole7PrintlnEPKcj>
    1798:	b8 00 00 00 00       	mov    $0x0,%eax
    179d:	c9                   	leave
    179e:	c3                   	ret
    179f:	90                   	nop

00000000000017a0 <_ZN4ACPI7GetBGRTEv>:
    17a0:	f3 0f 1e fa          	endbr64
    17a4:	55                   	push   %rbp
    17a5:	48 89 e5             	mov    %rsp,%rbp
    17a8:	48 83 ec 30          	sub    $0x30,%rsp
    17ac:	48 89 7d d8          	mov    %rdi,-0x28(%rbp)
    17b0:	48 8b 45 d8          	mov    -0x28(%rbp),%rax
    17b4:	48 8b 40 20          	mov    0x20(%rax),%rax
    17b8:	8b 40 04             	mov    0x4(%rax),%eax
    17bb:	89 c0                	mov    %eax,%eax
    17bd:	48 83 e8 24          	sub    $0x24,%rax
    17c1:	48 c1 e8 03          	shr    $0x3,%rax
    17c5:	89 45 f8             	mov    %eax,-0x8(%rbp)
    17c8:	48 8b 45 d8          	mov    -0x28(%rbp),%rax
    17cc:	48 8b 40 20          	mov    0x20(%rax),%rax
    17d0:	48 83 c0 24          	add    $0x24,%rax
    17d4:	48 89 45 f0          	mov    %rax,-0x10(%rbp)
    17d8:	c7 45 fc 00 00 00 00 	movl   $0x0,-0x4(%rbp)
    17df:	e9 91 00 00 00       	jmp    1875 <_ZN4ACPI7GetBGRTEv+0xd5>
    17e4:	8b 45 fc             	mov    -0x4(%rbp),%eax
    17e7:	48 98                	cltq
    17e9:	48 8d 14 c5 00 00 00 	lea    0x0(,%rax,8),%rdx
    17f0:	00 
    17f1:	48 8b 45 f0          	mov    -0x10(%rbp),%rax
    17f5:	48 01 d0             	add    %rdx,%rax
    17f8:	48 89 c7             	mov    %rax,%rdi
    17fb:	e8 f1 f8 ff ff       	call   10f1 <_Z15ReadUnaligned64Ph>
    1800:	48 89 45 e8          	mov    %rax,-0x18(%rbp)
    1804:	48 8b 05 f5 50 02 00 	mov    0x250f5(%rip),%rax        # 26900 <ks>
    180b:	48 8d b8 80 00 00 00 	lea    0x80(%rax),%rdi
    1812:	48 8b 45 e8          	mov    -0x18(%rbp),%rax
    1816:	48 b9 00 00 00 00 ff 	movabs $0xffffffff00000000,%rcx
    181d:	ff ff ff 
    1820:	48 8b 55 e8          	mov    -0x18(%rbp),%rdx
    1824:	48 01 ca             	add    %rcx,%rdx
    1827:	48 89 d6             	mov    %rdx,%rsi
    182a:	b9 00 00 00 00       	mov    $0x0,%ecx
    182f:	48 89 c2             	mov    %rax,%rdx
    1832:	e8 31 7b 00 00       	call   9368 <_ZN16PageTableManager9MapMemoryEPvS0_b>
    1837:	48 ba 00 00 00 00 ff 	movabs $0xffffffff00000000,%rdx
    183e:	ff ff ff 
    1841:	48 8b 45 e8          	mov    -0x18(%rbp),%rax
    1845:	48 01 d0             	add    %rdx,%rax
    1848:	48 89 45 e0          	mov    %rax,-0x20(%rbp)
    184c:	48 8b 45 e0          	mov    -0x20(%rbp),%rax
    1850:	ba 04 00 00 00       	mov    $0x4,%edx
    1855:	48 8d 0d f7 b8 00 00 	lea    0xb8f7(%rip),%rcx        # d153 <_ZL4font+0x1153>
    185c:	48 89 ce             	mov    %rcx,%rsi
    185f:	48 89 c7             	mov    %rax,%rdi
    1862:	e8 99 f7 ff ff       	call   1000 <strncmp>
    1867:	85 c0                	test   %eax,%eax
    1869:	75 06                	jne    1871 <_ZN4ACPI7GetBGRTEv+0xd1>
    186b:	48 8b 45 e0          	mov    -0x20(%rbp),%rax
    186f:	eb 34                	jmp    18a5 <_ZN4ACPI7GetBGRTEv+0x105>
    1871:	83 45 fc 01          	addl   $0x1,-0x4(%rbp)
    1875:	8b 45 fc             	mov    -0x4(%rbp),%eax
    1878:	3b 45 f8             	cmp    -0x8(%rbp),%eax
    187b:	0f 8c 63 ff ff ff    	jl     17e4 <_ZN4ACPI7GetBGRTEv+0x44>
    1881:	48 8b 45 d8          	mov    -0x28(%rbp),%rax
    1885:	48 8b 40 10          	mov    0x10(%rax),%rax
    1889:	ba ff ff ff ff       	mov    $0xffffffff,%edx
    188e:	48 8d 0d c3 b8 00 00 	lea    0xb8c3(%rip),%rcx        # d158 <_ZL4font+0x1158>
    1895:	48 89 ce             	mov    %rcx,%rsi
    1898:	48 89 c7             	mov    %rax,%rdi
    189b:	e8 9a 0d 00 00       	call   263a <_ZN12BasicConsole7PrintlnEPKcj>
    18a0:	b8 00 00 00 00       	mov    $0x0,%eax
    18a5:	c9                   	leave
    18a6:	c3                   	ret
    18a7:	90                   	nop

00000000000018a8 <_ZN4ACPI7GetRSDTEv>:
    18a8:	f3 0f 1e fa          	endbr64
    18ac:	55                   	push   %rbp
    18ad:	48 89 e5             	mov    %rsp,%rbp
    18b0:	48 83 ec 30          	sub    $0x30,%rsp
    18b4:	48 89 7d d8          	mov    %rdi,-0x28(%rbp)
    18b8:	48 8b 45 d8          	mov    -0x28(%rbp),%rax
    18bc:	48 8b 40 20          	mov    0x20(%rax),%rax
    18c0:	8b 40 04             	mov    0x4(%rax),%eax
    18c3:	89 c0                	mov    %eax,%eax
    18c5:	48 83 e8 24          	sub    $0x24,%rax
    18c9:	48 c1 e8 03          	shr    $0x3,%rax
    18cd:	89 45 f8             	mov    %eax,-0x8(%rbp)
    18d0:	48 8b 45 d8          	mov    -0x28(%rbp),%rax
    18d4:	48 8b 40 20          	mov    0x20(%rax),%rax
    18d8:	48 83 c0 24          	add    $0x24,%rax
    18dc:	48 89 45 f0          	mov    %rax,-0x10(%rbp)
    18e0:	c7 45 fc 00 00 00 00 	movl   $0x0,-0x4(%rbp)
    18e7:	e9 91 00 00 00       	jmp    197d <_ZN4ACPI7GetRSDTEv+0xd5>
    18ec:	8b 45 fc             	mov    -0x4(%rbp),%eax
    18ef:	48 98                	cltq
    18f1:	48 8d 14 c5 00 00 00 	lea    0x0(,%rax,8),%rdx
    18f8:	00 
    18f9:	48 8b 45 f0          	mov    -0x10(%rbp),%rax
    18fd:	48 01 d0             	add    %rdx,%rax
    1900:	48 89 c7             	mov    %rax,%rdi
    1903:	e8 e9 f7 ff ff       	call   10f1 <_Z15ReadUnaligned64Ph>
    1908:	48 89 45 e8          	mov    %rax,-0x18(%rbp)
    190c:	48 8b 05 ed 4f 02 00 	mov    0x24fed(%rip),%rax        # 26900 <ks>
    1913:	48 8d b8 80 00 00 00 	lea    0x80(%rax),%rdi
    191a:	48 8b 45 e8          	mov    -0x18(%rbp),%rax
    191e:	48 b9 00 00 00 00 ff 	movabs $0xffffffff00000000,%rcx
    1925:	ff ff ff 
    1928:	48 8b 55 e8          	mov    -0x18(%rbp),%rdx
    192c:	48 01 ca             	add    %rcx,%rdx
    192f:	48 89 d6             	mov    %rdx,%rsi
    1932:	b9 00 00 00 00       	mov    $0x0,%ecx
    1937:	48 89 c2             	mov    %rax,%rdx
    193a:	e8 29 7a 00 00       	call   9368 <_ZN16PageTableManager9MapMemoryEPvS0_b>
    193f:	48 ba 00 00 00 00 ff 	movabs $0xffffffff00000000,%rdx
    1946:	ff ff ff 
    1949:	48 8b 45 e8          	mov    -0x18(%rbp),%rax
    194d:	48 01 d0             	add    %rdx,%rax
    1950:	48 89 45 e0          	mov    %rax,-0x20(%rbp)
    1954:	48 8b 45 e0          	mov    -0x20(%rbp),%rax
    1958:	ba 04 00 00 00       	mov    $0x4,%edx
    195d:	48 8d 0d 0c b8 00 00 	lea    0xb80c(%rip),%rcx        # d170 <_ZL4font+0x1170>
    1964:	48 89 ce             	mov    %rcx,%rsi
    1967:	48 89 c7             	mov    %rax,%rdi
    196a:	e8 91 f6 ff ff       	call   1000 <strncmp>
    196f:	85 c0                	test   %eax,%eax
    1971:	75 06                	jne    1979 <_ZN4ACPI7GetRSDTEv+0xd1>
    1973:	48 8b 45 e0          	mov    -0x20(%rbp),%rax
    1977:	eb 34                	jmp    19ad <_ZN4ACPI7GetRSDTEv+0x105>
    1979:	83 45 fc 01          	addl   $0x1,-0x4(%rbp)
    197d:	8b 45 fc             	mov    -0x4(%rbp),%eax
    1980:	3b 45 f8             	cmp    -0x8(%rbp),%eax
    1983:	0f 8c 63 ff ff ff    	jl     18ec <_ZN4ACPI7GetRSDTEv+0x44>
    1989:	48 8b 45 d8          	mov    -0x28(%rbp),%rax
    198d:	48 8b 40 10          	mov    0x10(%rax),%rax
    1991:	ba ff ff ff ff       	mov    $0xffffffff,%edx
    1996:	48 8d 0d d8 b7 00 00 	lea    0xb7d8(%rip),%rcx        # d175 <_ZL4font+0x1175>
    199d:	48 89 ce             	mov    %rcx,%rsi
    19a0:	48 89 c7             	mov    %rax,%rdi
    19a3:	e8 92 0c 00 00       	call   263a <_ZN12BasicConsole7PrintlnEPKcj>
    19a8:	b8 00 00 00 00       	mov    $0x0,%eax
    19ad:	c9                   	leave
    19ae:	c3                   	ret
    19af:	90                   	nop

00000000000019b0 <_ZN4ACPI7GetSRATEv>:
    19b0:	f3 0f 1e fa          	endbr64
    19b4:	55                   	push   %rbp
    19b5:	48 89 e5             	mov    %rsp,%rbp
    19b8:	48 83 ec 30          	sub    $0x30,%rsp
    19bc:	48 89 7d d8          	mov    %rdi,-0x28(%rbp)
    19c0:	48 8b 45 d8          	mov    -0x28(%rbp),%rax
    19c4:	48 8b 40 20          	mov    0x20(%rax),%rax
    19c8:	8b 40 04             	mov    0x4(%rax),%eax
    19cb:	89 c0                	mov    %eax,%eax
    19cd:	48 83 e8 24          	sub    $0x24,%rax
    19d1:	48 c1 e8 03          	shr    $0x3,%rax
    19d5:	89 45 f8             	mov    %eax,-0x8(%rbp)
    19d8:	48 8b 45 d8          	mov    -0x28(%rbp),%rax
    19dc:	48 8b 40 20          	mov    0x20(%rax),%rax
    19e0:	48 83 c0 24          	add    $0x24,%rax
    19e4:	48 89 45 f0          	mov    %rax,-0x10(%rbp)
    19e8:	c7 45 fc 00 00 00 00 	movl   $0x0,-0x4(%rbp)
    19ef:	e9 91 00 00 00       	jmp    1a85 <_ZN4ACPI7GetSRATEv+0xd5>
    19f4:	8b 45 fc             	mov    -0x4(%rbp),%eax
    19f7:	48 98                	cltq
    19f9:	48 8d 14 c5 00 00 00 	lea    0x0(,%rax,8),%rdx
    1a00:	00 
    1a01:	48 8b 45 f0          	mov    -0x10(%rbp),%rax
    1a05:	48 01 d0             	add    %rdx,%rax
    1a08:	48 89 c7             	mov    %rax,%rdi
    1a0b:	e8 e1 f6 ff ff       	call   10f1 <_Z15ReadUnaligned64Ph>
    1a10:	48 89 45 e8          	mov    %rax,-0x18(%rbp)
    1a14:	48 8b 05 e5 4e 02 00 	mov    0x24ee5(%rip),%rax        # 26900 <ks>
    1a1b:	48 8d b8 80 00 00 00 	lea    0x80(%rax),%rdi
    1a22:	48 8b 45 e8          	mov    -0x18(%rbp),%rax
    1a26:	48 b9 00 00 00 00 ff 	movabs $0xffffffff00000000,%rcx
    1a2d:	ff ff ff 
    1a30:	48 8b 55 e8          	mov    -0x18(%rbp),%rdx
    1a34:	48 01 ca             	add    %rcx,%rdx
    1a37:	48 89 d6             	mov    %rdx,%rsi
    1a3a:	b9 00 00 00 00       	mov    $0x0,%ecx
    1a3f:	48 89 c2             	mov    %rax,%rdx
    1a42:	e8 21 79 00 00       	call   9368 <_ZN16PageTableManager9MapMemoryEPvS0_b>
    1a47:	48 ba 00 00 00 00 ff 	movabs $0xffffffff00000000,%rdx
    1a4e:	ff ff ff 
    1a51:	48 8b 45 e8          	mov    -0x18(%rbp),%rax
    1a55:	48 01 d0             	add    %rdx,%rax
    1a58:	48 89 45 e0          	mov    %rax,-0x20(%rbp)
    1a5c:	48 8b 45 e0          	mov    -0x20(%rbp),%rax
    1a60:	ba 04 00 00 00       	mov    $0x4,%edx
    1a65:	48 8d 0d 21 b7 00 00 	lea    0xb721(%rip),%rcx        # d18d <_ZL4font+0x118d>
    1a6c:	48 89 ce             	mov    %rcx,%rsi
    1a6f:	48 89 c7             	mov    %rax,%rdi
    1a72:	e8 89 f5 ff ff       	call   1000 <strncmp>
    1a77:	85 c0                	test   %eax,%eax
    1a79:	75 06                	jne    1a81 <_ZN4ACPI7GetSRATEv+0xd1>
    1a7b:	48 8b 45 e0          	mov    -0x20(%rbp),%rax
    1a7f:	eb 34                	jmp    1ab5 <_ZN4ACPI7GetSRATEv+0x105>
    1a81:	83 45 fc 01          	addl   $0x1,-0x4(%rbp)
    1a85:	8b 45 fc             	mov    -0x4(%rbp),%eax
    1a88:	3b 45 f8             	cmp    -0x8(%rbp),%eax
    1a8b:	0f 8c 63 ff ff ff    	jl     19f4 <_ZN4ACPI7GetSRATEv+0x44>
    1a91:	48 8b 45 d8          	mov    -0x28(%rbp),%rax
    1a95:	48 8b 40 10          	mov    0x10(%rax),%rax
    1a99:	ba ff ff ff ff       	mov    $0xffffffff,%edx
    1a9e:	48 8d 0d ed b6 00 00 	lea    0xb6ed(%rip),%rcx        # d192 <_ZL4font+0x1192>
    1aa5:	48 89 ce             	mov    %rcx,%rsi
    1aa8:	48 89 c7             	mov    %rax,%rdi
    1aab:	e8 8a 0b 00 00       	call   263a <_ZN12BasicConsole7PrintlnEPKcj>
    1ab0:	b8 00 00 00 00       	mov    $0x0,%eax
    1ab5:	c9                   	leave
    1ab6:	c3                   	ret
    1ab7:	90                   	nop

0000000000001ab8 <_ZN4ACPI7GetMCFGEv>:
    1ab8:	f3 0f 1e fa          	endbr64
    1abc:	55                   	push   %rbp
    1abd:	48 89 e5             	mov    %rsp,%rbp
    1ac0:	48 83 ec 30          	sub    $0x30,%rsp
    1ac4:	48 89 7d d8          	mov    %rdi,-0x28(%rbp)
    1ac8:	48 8b 45 d8          	mov    -0x28(%rbp),%rax
    1acc:	48 8b 40 20          	mov    0x20(%rax),%rax
    1ad0:	8b 40 04             	mov    0x4(%rax),%eax
    1ad3:	89 c0                	mov    %eax,%eax
    1ad5:	48 83 e8 24          	sub    $0x24,%rax
    1ad9:	48 c1 e8 03          	shr    $0x3,%rax
    1add:	89 45 f8             	mov    %eax,-0x8(%rbp)
    1ae0:	48 8b 45 d8          	mov    -0x28(%rbp),%rax
    1ae4:	48 8b 40 20          	mov    0x20(%rax),%rax
    1ae8:	48 83 c0 24          	add    $0x24,%rax
    1aec:	48 89 45 f0          	mov    %rax,-0x10(%rbp)
    1af0:	c7 45 fc 00 00 00 00 	movl   $0x0,-0x4(%rbp)
    1af7:	e9 91 00 00 00       	jmp    1b8d <_ZN4ACPI7GetMCFGEv+0xd5>
    1afc:	8b 45 fc             	mov    -0x4(%rbp),%eax
    1aff:	48 98                	cltq
    1b01:	48 8d 14 c5 00 00 00 	lea    0x0(,%rax,8),%rdx
    1b08:	00 
    1b09:	48 8b 45 f0          	mov    -0x10(%rbp),%rax
    1b0d:	48 01 d0             	add    %rdx,%rax
    1b10:	48 89 c7             	mov    %rax,%rdi
    1b13:	e8 d9 f5 ff ff       	call   10f1 <_Z15ReadUnaligned64Ph>
    1b18:	48 89 45 e8          	mov    %rax,-0x18(%rbp)
    1b1c:	48 8b 05 dd 4d 02 00 	mov    0x24ddd(%rip),%rax        # 26900 <ks>
    1b23:	48 8d b8 80 00 00 00 	lea    0x80(%rax),%rdi
    1b2a:	48 8b 45 e8          	mov    -0x18(%rbp),%rax
    1b2e:	48 b9 00 00 00 00 ff 	movabs $0xffffffff00000000,%rcx
    1b35:	ff ff ff 
    1b38:	48 8b 55 e8          	mov    -0x18(%rbp),%rdx
    1b3c:	48 01 ca             	add    %rcx,%rdx
    1b3f:	48 89 d6             	mov    %rdx,%rsi
    1b42:	b9 00 00 00 00       	mov    $0x0,%ecx
    1b47:	48 89 c2             	mov    %rax,%rdx
    1b4a:	e8 19 78 00 00       	call   9368 <_ZN16PageTableManager9MapMemoryEPvS0_b>
    1b4f:	48 ba 00 00 00 00 ff 	movabs $0xffffffff00000000,%rdx
    1b56:	ff ff ff 
    1b59:	48 8b 45 e8          	mov    -0x18(%rbp),%rax
    1b5d:	48 01 d0             	add    %rdx,%rax
    1b60:	48 89 45 e0          	mov    %rax,-0x20(%rbp)
    1b64:	48 8b 45 e0          	mov    -0x20(%rbp),%rax
    1b68:	ba 04 00 00 00       	mov    $0x4,%edx
    1b6d:	48 8d 0d 36 b6 00 00 	lea    0xb636(%rip),%rcx        # d1aa <_ZL4font+0x11aa>
    1b74:	48 89 ce             	mov    %rcx,%rsi
    1b77:	48 89 c7             	mov    %rax,%rdi
    1b7a:	e8 81 f4 ff ff       	call   1000 <strncmp>
    1b7f:	85 c0                	test   %eax,%eax
    1b81:	75 06                	jne    1b89 <_ZN4ACPI7GetMCFGEv+0xd1>
    1b83:	48 8b 45 e0          	mov    -0x20(%rbp),%rax
    1b87:	eb 34                	jmp    1bbd <_ZN4ACPI7GetMCFGEv+0x105>
    1b89:	83 45 fc 01          	addl   $0x1,-0x4(%rbp)
    1b8d:	8b 45 fc             	mov    -0x4(%rbp),%eax
    1b90:	3b 45 f8             	cmp    -0x8(%rbp),%eax
    1b93:	0f 8c 63 ff ff ff    	jl     1afc <_ZN4ACPI7GetMCFGEv+0x44>
    1b99:	48 8b 45 d8          	mov    -0x28(%rbp),%rax
    1b9d:	48 8b 40 10          	mov    0x10(%rax),%rax
    1ba1:	ba ff ff ff ff       	mov    $0xffffffff,%edx
    1ba6:	48 8d 0d 02 b6 00 00 	lea    0xb602(%rip),%rcx        # d1af <_ZL4font+0x11af>
    1bad:	48 89 ce             	mov    %rcx,%rsi
    1bb0:	48 89 c7             	mov    %rax,%rdi
    1bb3:	e8 82 0a 00 00       	call   263a <_ZN12BasicConsole7PrintlnEPKcj>
    1bb8:	b8 00 00 00 00       	mov    $0x0,%eax
    1bbd:	c9                   	leave
    1bbe:	c3                   	ret
    1bbf:	90                   	nop

0000000000001bc0 <_ZN4ACPI21GetProcessorLocalAPICEv>:
    1bc0:	f3 0f 1e fa          	endbr64
    1bc4:	55                   	push   %rbp
    1bc5:	48 89 e5             	mov    %rsp,%rbp
    1bc8:	48 83 ec 40          	sub    $0x40,%rsp
    1bcc:	48 89 7d c8          	mov    %rdi,-0x38(%rbp)
    1bd0:	48 8b 45 c8          	mov    -0x38(%rbp),%rax
    1bd4:	48 89 c7             	mov    %rax,%rdi
    1bd7:	e8 bc fa ff ff       	call   1698 <_ZN4ACPI7GetMADTEv>
    1bdc:	48 89 45 f0          	mov    %rax,-0x10(%rbp)
    1be0:	48 83 7d f0 00       	cmpq   $0x0,-0x10(%rbp)
    1be5:	75 29                	jne    1c10 <_ZN4ACPI21GetProcessorLocalAPICEv+0x50>
    1be7:	48 8b 45 c8          	mov    -0x38(%rbp),%rax
    1beb:	48 8b 40 10          	mov    0x10(%rax),%rax
    1bef:	ba ff ff ff ff       	mov    $0xffffffff,%edx
    1bf4:	48 8d 0d cd b5 00 00 	lea    0xb5cd(%rip),%rcx        # d1c8 <_ZL4font+0x11c8>
    1bfb:	48 89 ce             	mov    %rcx,%rsi
    1bfe:	48 89 c7             	mov    %rax,%rdi
    1c01:	e8 34 0a 00 00       	call   263a <_ZN12BasicConsole7PrintlnEPKcj>
    1c06:	b8 00 00 00 00       	mov    $0x0,%eax
    1c0b:	e9 80 00 00 00       	jmp    1c90 <_ZN4ACPI21GetProcessorLocalAPICEv+0xd0>
    1c10:	48 8b 45 f0          	mov    -0x10(%rbp),%rax
    1c14:	48 83 c0 2c          	add    $0x2c,%rax
    1c18:	48 89 45 e8          	mov    %rax,-0x18(%rbp)
    1c1c:	48 8b 45 f0          	mov    -0x10(%rbp),%rax
    1c20:	8b 40 04             	mov    0x4(%rax),%eax
    1c23:	89 c2                	mov    %eax,%edx
    1c25:	48 8b 45 f0          	mov    -0x10(%rbp),%rax
    1c29:	48 01 d0             	add    %rdx,%rax
    1c2c:	48 89 45 e0          	mov    %rax,-0x20(%rbp)
    1c30:	48 8b 45 e8          	mov    -0x18(%rbp),%rax
    1c34:	48 89 45 f8          	mov    %rax,-0x8(%rbp)
    1c38:	eb 28                	jmp    1c62 <_ZN4ACPI21GetProcessorLocalAPICEv+0xa2>
    1c3a:	48 8b 45 f8          	mov    -0x8(%rbp),%rax
    1c3e:	48 89 45 d8          	mov    %rax,-0x28(%rbp)
    1c42:	48 8b 45 d8          	mov    -0x28(%rbp),%rax
    1c46:	0f b6 00             	movzbl (%rax),%eax
    1c49:	84 c0                	test   %al,%al
    1c4b:	75 06                	jne    1c53 <_ZN4ACPI21GetProcessorLocalAPICEv+0x93>
    1c4d:	48 8b 45 d8          	mov    -0x28(%rbp),%rax
    1c51:	eb 3d                	jmp    1c90 <_ZN4ACPI21GetProcessorLocalAPICEv+0xd0>
    1c53:	48 8b 45 d8          	mov    -0x28(%rbp),%rax
    1c57:	0f b6 40 01          	movzbl 0x1(%rax),%eax
    1c5b:	0f b6 c0             	movzbl %al,%eax
    1c5e:	48 01 45 f8          	add    %rax,-0x8(%rbp)
    1c62:	48 8b 45 f8          	mov    -0x8(%rbp),%rax
    1c66:	48 3b 45 e0          	cmp    -0x20(%rbp),%rax
    1c6a:	72 ce                	jb     1c3a <_ZN4ACPI21GetProcessorLocalAPICEv+0x7a>
    1c6c:	48 8b 45 c8          	mov    -0x38(%rbp),%rax
    1c70:	48 8b 40 10          	mov    0x10(%rax),%rax
    1c74:	ba ff ff ff ff       	mov    $0xffffffff,%edx
    1c79:	48 8d 0d 80 b5 00 00 	lea    0xb580(%rip),%rcx        # d200 <_ZL4font+0x1200>
    1c80:	48 89 ce             	mov    %rcx,%rsi
    1c83:	48 89 c7             	mov    %rax,%rdi
    1c86:	e8 af 09 00 00       	call   263a <_ZN12BasicConsole7PrintlnEPKcj>
    1c8b:	b8 00 00 00 00       	mov    $0x0,%eax
    1c90:	c9                   	leave
    1c91:	c3                   	ret

0000000000001c92 <_ZN4ACPI9GetIOAPICEv>:
    1c92:	f3 0f 1e fa          	endbr64
    1c96:	55                   	push   %rbp
    1c97:	48 89 e5             	mov    %rsp,%rbp
    1c9a:	48 83 ec 40          	sub    $0x40,%rsp
    1c9e:	48 89 7d c8          	mov    %rdi,-0x38(%rbp)
    1ca2:	48 8b 45 c8          	mov    -0x38(%rbp),%rax
    1ca6:	48 89 c7             	mov    %rax,%rdi
    1ca9:	e8 ea f9 ff ff       	call   1698 <_ZN4ACPI7GetMADTEv>
    1cae:	48 89 45 f0          	mov    %rax,-0x10(%rbp)
    1cb2:	48 83 7d f0 00       	cmpq   $0x0,-0x10(%rbp)
    1cb7:	75 29                	jne    1ce2 <_ZN4ACPI9GetIOAPICEv+0x50>
    1cb9:	48 8b 45 c8          	mov    -0x38(%rbp),%rax
    1cbd:	48 8b 40 10          	mov    0x10(%rax),%rax
    1cc1:	ba ff ff ff ff       	mov    $0xffffffff,%edx
    1cc6:	48 8d 0d 5b b5 00 00 	lea    0xb55b(%rip),%rcx        # d228 <_ZL4font+0x1228>
    1ccd:	48 89 ce             	mov    %rcx,%rsi
    1cd0:	48 89 c7             	mov    %rax,%rdi
    1cd3:	e8 62 09 00 00       	call   263a <_ZN12BasicConsole7PrintlnEPKcj>
    1cd8:	b8 00 00 00 00       	mov    $0x0,%eax
    1cdd:	e9 80 00 00 00       	jmp    1d62 <_ZN4ACPI9GetIOAPICEv+0xd0>
    1ce2:	48 8b 45 f0          	mov    -0x10(%rbp),%rax
    1ce6:	48 83 c0 2c          	add    $0x2c,%rax
    1cea:	48 89 45 e8          	mov    %rax,-0x18(%rbp)
    1cee:	48 8b 45 f0          	mov    -0x10(%rbp),%rax
    1cf2:	8b 40 04             	mov    0x4(%rax),%eax
    1cf5:	89 c2                	mov    %eax,%edx
    1cf7:	48 8b 45 f0          	mov    -0x10(%rbp),%rax
    1cfb:	48 01 d0             	add    %rdx,%rax
    1cfe:	48 89 45 e0          	mov    %rax,-0x20(%rbp)
    1d02:	48 8b 45 e8          	mov    -0x18(%rbp),%rax
    1d06:	48 89 45 f8          	mov    %rax,-0x8(%rbp)
    1d0a:	eb 28                	jmp    1d34 <_ZN4ACPI9GetIOAPICEv+0xa2>
    1d0c:	48 8b 45 f8          	mov    -0x8(%rbp),%rax
    1d10:	48 89 45 d8          	mov    %rax,-0x28(%rbp)
    1d14:	48 8b 45 d8          	mov    -0x28(%rbp),%rax
    1d18:	0f b6 00             	movzbl (%rax),%eax
    1d1b:	3c 01                	cmp    $0x1,%al
    1d1d:	75 06                	jne    1d25 <_ZN4ACPI9GetIOAPICEv+0x93>
    1d1f:	48 8b 45 d8          	mov    -0x28(%rbp),%rax
    1d23:	eb 3d                	jmp    1d62 <_ZN4ACPI9GetIOAPICEv+0xd0>
    1d25:	48 8b 45 d8          	mov    -0x28(%rbp),%rax
    1d29:	0f b6 40 01          	movzbl 0x1(%rax),%eax
    1d2d:	0f b6 c0             	movzbl %al,%eax
    1d30:	48 01 45 f8          	add    %rax,-0x8(%rbp)
    1d34:	48 8b 45 f8          	mov    -0x8(%rbp),%rax
    1d38:	48 3b 45 e0          	cmp    -0x20(%rbp),%rax
    1d3c:	72 ce                	jb     1d0c <_ZN4ACPI9GetIOAPICEv+0x7a>
    1d3e:	48 8b 45 c8          	mov    -0x38(%rbp),%rax
    1d42:	48 8b 40 10          	mov    0x10(%rax),%rax
    1d46:	ba ff ff ff ff       	mov    $0xffffffff,%edx
    1d4b:	48 8d 0d fb b4 00 00 	lea    0xb4fb(%rip),%rcx        # d24d <_ZL4font+0x124d>
    1d52:	48 89 ce             	mov    %rcx,%rsi
    1d55:	48 89 c7             	mov    %rax,%rdi
    1d58:	e8 dd 08 00 00       	call   263a <_ZN12BasicConsole7PrintlnEPKcj>
    1d5d:	b8 00 00 00 00       	mov    $0x0,%eax
    1d62:	c9                   	leave
    1d63:	c3                   	ret

0000000000001d64 <_ZN4APIC9CheckAPICEv>:
    1d64:	f3 0f 1e fa          	endbr64
    1d68:	55                   	push   %rbp
    1d69:	48 89 e5             	mov    %rsp,%rbp
    1d6c:	48 83 ec 20          	sub    $0x20,%rsp
    1d70:	48 89 7d e8          	mov    %rdi,-0x18(%rbp)
    1d74:	48 8d 55 f8          	lea    -0x8(%rbp),%rdx
    1d78:	48 8d 45 fc          	lea    -0x4(%rbp),%rax
    1d7c:	48 89 c6             	mov    %rax,%rsi
    1d7f:	bf 01 00 00 00       	mov    $0x1,%edi
    1d84:	e8 96 09 00 00       	call   271f <_Z5cpuidjPjS_>
    1d89:	8b 45 f8             	mov    -0x8(%rbp),%eax
    1d8c:	25 00 02 00 00       	and    $0x200,%eax
    1d91:	85 c0                	test   %eax,%eax
    1d93:	0f 95 c0             	setne  %al
    1d96:	c9                   	leave
    1d97:	c3                   	ret

0000000000001d98 <_ZN4APIC11SetAPICBaseEm>:
    1d98:	f3 0f 1e fa          	endbr64
    1d9c:	55                   	push   %rbp
    1d9d:	48 89 e5             	mov    %rsp,%rbp
    1da0:	48 83 ec 20          	sub    $0x20,%rsp
    1da4:	48 89 7d e8          	mov    %rdi,-0x18(%rbp)
    1da8:	48 89 75 e0          	mov    %rsi,-0x20(%rbp)
    1dac:	c7 45 fc 00 00 00 00 	movl   $0x0,-0x4(%rbp)
    1db3:	48 8b 45 e0          	mov    -0x20(%rbp),%rax
    1db7:	66 b8 00 00          	mov    $0x0,%ax
    1dbb:	80 cc 08             	or     $0x8,%ah
    1dbe:	89 45 f8             	mov    %eax,-0x8(%rbp)
    1dc1:	8b 4d fc             	mov    -0x4(%rbp),%ecx
    1dc4:	8b 55 f8             	mov    -0x8(%rbp),%edx
    1dc7:	48 8b 45 e8          	mov    -0x18(%rbp),%rax
    1dcb:	be 1b 00 00 00       	mov    $0x1b,%esi
    1dd0:	48 89 c7             	mov    %rax,%rdi
    1dd3:	e8 5a 01 00 00       	call   1f32 <_ZN4APIC8WriteMSREjjj>
    1dd8:	90                   	nop
    1dd9:	c9                   	leave
    1dda:	c3                   	ret
    1ddb:	90                   	nop

0000000000001ddc <_ZN4APIC11GetAPICBaseEv>:
    1ddc:	f3 0f 1e fa          	endbr64
    1de0:	55                   	push   %rbp
    1de1:	48 89 e5             	mov    %rsp,%rbp
    1de4:	48 83 ec 20          	sub    $0x20,%rsp
    1de8:	48 89 7d e8          	mov    %rdi,-0x18(%rbp)
    1dec:	48 8d 4d f8          	lea    -0x8(%rbp),%rcx
    1df0:	48 8d 55 fc          	lea    -0x4(%rbp),%rdx
    1df4:	48 8b 45 e8          	mov    -0x18(%rbp),%rax
    1df8:	be 1b 00 00 00       	mov    $0x1b,%esi
    1dfd:	48 89 c7             	mov    %rax,%rdi
    1e00:	e8 fd 00 00 00       	call   1f02 <_ZN4APIC7ReadMSREjPjS0_>
    1e05:	8b 45 fc             	mov    -0x4(%rbp),%eax
    1e08:	89 c0                	mov    %eax,%eax
    1e0a:	25 00 f0 ff ff       	and    $0xfffff000,%eax
    1e0f:	c9                   	leave
    1e10:	c3                   	ret
    1e11:	90                   	nop

0000000000001e12 <_ZN4APIC10EnableAPICEv>:
    1e12:	f3 0f 1e fa          	endbr64
    1e16:	55                   	push   %rbp
    1e17:	48 89 e5             	mov    %rsp,%rbp
    1e1a:	48 83 ec 20          	sub    $0x20,%rsp
    1e1e:	48 89 7d e8          	mov    %rdi,-0x18(%rbp)
    1e22:	48 8d 45 ff          	lea    -0x1(%rbp),%rax
    1e26:	48 89 c7             	mov    %rax,%rdi
    1e29:	e8 b0 05 00 00       	call   23de <_ZN3PICC1Ev>
    1e2e:	48 8d 45 ff          	lea    -0x1(%rbp),%rax
    1e32:	ba 28 00 00 00       	mov    $0x28,%edx
    1e37:	be 20 00 00 00       	mov    $0x20,%esi
    1e3c:	48 89 c7             	mov    %rax,%rdi
    1e3f:	e8 ec 61 00 00       	call   8030 <_ZN3PIC8RemapPICEii>
    1e44:	48 8d 45 ff          	lea    -0x1(%rbp),%rax
    1e48:	48 89 c7             	mov    %rax,%rdi
    1e4b:	e8 fa 62 00 00       	call   814a <_ZN3PIC7DisableEv>
    1e50:	48 8b 45 e8          	mov    -0x18(%rbp),%rax
    1e54:	ba 00 00 00 00       	mov    $0x0,%edx
    1e59:	be 80 00 00 00       	mov    $0x80,%esi
    1e5e:	48 89 c7             	mov    %rax,%rdi
    1e61:	e8 26 01 00 00       	call   1f8c <_ZN4APIC9WriteAPICE8APICRegsj>
    1e66:	48 8b 45 e8          	mov    -0x18(%rbp),%rax
    1e6a:	ba ff ff ff ff       	mov    $0xffffffff,%edx
    1e6f:	be e0 00 00 00       	mov    $0xe0,%esi
    1e74:	48 89 c7             	mov    %rax,%rdi
    1e77:	e8 10 01 00 00       	call   1f8c <_ZN4APIC9WriteAPICE8APICRegsj>
    1e7c:	48 8b 45 e8          	mov    -0x18(%rbp),%rax
    1e80:	ba 00 00 00 01       	mov    $0x1000000,%edx
    1e85:	be d0 00 00 00       	mov    $0xd0,%esi
    1e8a:	48 89 c7             	mov    %rax,%rdi
    1e8d:	e8 fa 00 00 00       	call   1f8c <_ZN4APIC9WriteAPICE8APICRegsj>
    1e92:	48 8b 45 e8          	mov    -0x18(%rbp),%rax
    1e96:	ba ff 01 00 00       	mov    $0x1ff,%edx
    1e9b:	be f0 00 00 00       	mov    $0xf0,%esi
    1ea0:	48 89 c7             	mov    %rax,%rdi
    1ea3:	e8 e4 00 00 00       	call   1f8c <_ZN4APIC9WriteAPICE8APICRegsj>
    1ea8:	90                   	nop
    1ea9:	c9                   	leave
    1eaa:	c3                   	ret
    1eab:	90                   	nop

0000000000001eac <_ZN4APIC18IsInterruptPendingEv>:
    1eac:	f3 0f 1e fa          	endbr64
    1eb0:	55                   	push   %rbp
    1eb1:	48 89 e5             	mov    %rsp,%rbp
    1eb4:	48 83 ec 20          	sub    $0x20,%rsp
    1eb8:	48 89 7d e8          	mov    %rdi,-0x18(%rbp)
    1ebc:	c7 45 fc 00 00 00 00 	movl   $0x0,-0x4(%rbp)
    1ec3:	eb 2f                	jmp    1ef4 <_ZN4APIC18IsInterruptPendingEv+0x48>
    1ec5:	8b 45 fc             	mov    -0x4(%rbp),%eax
    1ec8:	c1 e0 04             	shl    $0x4,%eax
    1ecb:	05 00 02 00 00       	add    $0x200,%eax
    1ed0:	89 c2                	mov    %eax,%edx
    1ed2:	48 8b 45 e8          	mov    -0x18(%rbp),%rax
    1ed6:	89 d6                	mov    %edx,%esi
    1ed8:	48 89 c7             	mov    %rax,%rdi
    1edb:	e8 78 00 00 00       	call   1f58 <_ZN4APIC8ReadAPICE8APICRegs>
    1ee0:	89 45 f8             	mov    %eax,-0x8(%rbp)
    1ee3:	83 7d f8 00          	cmpl   $0x0,-0x8(%rbp)
    1ee7:	74 07                	je     1ef0 <_ZN4APIC18IsInterruptPendingEv+0x44>
    1ee9:	b8 01 00 00 00       	mov    $0x1,%eax
    1eee:	eb 0f                	jmp    1eff <_ZN4APIC18IsInterruptPendingEv+0x53>
    1ef0:	83 45 fc 01          	addl   $0x1,-0x4(%rbp)
    1ef4:	83 7d fc 07          	cmpl   $0x7,-0x4(%rbp)
    1ef8:	7e cb                	jle    1ec5 <_ZN4APIC18IsInterruptPendingEv+0x19>
    1efa:	b8 00 00 00 00       	mov    $0x0,%eax
    1eff:	c9                   	leave
    1f00:	c3                   	ret
    1f01:	90                   	nop

0000000000001f02 <_ZN4APIC7ReadMSREjPjS0_>:
    1f02:	f3 0f 1e fa          	endbr64
    1f06:	55                   	push   %rbp
    1f07:	48 89 e5             	mov    %rsp,%rbp
    1f0a:	48 89 7d f8          	mov    %rdi,-0x8(%rbp)
    1f0e:	89 75 f4             	mov    %esi,-0xc(%rbp)
    1f11:	48 89 55 e8          	mov    %rdx,-0x18(%rbp)
    1f15:	48 89 4d e0          	mov    %rcx,-0x20(%rbp)
    1f19:	8b 45 f4             	mov    -0xc(%rbp),%eax
    1f1c:	89 c1                	mov    %eax,%ecx
    1f1e:	0f 32                	rdmsr
    1f20:	89 c1                	mov    %eax,%ecx
    1f22:	48 8b 45 e8          	mov    -0x18(%rbp),%rax
    1f26:	89 08                	mov    %ecx,(%rax)
    1f28:	48 8b 45 e0          	mov    -0x20(%rbp),%rax
    1f2c:	89 10                	mov    %edx,(%rax)
    1f2e:	90                   	nop
    1f2f:	5d                   	pop    %rbp
    1f30:	c3                   	ret
    1f31:	90                   	nop

0000000000001f32 <_ZN4APIC8WriteMSREjjj>:
    1f32:	f3 0f 1e fa          	endbr64
    1f36:	55                   	push   %rbp
    1f37:	48 89 e5             	mov    %rsp,%rbp
    1f3a:	48 89 7d f8          	mov    %rdi,-0x8(%rbp)
    1f3e:	89 75 f4             	mov    %esi,-0xc(%rbp)
    1f41:	89 55 f0             	mov    %edx,-0x10(%rbp)
    1f44:	89 4d ec             	mov    %ecx,-0x14(%rbp)
    1f47:	8b 4d f4             	mov    -0xc(%rbp),%ecx
    1f4a:	8b 45 f0             	mov    -0x10(%rbp),%eax
    1f4d:	8b 55 ec             	mov    -0x14(%rbp),%edx
    1f50:	0f 30                	wrmsr
    1f52:	0f ae f0             	mfence
    1f55:	90                   	nop
    1f56:	5d                   	pop    %rbp
    1f57:	c3                   	ret

0000000000001f58 <_ZN4APIC8ReadAPICE8APICRegs>:
    1f58:	f3 0f 1e fa          	endbr64
    1f5c:	55                   	push   %rbp
    1f5d:	48 89 e5             	mov    %rsp,%rbp
    1f60:	48 83 ec 20          	sub    $0x20,%rsp
    1f64:	48 89 7d e8          	mov    %rdi,-0x18(%rbp)
    1f68:	89 75 e4             	mov    %esi,-0x1c(%rbp)
    1f6b:	48 8b 45 e8          	mov    -0x18(%rbp),%rax
    1f6f:	48 89 c7             	mov    %rax,%rdi
    1f72:	e8 65 fe ff ff       	call   1ddc <_ZN4APIC11GetAPICBaseEv>
    1f77:	8b 55 e4             	mov    -0x1c(%rbp),%edx
    1f7a:	48 63 d2             	movslq %edx,%rdx
    1f7d:	48 01 d0             	add    %rdx,%rax
    1f80:	48 89 45 f8          	mov    %rax,-0x8(%rbp)
    1f84:	48 8b 45 f8          	mov    -0x8(%rbp),%rax
    1f88:	8b 00                	mov    (%rax),%eax
    1f8a:	c9                   	leave
    1f8b:	c3                   	ret

0000000000001f8c <_ZN4APIC9WriteAPICE8APICRegsj>:
    1f8c:	f3 0f 1e fa          	endbr64
    1f90:	55                   	push   %rbp
    1f91:	48 89 e5             	mov    %rsp,%rbp
    1f94:	48 83 ec 20          	sub    $0x20,%rsp
    1f98:	48 89 7d e8          	mov    %rdi,-0x18(%rbp)
    1f9c:	89 75 e4             	mov    %esi,-0x1c(%rbp)
    1f9f:	89 55 e0             	mov    %edx,-0x20(%rbp)
    1fa2:	48 8b 45 e8          	mov    -0x18(%rbp),%rax
    1fa6:	48 89 c7             	mov    %rax,%rdi
    1fa9:	e8 2e fe ff ff       	call   1ddc <_ZN4APIC11GetAPICBaseEv>
    1fae:	8b 55 e4             	mov    -0x1c(%rbp),%edx
    1fb1:	48 63 d2             	movslq %edx,%rdx
    1fb4:	48 01 d0             	add    %rdx,%rax
    1fb7:	48 89 45 f8          	mov    %rax,-0x8(%rbp)
    1fbb:	48 8b 45 f8          	mov    -0x8(%rbp),%rax
    1fbf:	8b 55 e0             	mov    -0x20(%rbp),%edx
    1fc2:	89 10                	mov    %edx,(%rax)
    1fc4:	90                   	nop
    1fc5:	c9                   	leave
    1fc6:	c3                   	ret
    1fc7:	90                   	nop

0000000000001fc8 <_ZN16LocalVectorTable9GetVectorEv>:
    1fc8:	f3 0f 1e fa          	endbr64
    1fcc:	55                   	push   %rbp
    1fcd:	48 89 e5             	mov    %rsp,%rbp
    1fd0:	48 89 7d f8          	mov    %rdi,-0x8(%rbp)
    1fd4:	48 8b 45 f8          	mov    -0x8(%rbp),%rax
    1fd8:	8b 00                	mov    (%rax),%eax
    1fda:	5d                   	pop    %rbp
    1fdb:	c3                   	ret

0000000000001fdc <_ZN16LocalVectorTable15GetDeliveryModeEv>:
    1fdc:	f3 0f 1e fa          	endbr64
    1fe0:	55                   	push   %rbp
    1fe1:	48 89 e5             	mov    %rsp,%rbp
    1fe4:	48 89 7d f8          	mov    %rdi,-0x8(%rbp)
    1fe8:	48 8b 45 f8          	mov    -0x8(%rbp),%rax
    1fec:	8b 00                	mov    (%rax),%eax
    1fee:	c1 e8 08             	shr    $0x8,%eax
    1ff1:	83 e0 07             	and    $0x7,%eax
    1ff4:	5d                   	pop    %rbp
    1ff5:	c3                   	ret

0000000000001ff6 <_ZN16LocalVectorTable19GetInterruptPendingEv>:
    1ff6:	f3 0f 1e fa          	endbr64
    1ffa:	55                   	push   %rbp
    1ffb:	48 89 e5             	mov    %rsp,%rbp
    1ffe:	48 89 7d f8          	mov    %rdi,-0x8(%rbp)
    2002:	48 8b 45 f8          	mov    -0x8(%rbp),%rax
    2006:	8b 00                	mov    (%rax),%eax
    2008:	25 00 10 00 00       	and    $0x1000,%eax
    200d:	85 c0                	test   %eax,%eax
    200f:	0f 95 c0             	setne  %al
    2012:	5d                   	pop    %rbp
    2013:	c3                   	ret

0000000000002014 <_ZN16LocalVectorTable11GetPolarityEv>:
    2014:	f3 0f 1e fa          	endbr64
    2018:	55                   	push   %rbp
    2019:	48 89 e5             	mov    %rsp,%rbp
    201c:	48 89 7d f8          	mov    %rdi,-0x8(%rbp)
    2020:	48 8b 45 f8          	mov    -0x8(%rbp),%rax
    2024:	8b 00                	mov    (%rax),%eax
    2026:	25 00 20 00 00       	and    $0x2000,%eax
    202b:	85 c0                	test   %eax,%eax
    202d:	0f 95 c0             	setne  %al
    2030:	5d                   	pop    %rbp
    2031:	c3                   	ret

0000000000002032 <_ZN16LocalVectorTable12GetRemoteIRREv>:
    2032:	f3 0f 1e fa          	endbr64
    2036:	55                   	push   %rbp
    2037:	48 89 e5             	mov    %rsp,%rbp
    203a:	48 89 7d f8          	mov    %rdi,-0x8(%rbp)
    203e:	48 8b 45 f8          	mov    -0x8(%rbp),%rax
    2042:	8b 00                	mov    (%rax),%eax
    2044:	25 00 40 00 00       	and    $0x4000,%eax
    2049:	85 c0                	test   %eax,%eax
    204b:	0f 95 c0             	setne  %al
    204e:	5d                   	pop    %rbp
    204f:	c3                   	ret

0000000000002050 <_ZN16LocalVectorTable14GetTriggerModeEv>:
    2050:	f3 0f 1e fa          	endbr64
    2054:	55                   	push   %rbp
    2055:	48 89 e5             	mov    %rsp,%rbp
    2058:	48 89 7d f8          	mov    %rdi,-0x8(%rbp)
    205c:	48 8b 45 f8          	mov    -0x8(%rbp),%rax
    2060:	8b 00                	mov    (%rax),%eax
    2062:	25 00 80 00 00       	and    $0x8000,%eax
    2067:	85 c0                	test   %eax,%eax
    2069:	0f 95 c0             	setne  %al
    206c:	5d                   	pop    %rbp
    206d:	c3                   	ret

000000000000206e <_ZN16LocalVectorTable9GetMaskedEv>:
    206e:	f3 0f 1e fa          	endbr64
    2072:	55                   	push   %rbp
    2073:	48 89 e5             	mov    %rsp,%rbp
    2076:	48 89 7d f8          	mov    %rdi,-0x8(%rbp)
    207a:	48 8b 45 f8          	mov    -0x8(%rbp),%rax
    207e:	8b 00                	mov    (%rax),%eax
    2080:	25 00 00 01 00       	and    $0x10000,%eax
    2085:	85 c0                	test   %eax,%eax
    2087:	0f 95 c0             	setne  %al
    208a:	5d                   	pop    %rbp
    208b:	c3                   	ret

000000000000208c <_ZN16LocalVectorTable9SetVectorEh>:
    208c:	f3 0f 1e fa          	endbr64
    2090:	55                   	push   %rbp
    2091:	48 89 e5             	mov    %rsp,%rbp
    2094:	48 89 7d f8          	mov    %rdi,-0x8(%rbp)
    2098:	89 f0                	mov    %esi,%eax
    209a:	88 45 f4             	mov    %al,-0xc(%rbp)
    209d:	48 8b 45 f8          	mov    -0x8(%rbp),%rax
    20a1:	8b 00                	mov    (%rax),%eax
    20a3:	b0 00                	mov    $0x0,%al
    20a5:	89 c2                	mov    %eax,%edx
    20a7:	0f b6 45 f4          	movzbl -0xc(%rbp),%eax
    20ab:	09 c2                	or     %eax,%edx
    20ad:	48 8b 45 f8          	mov    -0x8(%rbp),%rax
    20b1:	89 10                	mov    %edx,(%rax)
    20b3:	90                   	nop
    20b4:	5d                   	pop    %rbp
    20b5:	c3                   	ret

00000000000020b6 <_ZN16LocalVectorTable15SetDeliveryModeEh>:
    20b6:	f3 0f 1e fa          	endbr64
    20ba:	55                   	push   %rbp
    20bb:	48 89 e5             	mov    %rsp,%rbp
    20be:	48 89 7d f8          	mov    %rdi,-0x8(%rbp)
    20c2:	89 f0                	mov    %esi,%eax
    20c4:	88 45 f4             	mov    %al,-0xc(%rbp)
    20c7:	48 8b 45 f8          	mov    -0x8(%rbp),%rax
    20cb:	8b 00                	mov    (%rax),%eax
    20cd:	80 e4 f8             	and    $0xf8,%ah
    20d0:	89 c2                	mov    %eax,%edx
    20d2:	0f b6 45 f4          	movzbl -0xc(%rbp),%eax
    20d6:	c1 e0 08             	shl    $0x8,%eax
    20d9:	25 00 07 00 00       	and    $0x700,%eax
    20de:	09 c2                	or     %eax,%edx
    20e0:	48 8b 45 f8          	mov    -0x8(%rbp),%rax
    20e4:	89 10                	mov    %edx,(%rax)
    20e6:	90                   	nop
    20e7:	5d                   	pop    %rbp
    20e8:	c3                   	ret
    20e9:	90                   	nop

00000000000020ea <_ZN16LocalVectorTable19SetInterruptPendingEb>:
    20ea:	f3 0f 1e fa          	endbr64
    20ee:	55                   	push   %rbp
    20ef:	48 89 e5             	mov    %rsp,%rbp
    20f2:	48 89 7d f8          	mov    %rdi,-0x8(%rbp)
    20f6:	89 f0                	mov    %esi,%eax
    20f8:	88 45 f4             	mov    %al,-0xc(%rbp)
    20fb:	48 8b 45 f8          	mov    -0x8(%rbp),%rax
    20ff:	8b 00                	mov    (%rax),%eax
    2101:	80 e4 ef             	and    $0xef,%ah
    2104:	89 c2                	mov    %eax,%edx
    2106:	0f b6 45 f4          	movzbl -0xc(%rbp),%eax
    210a:	c1 e0 0c             	shl    $0xc,%eax
    210d:	09 c2                	or     %eax,%edx
    210f:	48 8b 45 f8          	mov    -0x8(%rbp),%rax
    2113:	89 10                	mov    %edx,(%rax)
    2115:	90                   	nop
    2116:	5d                   	pop    %rbp
    2117:	c3                   	ret

0000000000002118 <_ZN16LocalVectorTable11SetPolarityEb>:
    2118:	f3 0f 1e fa          	endbr64
    211c:	55                   	push   %rbp
    211d:	48 89 e5             	mov    %rsp,%rbp
    2120:	48 89 7d f8          	mov    %rdi,-0x8(%rbp)
    2124:	89 f0                	mov    %esi,%eax
    2126:	88 45 f4             	mov    %al,-0xc(%rbp)
    2129:	48 8b 45 f8          	mov    -0x8(%rbp),%rax
    212d:	8b 00                	mov    (%rax),%eax
    212f:	80 e4 df             	and    $0xdf,%ah
    2132:	89 c2                	mov    %eax,%edx
    2134:	0f b6 45 f4          	movzbl -0xc(%rbp),%eax
    2138:	c1 e0 0d             	shl    $0xd,%eax
    213b:	09 c2                	or     %eax,%edx
    213d:	48 8b 45 f8          	mov    -0x8(%rbp),%rax
    2141:	89 10                	mov    %edx,(%rax)
    2143:	90                   	nop
    2144:	5d                   	pop    %rbp
    2145:	c3                   	ret

0000000000002146 <_ZN16LocalVectorTable12SetRemoteIRREb>:
    2146:	f3 0f 1e fa          	endbr64
    214a:	55                   	push   %rbp
    214b:	48 89 e5             	mov    %rsp,%rbp
    214e:	48 89 7d f8          	mov    %rdi,-0x8(%rbp)
    2152:	89 f0                	mov    %esi,%eax
    2154:	88 45 f4             	mov    %al,-0xc(%rbp)
    2157:	48 8b 45 f8          	mov    -0x8(%rbp),%rax
    215b:	8b 00                	mov    (%rax),%eax
    215d:	80 e4 bf             	and    $0xbf,%ah
    2160:	89 c2                	mov    %eax,%edx
    2162:	0f b6 45 f4          	movzbl -0xc(%rbp),%eax
    2166:	c1 e0 0e             	shl    $0xe,%eax
    2169:	09 c2                	or     %eax,%edx
    216b:	48 8b 45 f8          	mov    -0x8(%rbp),%rax
    216f:	89 10                	mov    %edx,(%rax)
    2171:	90                   	nop
    2172:	5d                   	pop    %rbp
    2173:	c3                   	ret

0000000000002174 <_ZN16LocalVectorTable14SetTriggerModeEb>:
    2174:	f3 0f 1e fa          	endbr64
    2178:	55                   	push   %rbp
    2179:	48 89 e5             	mov    %rsp,%rbp
    217c:	48 89 7d f8          	mov    %rdi,-0x8(%rbp)
    2180:	89 f0                	mov    %esi,%eax
    2182:	88 45 f4             	mov    %al,-0xc(%rbp)
    2185:	48 8b 45 f8          	mov    -0x8(%rbp),%rax
    2189:	8b 00                	mov    (%rax),%eax
    218b:	80 e4 7f             	and    $0x7f,%ah
    218e:	89 c2                	mov    %eax,%edx
    2190:	0f b6 45 f4          	movzbl -0xc(%rbp),%eax
    2194:	c1 e0 0f             	shl    $0xf,%eax
    2197:	09 c2                	or     %eax,%edx
    2199:	48 8b 45 f8          	mov    -0x8(%rbp),%rax
    219d:	89 10                	mov    %edx,(%rax)
    219f:	90                   	nop
    21a0:	5d                   	pop    %rbp
    21a1:	c3                   	ret

00000000000021a2 <_ZN16LocalVectorTable9SetMaskedEb>:
    21a2:	f3 0f 1e fa          	endbr64
    21a6:	55                   	push   %rbp
    21a7:	48 89 e5             	mov    %rsp,%rbp
    21aa:	48 89 7d f8          	mov    %rdi,-0x8(%rbp)
    21ae:	89 f0                	mov    %esi,%eax
    21b0:	88 45 f4             	mov    %al,-0xc(%rbp)
    21b3:	48 8b 45 f8          	mov    -0x8(%rbp),%rax
    21b7:	8b 00                	mov    (%rax),%eax
    21b9:	25 ff ff fe ff       	and    $0xfffeffff,%eax
    21be:	89 c2                	mov    %eax,%edx
    21c0:	0f b6 45 f4          	movzbl -0xc(%rbp),%eax
    21c4:	c1 e0 10             	shl    $0x10,%eax
    21c7:	09 c2                	or     %eax,%edx
    21c9:	48 8b 45 f8          	mov    -0x8(%rbp),%rax
    21cd:	89 10                	mov    %edx,(%rax)
    21cf:	90                   	nop
    21d0:	5d                   	pop    %rbp
    21d1:	c3                   	ret

00000000000021d2 <_ZN24InterruptCommandRegister9GetVectorEv>:
    21d2:	f3 0f 1e fa          	endbr64
    21d6:	55                   	push   %rbp
    21d7:	48 89 e5             	mov    %rsp,%rbp
    21da:	48 89 7d f8          	mov    %rdi,-0x8(%rbp)
    21de:	48 8b 45 f8          	mov    -0x8(%rbp),%rax
    21e2:	8b 00                	mov    (%rax),%eax
    21e4:	5d                   	pop    %rbp
    21e5:	c3                   	ret

00000000000021e6 <_ZN24InterruptCommandRegister15GetDeliveryModeEv>:
    21e6:	f3 0f 1e fa          	endbr64
    21ea:	55                   	push   %rbp
    21eb:	48 89 e5             	mov    %rsp,%rbp
    21ee:	48 89 7d f8          	mov    %rdi,-0x8(%rbp)
    21f2:	48 8b 45 f8          	mov    -0x8(%rbp),%rax
    21f6:	8b 00                	mov    (%rax),%eax
    21f8:	c1 e8 08             	shr    $0x8,%eax
    21fb:	83 e0 07             	and    $0x7,%eax
    21fe:	5d                   	pop    %rbp
    21ff:	c3                   	ret

0000000000002200 <_ZN24InterruptCommandRegister18GetDestinationModeEv>:
    2200:	f3 0f 1e fa          	endbr64
    2204:	55                   	push   %rbp
    2205:	48 89 e5             	mov    %rsp,%rbp
    2208:	48 89 7d f8          	mov    %rdi,-0x8(%rbp)
    220c:	48 8b 45 f8          	mov    -0x8(%rbp),%rax
    2210:	8b 00                	mov    (%rax),%eax
    2212:	25 00 08 00 00       	and    $0x800,%eax
    2217:	85 c0                	test   %eax,%eax
    2219:	0f 95 c0             	setne  %al
    221c:	5d                   	pop    %rbp
    221d:	c3                   	ret

000000000000221e <_ZN24InterruptCommandRegister17GetDeliveryStatusEv>:
    221e:	f3 0f 1e fa          	endbr64
    2222:	55                   	push   %rbp
    2223:	48 89 e5             	mov    %rsp,%rbp
    2226:	48 89 7d f8          	mov    %rdi,-0x8(%rbp)
    222a:	48 8b 45 f8          	mov    -0x8(%rbp),%rax
    222e:	8b 00                	mov    (%rax),%eax
    2230:	25 00 10 00 00       	and    $0x1000,%eax
    2235:	85 c0                	test   %eax,%eax
    2237:	0f 95 c0             	setne  %al
    223a:	5d                   	pop    %rbp
    223b:	c3                   	ret

000000000000223c <_ZN24InterruptCommandRegister12GetInitClearEv>:
    223c:	f3 0f 1e fa          	endbr64
    2240:	55                   	push   %rbp
    2241:	48 89 e5             	mov    %rsp,%rbp
    2244:	48 89 7d f8          	mov    %rdi,-0x8(%rbp)
    2248:	48 8b 45 f8          	mov    -0x8(%rbp),%rax
    224c:	8b 00                	mov    (%rax),%eax
    224e:	25 00 40 00 00       	and    $0x4000,%eax
    2253:	85 c0                	test   %eax,%eax
    2255:	0f 95 c0             	setne  %al
    2258:	5d                   	pop    %rbp
    2259:	c3                   	ret

000000000000225a <_ZN24InterruptCommandRegister10GetInitSetEv>:
    225a:	f3 0f 1e fa          	endbr64
    225e:	55                   	push   %rbp
    225f:	48 89 e5             	mov    %rsp,%rbp
    2262:	48 89 7d f8          	mov    %rdi,-0x8(%rbp)
    2266:	48 8b 45 f8          	mov    -0x8(%rbp),%rax
    226a:	8b 00                	mov    (%rax),%eax
    226c:	25 00 80 00 00       	and    $0x8000,%eax
    2271:	85 c0                	test   %eax,%eax
    2273:	0f 95 c0             	setne  %al
    2276:	5d                   	pop    %rbp
    2277:	c3                   	ret

0000000000002278 <_ZN24InterruptCommandRegister18GetDestinationTypeEv>:
    2278:	f3 0f 1e fa          	endbr64
    227c:	55                   	push   %rbp
    227d:	48 89 e5             	mov    %rsp,%rbp
    2280:	48 89 7d f8          	mov    %rdi,-0x8(%rbp)
    2284:	48 8b 45 f8          	mov    -0x8(%rbp),%rax
    2288:	8b 00                	mov    (%rax),%eax
    228a:	c1 e8 12             	shr    $0x12,%eax
    228d:	83 e0 03             	and    $0x3,%eax
    2290:	5d                   	pop    %rbp
    2291:	c3                   	ret

0000000000002292 <_ZN24InterruptCommandRegister9SetVectorEh>:
    2292:	f3 0f 1e fa          	endbr64
    2296:	55                   	push   %rbp
    2297:	48 89 e5             	mov    %rsp,%rbp
    229a:	48 89 7d f8          	mov    %rdi,-0x8(%rbp)
    229e:	89 f0                	mov    %esi,%eax
    22a0:	88 45 f4             	mov    %al,-0xc(%rbp)
    22a3:	48 8b 45 f8          	mov    -0x8(%rbp),%rax
    22a7:	8b 00                	mov    (%rax),%eax
    22a9:	b0 00                	mov    $0x0,%al
    22ab:	89 c2                	mov    %eax,%edx
    22ad:	0f b6 45 f4          	movzbl -0xc(%rbp),%eax
    22b1:	09 c2                	or     %eax,%edx
    22b3:	48 8b 45 f8          	mov    -0x8(%rbp),%rax
    22b7:	89 10                	mov    %edx,(%rax)
    22b9:	90                   	nop
    22ba:	5d                   	pop    %rbp
    22bb:	c3                   	ret

00000000000022bc <_ZN24InterruptCommandRegister15SetDeliveryModeEh>:
    22bc:	f3 0f 1e fa          	endbr64
    22c0:	55                   	push   %rbp
    22c1:	48 89 e5             	mov    %rsp,%rbp
    22c4:	48 89 7d f8          	mov    %rdi,-0x8(%rbp)
    22c8:	89 f0                	mov    %esi,%eax
    22ca:	88 45 f4             	mov    %al,-0xc(%rbp)
    22cd:	48 8b 45 f8          	mov    -0x8(%rbp),%rax
    22d1:	8b 00                	mov    (%rax),%eax
    22d3:	80 e4 f8             	and    $0xf8,%ah
    22d6:	89 c2                	mov    %eax,%edx
    22d8:	0f b6 45 f4          	movzbl -0xc(%rbp),%eax
    22dc:	c1 e0 08             	shl    $0x8,%eax
    22df:	25 00 07 00 00       	and    $0x700,%eax
    22e4:	09 c2                	or     %eax,%edx
    22e6:	48 8b 45 f8          	mov    -0x8(%rbp),%rax
    22ea:	89 10                	mov    %edx,(%rax)
    22ec:	90                   	nop
    22ed:	5d                   	pop    %rbp
    22ee:	c3                   	ret
    22ef:	90                   	nop

00000000000022f0 <_ZN24InterruptCommandRegister18SetDestinationModeEb>:
    22f0:	f3 0f 1e fa          	endbr64
    22f4:	55                   	push   %rbp
    22f5:	48 89 e5             	mov    %rsp,%rbp
    22f8:	48 89 7d f8          	mov    %rdi,-0x8(%rbp)
    22fc:	89 f0                	mov    %esi,%eax
    22fe:	88 45 f4             	mov    %al,-0xc(%rbp)
    2301:	48 8b 45 f8          	mov    -0x8(%rbp),%rax
    2305:	8b 00                	mov    (%rax),%eax
    2307:	80 e4 f7             	and    $0xf7,%ah
    230a:	89 c2                	mov    %eax,%edx
    230c:	0f b6 45 f4          	movzbl -0xc(%rbp),%eax
    2310:	c1 e0 0b             	shl    $0xb,%eax
    2313:	09 c2                	or     %eax,%edx
    2315:	48 8b 45 f8          	mov    -0x8(%rbp),%rax
    2319:	89 10                	mov    %edx,(%rax)
    231b:	90                   	nop
    231c:	5d                   	pop    %rbp
    231d:	c3                   	ret

000000000000231e <_ZN24InterruptCommandRegister17SetDeliveryStatusEb>:
    231e:	f3 0f 1e fa          	endbr64
    2322:	55                   	push   %rbp
    2323:	48 89 e5             	mov    %rsp,%rbp
    2326:	48 89 7d f8          	mov    %rdi,-0x8(%rbp)
    232a:	89 f0                	mov    %esi,%eax
    232c:	88 45 f4             	mov    %al,-0xc(%rbp)
    232f:	48 8b 45 f8          	mov    -0x8(%rbp),%rax
    2333:	8b 00                	mov    (%rax),%eax
    2335:	80 e4 ef             	and    $0xef,%ah
    2338:	89 c2                	mov    %eax,%edx
    233a:	0f b6 45 f4          	movzbl -0xc(%rbp),%eax
    233e:	c1 e0 0c             	shl    $0xc,%eax
    2341:	09 c2                	or     %eax,%edx
    2343:	48 8b 45 f8          	mov    -0x8(%rbp),%rax
    2347:	89 10                	mov    %edx,(%rax)
    2349:	90                   	nop
    234a:	5d                   	pop    %rbp
    234b:	c3                   	ret

000000000000234c <_ZN24InterruptCommandRegister12SetInitClearEb>:
    234c:	f3 0f 1e fa          	endbr64
    2350:	55                   	push   %rbp
    2351:	48 89 e5             	mov    %rsp,%rbp
    2354:	48 89 7d f8          	mov    %rdi,-0x8(%rbp)
    2358:	89 f0                	mov    %esi,%eax
    235a:	88 45 f4             	mov    %al,-0xc(%rbp)
    235d:	48 8b 45 f8          	mov    -0x8(%rbp),%rax
    2361:	8b 00                	mov    (%rax),%eax
    2363:	80 e4 bf             	and    $0xbf,%ah
    2366:	89 c2                	mov    %eax,%edx
    2368:	0f b6 45 f4          	movzbl -0xc(%rbp),%eax
    236c:	c1 e0 0e             	shl    $0xe,%eax
    236f:	09 c2                	or     %eax,%edx
    2371:	48 8b 45 f8          	mov    -0x8(%rbp),%rax
    2375:	89 10                	mov    %edx,(%rax)
    2377:	90                   	nop
    2378:	5d                   	pop    %rbp
    2379:	c3                   	ret

000000000000237a <_ZN24InterruptCommandRegister10SetInitSetEb>:
    237a:	f3 0f 1e fa          	endbr64
    237e:	55                   	push   %rbp
    237f:	48 89 e5             	mov    %rsp,%rbp
    2382:	48 89 7d f8          	mov    %rdi,-0x8(%rbp)
    2386:	89 f0                	mov    %esi,%eax
    2388:	88 45 f4             	mov    %al,-0xc(%rbp)
    238b:	48 8b 45 f8          	mov    -0x8(%rbp),%rax
    238f:	8b 00                	mov    (%rax),%eax
    2391:	80 e4 7f             	and    $0x7f,%ah
    2394:	89 c2                	mov    %eax,%edx
    2396:	0f b6 45 f4          	movzbl -0xc(%rbp),%eax
    239a:	c1 e0 0f             	shl    $0xf,%eax
    239d:	09 c2                	or     %eax,%edx
    239f:	48 8b 45 f8          	mov    -0x8(%rbp),%rax
    23a3:	89 10                	mov    %edx,(%rax)
    23a5:	90                   	nop
    23a6:	5d                   	pop    %rbp
    23a7:	c3                   	ret

00000000000023a8 <_ZN24InterruptCommandRegister18SetDestinationTypeEh>:
    23a8:	f3 0f 1e fa          	endbr64
    23ac:	55                   	push   %rbp
    23ad:	48 89 e5             	mov    %rsp,%rbp
    23b0:	48 89 7d f8          	mov    %rdi,-0x8(%rbp)
    23b4:	89 f0                	mov    %esi,%eax
    23b6:	88 45 f4             	mov    %al,-0xc(%rbp)
    23b9:	48 8b 45 f8          	mov    -0x8(%rbp),%rax
    23bd:	8b 00                	mov    (%rax),%eax
    23bf:	25 ff ff f3 ff       	and    $0xfff3ffff,%eax
    23c4:	89 c2                	mov    %eax,%edx
    23c6:	0f b6 45 f4          	movzbl -0xc(%rbp),%eax
    23ca:	c1 e0 12             	shl    $0x12,%eax
    23cd:	25 00 00 0c 00       	and    $0xc0000,%eax
    23d2:	09 c2                	or     %eax,%edx
    23d4:	48 8b 45 f8          	mov    -0x8(%rbp),%rax
    23d8:	89 10                	mov    %edx,(%rax)
    23da:	90                   	nop
    23db:	5d                   	pop    %rbp
    23dc:	c3                   	ret
    23dd:	90                   	nop

00000000000023de <_ZN3PICC1Ev>:
    23de:	f3 0f 1e fa          	endbr64
    23e2:	55                   	push   %rbp
    23e3:	48 89 e5             	mov    %rsp,%rbp
    23e6:	48 89 7d f8          	mov    %rdi,-0x8(%rbp)
    23ea:	90                   	nop
    23eb:	5d                   	pop    %rbp
    23ec:	c3                   	ret

00000000000023ed <_Z5PrintPKc>:
    23ed:	f3 0f 1e fa          	endbr64
    23f1:	55                   	push   %rbp
    23f2:	48 89 e5             	mov    %rsp,%rbp
    23f5:	48 83 ec 10          	sub    $0x10,%rsp
    23f9:	48 89 7d f8          	mov    %rdi,-0x8(%rbp)
    23fd:	48 8b 05 fc 44 02 00 	mov    0x244fc(%rip),%rax        # 26900 <ks>
    2404:	48 89 c1             	mov    %rax,%rcx
    2407:	48 8b 45 f8          	mov    -0x8(%rbp),%rax
    240b:	ba ff ff ff ff       	mov    $0xffffffff,%edx
    2410:	48 89 c6             	mov    %rax,%rsi
    2413:	48 89 cf             	mov    %rcx,%rdi
    2416:	e8 1f 02 00 00       	call   263a <_ZN12BasicConsole7PrintlnEPKcj>
    241b:	90                   	nop
    241c:	c9                   	leave
    241d:	c3                   	ret

000000000000241e <_ZN12BasicConsoleC1E11FrameBuffer>:
    241e:	f3 0f 1e fa          	endbr64
    2422:	55                   	push   %rbp
    2423:	48 89 e5             	mov    %rsp,%rbp
    2426:	48 89 7d f8          	mov    %rdi,-0x8(%rbp)
    242a:	48 8b 4d f8          	mov    -0x8(%rbp),%rcx
    242e:	48 8b 45 10          	mov    0x10(%rbp),%rax
    2432:	48 8b 55 18          	mov    0x18(%rbp),%rdx
    2436:	48 89 41 08          	mov    %rax,0x8(%rcx)
    243a:	48 89 51 10          	mov    %rdx,0x10(%rcx)
    243e:	48 8b 45 20          	mov    0x20(%rbp),%rax
    2442:	48 8b 55 28          	mov    0x28(%rbp),%rdx
    2446:	48 89 41 18          	mov    %rax,0x18(%rcx)
    244a:	48 89 51 20          	mov    %rdx,0x20(%rcx)
    244e:	48 8b 45 f8          	mov    -0x8(%rbp),%rax
    2452:	c7 00 0a 00 00 00    	movl   $0xa,(%rax)
    2458:	48 8b 45 f8          	mov    -0x8(%rbp),%rax
    245c:	c7 40 04 0a 00 00 00 	movl   $0xa,0x4(%rax)
    2463:	90                   	nop
    2464:	5d                   	pop    %rbp
    2465:	c3                   	ret

0000000000002466 <_ZN12BasicConsole7putCharEjcjj>:
    2466:	f3 0f 1e fa          	endbr64
    246a:	55                   	push   %rbp
    246b:	48 89 e5             	mov    %rsp,%rbp
    246e:	48 89 7d c8          	mov    %rdi,-0x38(%rbp)
    2472:	89 75 c4             	mov    %esi,-0x3c(%rbp)
    2475:	89 d0                	mov    %edx,%eax
    2477:	89 4d bc             	mov    %ecx,-0x44(%rbp)
    247a:	44 89 45 b8          	mov    %r8d,-0x48(%rbp)
    247e:	88 45 c0             	mov    %al,-0x40(%rbp)
    2481:	48 8b 45 c8          	mov    -0x38(%rbp),%rax
    2485:	48 8b 40 08          	mov    0x8(%rax),%rax
    2489:	48 89 45 e8          	mov    %rax,-0x18(%rbp)
    248d:	80 7d c0 00          	cmpb   $0x0,-0x40(%rbp)
    2491:	0f 88 d3 00 00 00    	js     256a <_ZN12BasicConsole7putCharEjcjj+0x104>
    2497:	0f be 45 c0          	movsbl -0x40(%rbp),%eax
    249b:	c1 e0 04             	shl    $0x4,%eax
    249e:	48 98                	cltq
    24a0:	48 8d 15 d9 cd 00 00 	lea    0xcdd9(%rip),%rdx        # f280 <_ZL4font>
    24a7:	48 01 d0             	add    %rdx,%rax
    24aa:	48 89 45 e0          	mov    %rax,-0x20(%rbp)
    24ae:	48 c7 45 f8 00 00 00 	movq   $0x0,-0x8(%rbp)
    24b5:	00 
    24b6:	e9 a2 00 00 00       	jmp    255d <_ZN12BasicConsole7putCharEjcjj+0xf7>
    24bb:	48 c7 45 f0 00 00 00 	movq   $0x0,-0x10(%rbp)
    24c2:	00 
    24c3:	e9 85 00 00 00       	jmp    254d <_ZN12BasicConsole7putCharEjcjj+0xe7>
    24c8:	48 8b 55 e0          	mov    -0x20(%rbp),%rdx
    24cc:	48 8b 45 f8          	mov    -0x8(%rbp),%rax
    24d0:	48 01 d0             	add    %rdx,%rax
    24d3:	0f b6 00             	movzbl (%rax),%eax
    24d6:	0f b6 c0             	movzbl %al,%eax
    24d9:	48 8b 55 f0          	mov    -0x10(%rbp),%rdx
    24dd:	be 80 00 00 00       	mov    $0x80,%esi
    24e2:	89 d1                	mov    %edx,%ecx
    24e4:	d3 fe                	sar    %cl,%esi
    24e6:	89 f2                	mov    %esi,%edx
    24e8:	21 d0                	and    %edx,%eax
    24ea:	85 c0                	test   %eax,%eax
    24ec:	74 5a                	je     2548 <_ZN12BasicConsole7putCharEjcjj+0xe2>
    24ee:	8b 55 bc             	mov    -0x44(%rbp),%edx
    24f1:	48 8b 45 f0          	mov    -0x10(%rbp),%rax
    24f5:	48 8d 0c 02          	lea    (%rdx,%rax,1),%rcx
    24f9:	8b 55 b8             	mov    -0x48(%rbp),%edx
    24fc:	48 8b 45 f8          	mov    -0x8(%rbp),%rax
    2500:	48 01 c2             	add    %rax,%rdx
    2503:	48 8b 45 c8          	mov    -0x38(%rbp),%rax
    2507:	8b 40 20             	mov    0x20(%rax),%eax
    250a:	89 c0                	mov    %eax,%eax
    250c:	48 0f af c2          	imul   %rdx,%rax
    2510:	48 01 c8             	add    %rcx,%rax
    2513:	48 89 45 d8          	mov    %rax,-0x28(%rbp)
    2517:	48 8b 45 c8          	mov    -0x38(%rbp),%rax
    251b:	8b 50 18             	mov    0x18(%rax),%edx
    251e:	48 8b 45 c8          	mov    -0x38(%rbp),%rax
    2522:	8b 40 1c             	mov    0x1c(%rax),%eax
    2525:	0f af c2             	imul   %edx,%eax
    2528:	89 c0                	mov    %eax,%eax
    252a:	48 39 45 d8          	cmp    %rax,-0x28(%rbp)
    252e:	73 18                	jae    2548 <_ZN12BasicConsole7putCharEjcjj+0xe2>
    2530:	48 8b 45 d8          	mov    -0x28(%rbp),%rax
    2534:	48 8d 14 85 00 00 00 	lea    0x0(,%rax,4),%rdx
    253b:	00 
    253c:	48 8b 45 e8          	mov    -0x18(%rbp),%rax
    2540:	48 01 c2             	add    %rax,%rdx
    2543:	8b 45 c4             	mov    -0x3c(%rbp),%eax
    2546:	89 02                	mov    %eax,(%rdx)
    2548:	48 83 45 f0 01       	addq   $0x1,-0x10(%rbp)
    254d:	48 83 7d f0 07       	cmpq   $0x7,-0x10(%rbp)
    2552:	0f 86 70 ff ff ff    	jbe    24c8 <_ZN12BasicConsole7putCharEjcjj+0x62>
    2558:	48 83 45 f8 01       	addq   $0x1,-0x8(%rbp)
    255d:	48 83 7d f8 0f       	cmpq   $0xf,-0x8(%rbp)
    2562:	0f 86 53 ff ff ff    	jbe    24bb <_ZN12BasicConsole7putCharEjcjj+0x55>
    2568:	eb 01                	jmp    256b <_ZN12BasicConsole7putCharEjcjj+0x105>
    256a:	90                   	nop
    256b:	5d                   	pop    %rbp
    256c:	c3                   	ret
    256d:	90                   	nop

000000000000256e <_ZN12BasicConsole5PrintEPKcj>:
    256e:	f3 0f 1e fa          	endbr64
    2572:	55                   	push   %rbp
    2573:	48 89 e5             	mov    %rsp,%rbp
    2576:	48 83 ec 28          	sub    $0x28,%rsp
    257a:	48 89 7d e8          	mov    %rdi,-0x18(%rbp)
    257e:	48 89 75 e0          	mov    %rsi,-0x20(%rbp)
    2582:	89 55 dc             	mov    %edx,-0x24(%rbp)
    2585:	48 8b 45 e0          	mov    -0x20(%rbp),%rax
    2589:	48 89 45 f8          	mov    %rax,-0x8(%rbp)
    258d:	e9 94 00 00 00       	jmp    2626 <_ZN12BasicConsole5PrintEPKcj+0xb8>
    2592:	48 8b 45 f8          	mov    -0x8(%rbp),%rax
    2596:	0f b6 00             	movzbl (%rax),%eax
    2599:	3c 0a                	cmp    $0xa,%al
    259b:	75 1d                	jne    25ba <_ZN12BasicConsole5PrintEPKcj+0x4c>
    259d:	48 8b 45 e8          	mov    -0x18(%rbp),%rax
    25a1:	c7 00 0a 00 00 00    	movl   $0xa,(%rax)
    25a7:	48 8b 45 e8          	mov    -0x18(%rbp),%rax
    25ab:	8b 40 04             	mov    0x4(%rax),%eax
    25ae:	8d 50 10             	lea    0x10(%rax),%edx
    25b1:	48 8b 45 e8          	mov    -0x18(%rbp),%rax
    25b5:	89 50 04             	mov    %edx,0x4(%rax)
    25b8:	eb 67                	jmp    2621 <_ZN12BasicConsole5PrintEPKcj+0xb3>
    25ba:	48 8b 45 e8          	mov    -0x18(%rbp),%rax
    25be:	8b 78 04             	mov    0x4(%rax),%edi
    25c1:	48 8b 45 e8          	mov    -0x18(%rbp),%rax
    25c5:	8b 08                	mov    (%rax),%ecx
    25c7:	48 8b 45 f8          	mov    -0x8(%rbp),%rax
    25cb:	0f b6 00             	movzbl (%rax),%eax
    25ce:	0f be d0             	movsbl %al,%edx
    25d1:	8b 75 dc             	mov    -0x24(%rbp),%esi
    25d4:	48 8b 45 e8          	mov    -0x18(%rbp),%rax
    25d8:	41 89 f8             	mov    %edi,%r8d
    25db:	48 89 c7             	mov    %rax,%rdi
    25de:	e8 83 fe ff ff       	call   2466 <_ZN12BasicConsole7putCharEjcjj>
    25e3:	48 8b 45 e8          	mov    -0x18(%rbp),%rax
    25e7:	8b 00                	mov    (%rax),%eax
    25e9:	8d 50 08             	lea    0x8(%rax),%edx
    25ec:	48 8b 45 e8          	mov    -0x18(%rbp),%rax
    25f0:	89 10                	mov    %edx,(%rax)
    25f2:	48 8b 45 e8          	mov    -0x18(%rbp),%rax
    25f6:	8b 00                	mov    (%rax),%eax
    25f8:	8d 50 0a             	lea    0xa(%rax),%edx
    25fb:	48 8b 45 e8          	mov    -0x18(%rbp),%rax
    25ff:	8b 40 18             	mov    0x18(%rax),%eax
    2602:	39 d0                	cmp    %edx,%eax
    2604:	73 1b                	jae    2621 <_ZN12BasicConsole5PrintEPKcj+0xb3>
    2606:	48 8b 45 e8          	mov    -0x18(%rbp),%rax
    260a:	c7 00 0a 00 00 00    	movl   $0xa,(%rax)
    2610:	48 8b 45 e8          	mov    -0x18(%rbp),%rax
    2614:	8b 40 04             	mov    0x4(%rax),%eax
    2617:	8d 50 10             	lea    0x10(%rax),%edx
    261a:	48 8b 45 e8          	mov    -0x18(%rbp),%rax
    261e:	89 50 04             	mov    %edx,0x4(%rax)
    2621:	48 83 45 f8 01       	addq   $0x1,-0x8(%rbp)
    2626:	48 8b 45 f8          	mov    -0x8(%rbp),%rax
    262a:	0f b6 00             	movzbl (%rax),%eax
    262d:	84 c0                	test   %al,%al
    262f:	0f 85 5d ff ff ff    	jne    2592 <_ZN12BasicConsole5PrintEPKcj+0x24>
    2635:	90                   	nop
    2636:	90                   	nop
    2637:	c9                   	leave
    2638:	c3                   	ret
    2639:	90                   	nop

000000000000263a <_ZN12BasicConsole7PrintlnEPKcj>:
    263a:	f3 0f 1e fa          	endbr64
    263e:	55                   	push   %rbp
    263f:	48 89 e5             	mov    %rsp,%rbp
    2642:	48 83 ec 28          	sub    $0x28,%rsp
    2646:	48 89 7d e8          	mov    %rdi,-0x18(%rbp)
    264a:	48 89 75 e0          	mov    %rsi,-0x20(%rbp)
    264e:	89 55 dc             	mov    %edx,-0x24(%rbp)
    2651:	48 8b 45 e0          	mov    -0x20(%rbp),%rax
    2655:	48 89 45 f8          	mov    %rax,-0x8(%rbp)
    2659:	e9 94 00 00 00       	jmp    26f2 <_ZN12BasicConsole7PrintlnEPKcj+0xb8>
    265e:	48 8b 45 f8          	mov    -0x8(%rbp),%rax
    2662:	0f b6 00             	movzbl (%rax),%eax
    2665:	3c 0a                	cmp    $0xa,%al
    2667:	75 1d                	jne    2686 <_ZN12BasicConsole7PrintlnEPKcj+0x4c>
    2669:	48 8b 45 e8          	mov    -0x18(%rbp),%rax
    266d:	c7 00 0a 00 00 00    	movl   $0xa,(%rax)
    2673:	48 8b 45 e8          	mov    -0x18(%rbp),%rax
    2677:	8b 40 04             	mov    0x4(%rax),%eax
    267a:	8d 50 10             	lea    0x10(%rax),%edx
    267d:	48 8b 45 e8          	mov    -0x18(%rbp),%rax
    2681:	89 50 04             	mov    %edx,0x4(%rax)
    2684:	eb 67                	jmp    26ed <_ZN12BasicConsole7PrintlnEPKcj+0xb3>
    2686:	48 8b 45 e8          	mov    -0x18(%rbp),%rax
    268a:	8b 78 04             	mov    0x4(%rax),%edi
    268d:	48 8b 45 e8          	mov    -0x18(%rbp),%rax
    2691:	8b 08                	mov    (%rax),%ecx
    2693:	48 8b 45 f8          	mov    -0x8(%rbp),%rax
    2697:	0f b6 00             	movzbl (%rax),%eax
    269a:	0f be d0             	movsbl %al,%edx
    269d:	8b 75 dc             	mov    -0x24(%rbp),%esi
    26a0:	48 8b 45 e8          	mov    -0x18(%rbp),%rax
    26a4:	41 89 f8             	mov    %edi,%r8d
    26a7:	48 89 c7             	mov    %rax,%rdi
    26aa:	e8 b7 fd ff ff       	call   2466 <_ZN12BasicConsole7putCharEjcjj>
    26af:	48 8b 45 e8          	mov    -0x18(%rbp),%rax
    26b3:	8b 00                	mov    (%rax),%eax
    26b5:	8d 50 08             	lea    0x8(%rax),%edx
    26b8:	48 8b 45 e8          	mov    -0x18(%rbp),%rax
    26bc:	89 10                	mov    %edx,(%rax)
    26be:	48 8b 45 e8          	mov    -0x18(%rbp),%rax
    26c2:	8b 00                	mov    (%rax),%eax
    26c4:	8d 50 0a             	lea    0xa(%rax),%edx
    26c7:	48 8b 45 e8          	mov    -0x18(%rbp),%rax
    26cb:	8b 40 18             	mov    0x18(%rax),%eax
    26ce:	39 d0                	cmp    %edx,%eax
    26d0:	73 1b                	jae    26ed <_ZN12BasicConsole7PrintlnEPKcj+0xb3>
    26d2:	48 8b 45 e8          	mov    -0x18(%rbp),%rax
    26d6:	c7 00 0a 00 00 00    	movl   $0xa,(%rax)
    26dc:	48 8b 45 e8          	mov    -0x18(%rbp),%rax
    26e0:	8b 40 04             	mov    0x4(%rax),%eax
    26e3:	8d 50 10             	lea    0x10(%rax),%edx
    26e6:	48 8b 45 e8          	mov    -0x18(%rbp),%rax
    26ea:	89 50 04             	mov    %edx,0x4(%rax)
    26ed:	48 83 45 f8 01       	addq   $0x1,-0x8(%rbp)
    26f2:	48 8b 45 f8          	mov    -0x8(%rbp),%rax
    26f6:	0f b6 00             	movzbl (%rax),%eax
    26f9:	84 c0                	test   %al,%al
    26fb:	0f 85 5d ff ff ff    	jne    265e <_ZN12BasicConsole7PrintlnEPKcj+0x24>
    2701:	48 8b 45 e8          	mov    -0x18(%rbp),%rax
    2705:	c7 00 0a 00 00 00    	movl   $0xa,(%rax)
    270b:	48 8b 45 e8          	mov    -0x18(%rbp),%rax
    270f:	8b 40 04             	mov    0x4(%rax),%eax
    2712:	8d 50 10             	lea    0x10(%rax),%edx
    2715:	48 8b 45 e8          	mov    -0x18(%rbp),%rax
    2719:	89 50 04             	mov    %edx,0x4(%rax)
    271c:	90                   	nop
    271d:	c9                   	leave
    271e:	c3                   	ret

000000000000271f <_Z5cpuidjPjS_>:
    271f:	f3 0f 1e fa          	endbr64
    2723:	55                   	push   %rbp
    2724:	48 89 e5             	mov    %rsp,%rbp
    2727:	53                   	push   %rbx
    2728:	89 7d e4             	mov    %edi,-0x1c(%rbp)
    272b:	48 89 75 d8          	mov    %rsi,-0x28(%rbp)
    272f:	48 89 55 d0          	mov    %rdx,-0x30(%rbp)
    2733:	8b 45 e4             	mov    -0x1c(%rbp),%eax
    2736:	0f a2                	cpuid
    2738:	89 de                	mov    %ebx,%esi
    273a:	89 c7                	mov    %eax,%edi
    273c:	48 8b 45 d8          	mov    -0x28(%rbp),%rax
    2740:	89 38                	mov    %edi,(%rax)
    2742:	48 8b 45 d0          	mov    -0x30(%rbp),%rax
    2746:	89 10                	mov    %edx,(%rax)
    2748:	89 75 f4             	mov    %esi,-0xc(%rbp)
    274b:	89 4d f0             	mov    %ecx,-0x10(%rbp)
    274e:	90                   	nop
    274f:	48 8b 5d f8          	mov    -0x8(%rbp),%rbx
    2753:	c9                   	leave
    2754:	c3                   	ret

0000000000002755 <_Z4outbth>:
    2755:	f3 0f 1e fa          	endbr64
    2759:	55                   	push   %rbp
    275a:	48 89 e5             	mov    %rsp,%rbp
    275d:	89 fa                	mov    %edi,%edx
    275f:	89 f0                	mov    %esi,%eax
    2761:	66 89 55 fc          	mov    %dx,-0x4(%rbp)
    2765:	88 45 f8             	mov    %al,-0x8(%rbp)
    2768:	0f b6 45 f8          	movzbl -0x8(%rbp),%eax
    276c:	0f b7 55 fc          	movzwl -0x4(%rbp),%edx
    2770:	ee                   	out    %al,(%dx)
    2771:	90                   	nop
    2772:	5d                   	pop    %rbp
    2773:	c3                   	ret

0000000000002774 <_Z3inbt>:
    2774:	f3 0f 1e fa          	endbr64
    2778:	55                   	push   %rbp
    2779:	48 89 e5             	mov    %rsp,%rbp
    277c:	89 f8                	mov    %edi,%eax
    277e:	66 89 45 ec          	mov    %ax,-0x14(%rbp)
    2782:	0f b7 45 ec          	movzwl -0x14(%rbp),%eax
    2786:	89 c2                	mov    %eax,%edx
    2788:	ec                   	in     (%dx),%al
    2789:	88 45 ff             	mov    %al,-0x1(%rbp)
    278c:	0f b6 45 ff          	movzbl -0x1(%rbp),%eax
    2790:	5d                   	pop    %rbp
    2791:	c3                   	ret

0000000000002792 <_Z4outltj>:
    2792:	f3 0f 1e fa          	endbr64
    2796:	55                   	push   %rbp
    2797:	48 89 e5             	mov    %rsp,%rbp
    279a:	89 f8                	mov    %edi,%eax
    279c:	89 75 f8             	mov    %esi,-0x8(%rbp)
    279f:	66 89 45 fc          	mov    %ax,-0x4(%rbp)
    27a3:	8b 45 f8             	mov    -0x8(%rbp),%eax
    27a6:	0f b7 55 fc          	movzwl -0x4(%rbp),%edx
    27aa:	ef                   	out    %eax,(%dx)
    27ab:	90                   	nop
    27ac:	5d                   	pop    %rbp
    27ad:	c3                   	ret

00000000000027ae <_Z3inlt>:
    27ae:	f3 0f 1e fa          	endbr64
    27b2:	55                   	push   %rbp
    27b3:	48 89 e5             	mov    %rsp,%rbp
    27b6:	89 f8                	mov    %edi,%eax
    27b8:	66 89 45 ec          	mov    %ax,-0x14(%rbp)
    27bc:	0f b7 45 ec          	movzwl -0x14(%rbp),%eax
    27c0:	89 c2                	mov    %eax,%edx
    27c2:	ed                   	in     (%dx),%eax
    27c3:	89 45 fc             	mov    %eax,-0x4(%rbp)
    27c6:	8b 45 fc             	mov    -0x4(%rbp),%eax
    27c9:	5d                   	pop    %rbp
    27ca:	c3                   	ret
    27cb:	90                   	nop

00000000000027cc <_ZN10AccessByte14setAccessedBitEb>:
    27cc:	f3 0f 1e fa          	endbr64
    27d0:	55                   	push   %rbp
    27d1:	48 89 e5             	mov    %rsp,%rbp
    27d4:	48 89 7d f8          	mov    %rdi,-0x8(%rbp)
    27d8:	89 f0                	mov    %esi,%eax
    27da:	88 45 f4             	mov    %al,-0xc(%rbp)
    27dd:	80 7d f4 00          	cmpb   $0x0,-0xc(%rbp)
    27e1:	74 14                	je     27f7 <_ZN10AccessByte14setAccessedBitEb+0x2b>
    27e3:	48 8b 45 f8          	mov    -0x8(%rbp),%rax
    27e7:	0f b6 00             	movzbl (%rax),%eax
    27ea:	83 c8 01             	or     $0x1,%eax
    27ed:	89 c2                	mov    %eax,%edx
    27ef:	48 8b 45 f8          	mov    -0x8(%rbp),%rax
    27f3:	88 10                	mov    %dl,(%rax)
    27f5:	eb 12                	jmp    2809 <_ZN10AccessByte14setAccessedBitEb+0x3d>
    27f7:	48 8b 45 f8          	mov    -0x8(%rbp),%rax
    27fb:	0f b6 00             	movzbl (%rax),%eax
    27fe:	83 e0 fe             	and    $0xfffffffe,%eax
    2801:	89 c2                	mov    %eax,%edx
    2803:	48 8b 45 f8          	mov    -0x8(%rbp),%rax
    2807:	88 10                	mov    %dl,(%rax)
    2809:	90                   	nop
    280a:	5d                   	pop    %rbp
    280b:	c3                   	ret

000000000000280c <_ZN10AccessByte5setRWEb>:
    280c:	f3 0f 1e fa          	endbr64
    2810:	55                   	push   %rbp
    2811:	48 89 e5             	mov    %rsp,%rbp
    2814:	48 89 7d f8          	mov    %rdi,-0x8(%rbp)
    2818:	89 f0                	mov    %esi,%eax
    281a:	88 45 f4             	mov    %al,-0xc(%rbp)
    281d:	80 7d f4 00          	cmpb   $0x0,-0xc(%rbp)
    2821:	74 14                	je     2837 <_ZN10AccessByte5setRWEb+0x2b>
    2823:	48 8b 45 f8          	mov    -0x8(%rbp),%rax
    2827:	0f b6 00             	movzbl (%rax),%eax
    282a:	83 c8 02             	or     $0x2,%eax
    282d:	89 c2                	mov    %eax,%edx
    282f:	48 8b 45 f8          	mov    -0x8(%rbp),%rax
    2833:	88 10                	mov    %dl,(%rax)
    2835:	eb 12                	jmp    2849 <_ZN10AccessByte5setRWEb+0x3d>
    2837:	48 8b 45 f8          	mov    -0x8(%rbp),%rax
    283b:	0f b6 00             	movzbl (%rax),%eax
    283e:	83 e0 fd             	and    $0xfffffffd,%eax
    2841:	89 c2                	mov    %eax,%edx
    2843:	48 8b 45 f8          	mov    -0x8(%rbp),%rax
    2847:	88 10                	mov    %dl,(%rax)
    2849:	90                   	nop
    284a:	5d                   	pop    %rbp
    284b:	c3                   	ret

000000000000284c <_ZN10AccessByte5setDCEb>:
    284c:	f3 0f 1e fa          	endbr64
    2850:	55                   	push   %rbp
    2851:	48 89 e5             	mov    %rsp,%rbp
    2854:	48 89 7d f8          	mov    %rdi,-0x8(%rbp)
    2858:	89 f0                	mov    %esi,%eax
    285a:	88 45 f4             	mov    %al,-0xc(%rbp)
    285d:	80 7d f4 00          	cmpb   $0x0,-0xc(%rbp)
    2861:	74 14                	je     2877 <_ZN10AccessByte5setDCEb+0x2b>
    2863:	48 8b 45 f8          	mov    -0x8(%rbp),%rax
    2867:	0f b6 00             	movzbl (%rax),%eax
    286a:	83 c8 04             	or     $0x4,%eax
    286d:	89 c2                	mov    %eax,%edx
    286f:	48 8b 45 f8          	mov    -0x8(%rbp),%rax
    2873:	88 10                	mov    %dl,(%rax)
    2875:	eb 12                	jmp    2889 <_ZN10AccessByte5setDCEb+0x3d>
    2877:	48 8b 45 f8          	mov    -0x8(%rbp),%rax
    287b:	0f b6 00             	movzbl (%rax),%eax
    287e:	83 e0 fb             	and    $0xfffffffb,%eax
    2881:	89 c2                	mov    %eax,%edx
    2883:	48 8b 45 f8          	mov    -0x8(%rbp),%rax
    2887:	88 10                	mov    %dl,(%rax)
    2889:	90                   	nop
    288a:	5d                   	pop    %rbp
    288b:	c3                   	ret

000000000000288c <_ZN10AccessByte4setEEb>:
    288c:	f3 0f 1e fa          	endbr64
    2890:	55                   	push   %rbp
    2891:	48 89 e5             	mov    %rsp,%rbp
    2894:	48 89 7d f8          	mov    %rdi,-0x8(%rbp)
    2898:	89 f0                	mov    %esi,%eax
    289a:	88 45 f4             	mov    %al,-0xc(%rbp)
    289d:	80 7d f4 00          	cmpb   $0x0,-0xc(%rbp)
    28a1:	74 14                	je     28b7 <_ZN10AccessByte4setEEb+0x2b>
    28a3:	48 8b 45 f8          	mov    -0x8(%rbp),%rax
    28a7:	0f b6 00             	movzbl (%rax),%eax
    28aa:	83 c8 08             	or     $0x8,%eax
    28ad:	89 c2                	mov    %eax,%edx
    28af:	48 8b 45 f8          	mov    -0x8(%rbp),%rax
    28b3:	88 10                	mov    %dl,(%rax)
    28b5:	eb 12                	jmp    28c9 <_ZN10AccessByte4setEEb+0x3d>
    28b7:	48 8b 45 f8          	mov    -0x8(%rbp),%rax
    28bb:	0f b6 00             	movzbl (%rax),%eax
    28be:	83 e0 f7             	and    $0xfffffff7,%eax
    28c1:	89 c2                	mov    %eax,%edx
    28c3:	48 8b 45 f8          	mov    -0x8(%rbp),%rax
    28c7:	88 10                	mov    %dl,(%rax)
    28c9:	90                   	nop
    28ca:	5d                   	pop    %rbp
    28cb:	c3                   	ret

00000000000028cc <_ZN10AccessByte4setSEb>:
    28cc:	f3 0f 1e fa          	endbr64
    28d0:	55                   	push   %rbp
    28d1:	48 89 e5             	mov    %rsp,%rbp
    28d4:	48 89 7d f8          	mov    %rdi,-0x8(%rbp)
    28d8:	89 f0                	mov    %esi,%eax
    28da:	88 45 f4             	mov    %al,-0xc(%rbp)
    28dd:	80 7d f4 00          	cmpb   $0x0,-0xc(%rbp)
    28e1:	74 14                	je     28f7 <_ZN10AccessByte4setSEb+0x2b>
    28e3:	48 8b 45 f8          	mov    -0x8(%rbp),%rax
    28e7:	0f b6 00             	movzbl (%rax),%eax
    28ea:	83 c8 10             	or     $0x10,%eax
    28ed:	89 c2                	mov    %eax,%edx
    28ef:	48 8b 45 f8          	mov    -0x8(%rbp),%rax
    28f3:	88 10                	mov    %dl,(%rax)
    28f5:	eb 12                	jmp    2909 <_ZN10AccessByte4setSEb+0x3d>
    28f7:	48 8b 45 f8          	mov    -0x8(%rbp),%rax
    28fb:	0f b6 00             	movzbl (%rax),%eax
    28fe:	83 e0 ef             	and    $0xffffffef,%eax
    2901:	89 c2                	mov    %eax,%edx
    2903:	48 8b 45 f8          	mov    -0x8(%rbp),%rax
    2907:	88 10                	mov    %dl,(%rax)
    2909:	90                   	nop
    290a:	5d                   	pop    %rbp
    290b:	c3                   	ret

000000000000290c <_ZN10AccessByte6setDPLEh>:
    290c:	f3 0f 1e fa          	endbr64
    2910:	55                   	push   %rbp
    2911:	48 89 e5             	mov    %rsp,%rbp
    2914:	48 89 7d f8          	mov    %rdi,-0x8(%rbp)
    2918:	89 f0                	mov    %esi,%eax
    291a:	88 45 f4             	mov    %al,-0xc(%rbp)
    291d:	48 8b 45 f8          	mov    -0x8(%rbp),%rax
    2921:	0f b6 00             	movzbl (%rax),%eax
    2924:	83 e0 9f             	and    $0xffffff9f,%eax
    2927:	89 c2                	mov    %eax,%edx
    2929:	48 8b 45 f8          	mov    -0x8(%rbp),%rax
    292d:	88 10                	mov    %dl,(%rax)
    292f:	48 8b 45 f8          	mov    -0x8(%rbp),%rax
    2933:	0f b6 00             	movzbl (%rax),%eax
    2936:	89 c2                	mov    %eax,%edx
    2938:	0f b6 45 f4          	movzbl -0xc(%rbp),%eax
    293c:	c1 e0 05             	shl    $0x5,%eax
    293f:	83 e0 60             	and    $0x60,%eax
    2942:	09 d0                	or     %edx,%eax
    2944:	89 c2                	mov    %eax,%edx
    2946:	48 8b 45 f8          	mov    -0x8(%rbp),%rax
    294a:	88 10                	mov    %dl,(%rax)
    294c:	90                   	nop
    294d:	5d                   	pop    %rbp
    294e:	c3                   	ret
    294f:	90                   	nop

0000000000002950 <_ZN10AccessByte4setPEb>:
    2950:	f3 0f 1e fa          	endbr64
    2954:	55                   	push   %rbp
    2955:	48 89 e5             	mov    %rsp,%rbp
    2958:	48 89 7d f8          	mov    %rdi,-0x8(%rbp)
    295c:	89 f0                	mov    %esi,%eax
    295e:	88 45 f4             	mov    %al,-0xc(%rbp)
    2961:	80 7d f4 00          	cmpb   $0x0,-0xc(%rbp)
    2965:	74 14                	je     297b <_ZN10AccessByte4setPEb+0x2b>
    2967:	48 8b 45 f8          	mov    -0x8(%rbp),%rax
    296b:	0f b6 00             	movzbl (%rax),%eax
    296e:	83 c8 80             	or     $0xffffff80,%eax
    2971:	89 c2                	mov    %eax,%edx
    2973:	48 8b 45 f8          	mov    -0x8(%rbp),%rax
    2977:	88 10                	mov    %dl,(%rax)
    2979:	eb 12                	jmp    298d <_ZN10AccessByte4setPEb+0x3d>
    297b:	48 8b 45 f8          	mov    -0x8(%rbp),%rax
    297f:	0f b6 00             	movzbl (%rax),%eax
    2982:	83 e0 7f             	and    $0x7f,%eax
    2985:	89 c2                	mov    %eax,%edx
    2987:	48 8b 45 f8          	mov    -0x8(%rbp),%rax
    298b:	88 10                	mov    %dl,(%rax)
    298d:	90                   	nop
    298e:	5d                   	pop    %rbp
    298f:	c3                   	ret

0000000000002990 <_ZN16SystemAccessByte7setTypeEh>:
    2990:	f3 0f 1e fa          	endbr64
    2994:	55                   	push   %rbp
    2995:	48 89 e5             	mov    %rsp,%rbp
    2998:	48 89 7d f8          	mov    %rdi,-0x8(%rbp)
    299c:	89 f0                	mov    %esi,%eax
    299e:	88 45 f4             	mov    %al,-0xc(%rbp)
    29a1:	48 8b 45 f8          	mov    -0x8(%rbp),%rax
    29a5:	0f b6 00             	movzbl (%rax),%eax
    29a8:	83 e0 f0             	and    $0xfffffff0,%eax
    29ab:	89 c2                	mov    %eax,%edx
    29ad:	48 8b 45 f8          	mov    -0x8(%rbp),%rax
    29b1:	88 10                	mov    %dl,(%rax)
    29b3:	48 8b 45 f8          	mov    -0x8(%rbp),%rax
    29b7:	0f b6 10             	movzbl (%rax),%edx
    29ba:	0f b6 45 f4          	movzbl -0xc(%rbp),%eax
    29be:	83 e0 0f             	and    $0xf,%eax
    29c1:	09 c2                	or     %eax,%edx
    29c3:	48 8b 45 f8          	mov    -0x8(%rbp),%rax
    29c7:	88 10                	mov    %dl,(%rax)
    29c9:	90                   	nop
    29ca:	5d                   	pop    %rbp
    29cb:	c3                   	ret

00000000000029cc <_ZN16SystemAccessByte4setSEb>:
    29cc:	f3 0f 1e fa          	endbr64
    29d0:	55                   	push   %rbp
    29d1:	48 89 e5             	mov    %rsp,%rbp
    29d4:	48 89 7d f8          	mov    %rdi,-0x8(%rbp)
    29d8:	89 f0                	mov    %esi,%eax
    29da:	88 45 f4             	mov    %al,-0xc(%rbp)
    29dd:	80 7d f4 00          	cmpb   $0x0,-0xc(%rbp)
    29e1:	74 14                	je     29f7 <_ZN16SystemAccessByte4setSEb+0x2b>
    29e3:	48 8b 45 f8          	mov    -0x8(%rbp),%rax
    29e7:	0f b6 00             	movzbl (%rax),%eax
    29ea:	83 c8 10             	or     $0x10,%eax
    29ed:	89 c2                	mov    %eax,%edx
    29ef:	48 8b 45 f8          	mov    -0x8(%rbp),%rax
    29f3:	88 10                	mov    %dl,(%rax)
    29f5:	eb 12                	jmp    2a09 <_ZN16SystemAccessByte4setSEb+0x3d>
    29f7:	48 8b 45 f8          	mov    -0x8(%rbp),%rax
    29fb:	0f b6 00             	movzbl (%rax),%eax
    29fe:	83 e0 ef             	and    $0xffffffef,%eax
    2a01:	89 c2                	mov    %eax,%edx
    2a03:	48 8b 45 f8          	mov    -0x8(%rbp),%rax
    2a07:	88 10                	mov    %dl,(%rax)
    2a09:	90                   	nop
    2a0a:	5d                   	pop    %rbp
    2a0b:	c3                   	ret

0000000000002a0c <_ZN16SystemAccessByte6setDPLEh>:
    2a0c:	f3 0f 1e fa          	endbr64
    2a10:	55                   	push   %rbp
    2a11:	48 89 e5             	mov    %rsp,%rbp
    2a14:	48 89 7d f8          	mov    %rdi,-0x8(%rbp)
    2a18:	89 f0                	mov    %esi,%eax
    2a1a:	88 45 f4             	mov    %al,-0xc(%rbp)
    2a1d:	48 8b 45 f8          	mov    -0x8(%rbp),%rax
    2a21:	0f b6 00             	movzbl (%rax),%eax
    2a24:	83 e0 9f             	and    $0xffffff9f,%eax
    2a27:	89 c2                	mov    %eax,%edx
    2a29:	48 8b 45 f8          	mov    -0x8(%rbp),%rax
    2a2d:	88 10                	mov    %dl,(%rax)
    2a2f:	48 8b 45 f8          	mov    -0x8(%rbp),%rax
    2a33:	0f b6 00             	movzbl (%rax),%eax
    2a36:	89 c2                	mov    %eax,%edx
    2a38:	0f b6 45 f4          	movzbl -0xc(%rbp),%eax
    2a3c:	c1 e0 05             	shl    $0x5,%eax
    2a3f:	83 e0 60             	and    $0x60,%eax
    2a42:	09 d0                	or     %edx,%eax
    2a44:	89 c2                	mov    %eax,%edx
    2a46:	48 8b 45 f8          	mov    -0x8(%rbp),%rax
    2a4a:	88 10                	mov    %dl,(%rax)
    2a4c:	90                   	nop
    2a4d:	5d                   	pop    %rbp
    2a4e:	c3                   	ret
    2a4f:	90                   	nop

0000000000002a50 <_ZN16SystemAccessByte4setPEb>:
    2a50:	f3 0f 1e fa          	endbr64
    2a54:	55                   	push   %rbp
    2a55:	48 89 e5             	mov    %rsp,%rbp
    2a58:	48 89 7d f8          	mov    %rdi,-0x8(%rbp)
    2a5c:	89 f0                	mov    %esi,%eax
    2a5e:	88 45 f4             	mov    %al,-0xc(%rbp)
    2a61:	80 7d f4 00          	cmpb   $0x0,-0xc(%rbp)
    2a65:	74 14                	je     2a7b <_ZN16SystemAccessByte4setPEb+0x2b>
    2a67:	48 8b 45 f8          	mov    -0x8(%rbp),%rax
    2a6b:	0f b6 00             	movzbl (%rax),%eax
    2a6e:	83 c8 80             	or     $0xffffff80,%eax
    2a71:	89 c2                	mov    %eax,%edx
    2a73:	48 8b 45 f8          	mov    -0x8(%rbp),%rax
    2a77:	88 10                	mov    %dl,(%rax)
    2a79:	eb 12                	jmp    2a8d <_ZN16SystemAccessByte4setPEb+0x3d>
    2a7b:	48 8b 45 f8          	mov    -0x8(%rbp),%rax
    2a7f:	0f b6 00             	movzbl (%rax),%eax
    2a82:	83 e0 7f             	and    $0x7f,%eax
    2a85:	89 c2                	mov    %eax,%edx
    2a87:	48 8b 45 f8          	mov    -0x8(%rbp),%rax
    2a8b:	88 10                	mov    %dl,(%rax)
    2a8d:	90                   	nop
    2a8e:	5d                   	pop    %rbp
    2a8f:	c3                   	ret

0000000000002a90 <_ZN3GDT10InitializeEP12BasicConsole>:
    2a90:	f3 0f 1e fa          	endbr64
    2a94:	55                   	push   %rbp
    2a95:	48 89 e5             	mov    %rsp,%rbp
    2a98:	48 89 7d f8          	mov    %rdi,-0x8(%rbp)
    2a9c:	48 89 75 f0          	mov    %rsi,-0x10(%rbp)
    2aa0:	48 8b 45 f8          	mov    -0x8(%rbp),%rax
    2aa4:	48 8b 55 f0          	mov    -0x10(%rbp),%rdx
    2aa8:	48 89 10             	mov    %rdx,(%rax)
    2aab:	90                   	nop
    2aac:	5d                   	pop    %rbp
    2aad:	c3                   	ret

0000000000002aae <_ZN3GDT14Create64BitGDTEv>:
    2aae:	f3 0f 1e fa          	endbr64
    2ab2:	55                   	push   %rbp
    2ab3:	48 89 e5             	mov    %rsp,%rbp
    2ab6:	48 83 ec 20          	sub    $0x20,%rsp
    2aba:	48 89 7d e8          	mov    %rdi,-0x18(%rbp)
    2abe:	48 8b 45 e8          	mov    -0x18(%rbp),%rax
    2ac2:	48 83 c0 08          	add    $0x8,%rax
    2ac6:	41 b8 00 00 00 00    	mov    $0x0,%r8d
    2acc:	b9 00 00 00 00       	mov    $0x0,%ecx
    2ad1:	ba 00 00 00 00       	mov    $0x0,%edx
    2ad6:	be 00 00 00 00       	mov    $0x0,%esi
    2adb:	48 89 c7             	mov    %rax,%rdi
    2ade:	e8 1b 01 00 00       	call   2bfe <_ZN17SegmentDescriptor3setEjjhh>
    2ae3:	48 8b 45 e8          	mov    -0x18(%rbp),%rax
    2ae7:	48 83 c0 10          	add    $0x10,%rax
    2aeb:	41 b8 0a 00 00 00    	mov    $0xa,%r8d
    2af1:	b9 9a 00 00 00       	mov    $0x9a,%ecx
    2af6:	ba ff ff 0f 00       	mov    $0xfffff,%edx
    2afb:	be 00 00 00 00       	mov    $0x0,%esi
    2b00:	48 89 c7             	mov    %rax,%rdi
    2b03:	e8 f6 00 00 00       	call   2bfe <_ZN17SegmentDescriptor3setEjjhh>
    2b08:	48 8b 45 e8          	mov    -0x18(%rbp),%rax
    2b0c:	48 83 c0 18          	add    $0x18,%rax
    2b10:	41 b8 0c 00 00 00    	mov    $0xc,%r8d
    2b16:	b9 92 00 00 00       	mov    $0x92,%ecx
    2b1b:	ba ff ff 0f 00       	mov    $0xfffff,%edx
    2b20:	be 00 00 00 00       	mov    $0x0,%esi
    2b25:	48 89 c7             	mov    %rax,%rdi
    2b28:	e8 d1 00 00 00       	call   2bfe <_ZN17SegmentDescriptor3setEjjhh>
    2b2d:	48 8b 45 e8          	mov    -0x18(%rbp),%rax
    2b31:	48 83 c0 20          	add    $0x20,%rax
    2b35:	41 b8 0a 00 00 00    	mov    $0xa,%r8d
    2b3b:	b9 fa 00 00 00       	mov    $0xfa,%ecx
    2b40:	ba ff ff 0f 00       	mov    $0xfffff,%edx
    2b45:	be 00 00 00 00       	mov    $0x0,%esi
    2b4a:	48 89 c7             	mov    %rax,%rdi
    2b4d:	e8 ac 00 00 00       	call   2bfe <_ZN17SegmentDescriptor3setEjjhh>
    2b52:	48 8b 45 e8          	mov    -0x18(%rbp),%rax
    2b56:	48 83 c0 28          	add    $0x28,%rax
    2b5a:	41 b8 0c 00 00 00    	mov    $0xc,%r8d
    2b60:	b9 f2 00 00 00       	mov    $0xf2,%ecx
    2b65:	ba ff ff 0f 00       	mov    $0xfffff,%edx
    2b6a:	be 00 00 00 00       	mov    $0x0,%esi
    2b6f:	48 89 c7             	mov    %rax,%rdi
    2b72:	e8 87 00 00 00       	call   2bfe <_ZN17SegmentDescriptor3setEjjhh>
    2b77:	48 c7 45 f6 00 00 00 	movq   $0x0,-0xa(%rbp)
    2b7e:	00 
    2b7f:	66 c7 45 fe 00 00    	movw   $0x0,-0x2(%rbp)
    2b85:	66 c7 45 f6 27 00    	movw   $0x27,-0xa(%rbp)
    2b8b:	48 8b 45 e8          	mov    -0x18(%rbp),%rax
    2b8f:	48 83 c0 08          	add    $0x8,%rax
    2b93:	48 89 45 f8          	mov    %rax,-0x8(%rbp)
    2b97:	48 8d 55 f6          	lea    -0xa(%rbp),%rdx
    2b9b:	48 8b 45 e8          	mov    -0x18(%rbp),%rax
    2b9f:	48 89 d6             	mov    %rdx,%rsi
    2ba2:	48 89 c7             	mov    %rax,%rdi
    2ba5:	e8 10 00 00 00       	call   2bba <_ZN3GDT8load_gdtEPv>
    2baa:	48 8b 45 e8          	mov    -0x18(%rbp),%rax
    2bae:	48 89 c7             	mov    %rax,%rdi
    2bb1:	e8 1e 00 00 00       	call   2bd4 <_ZN3GDT15reload_segmentsEv>
    2bb6:	90                   	nop
    2bb7:	c9                   	leave
    2bb8:	c3                   	ret
    2bb9:	90                   	nop

0000000000002bba <_ZN3GDT8load_gdtEPv>:
    2bba:	f3 0f 1e fa          	endbr64
    2bbe:	55                   	push   %rbp
    2bbf:	48 89 e5             	mov    %rsp,%rbp
    2bc2:	48 89 7d f8          	mov    %rdi,-0x8(%rbp)
    2bc6:	48 89 75 f0          	mov    %rsi,-0x10(%rbp)
    2bca:	48 8b 45 f0          	mov    -0x10(%rbp),%rax
    2bce:	0f 01 10             	lgdt   (%rax)
    2bd1:	90                   	nop
    2bd2:	5d                   	pop    %rbp
    2bd3:	c3                   	ret

0000000000002bd4 <_ZN3GDT15reload_segmentsEv>:
    2bd4:	f3 0f 1e fa          	endbr64
    2bd8:	55                   	push   %rbp
    2bd9:	48 89 e5             	mov    %rsp,%rbp
    2bdc:	48 89 7d f8          	mov    %rdi,-0x8(%rbp)
    2be0:	66 b8 10 00          	mov    $0x10,%ax
    2be4:	8e d8                	mov    %eax,%ds
    2be6:	8e c0                	mov    %eax,%es
    2be8:	8e d0                	mov    %eax,%ss
    2bea:	8e e0                	mov    %eax,%fs
    2bec:	8e e8                	mov    %eax,%gs
    2bee:	6a 08                	push   $0x8
    2bf0:	48 8d 05 03 00 00 00 	lea    0x3(%rip),%rax        # 2bfa <_ZN3GDT15reload_segmentsEv+0x26>
    2bf7:	50                   	push   %rax
    2bf8:	48 cb                	lretq
    2bfa:	90                   	nop
    2bfb:	5d                   	pop    %rbp
    2bfc:	c3                   	ret
    2bfd:	90                   	nop

0000000000002bfe <_ZN17SegmentDescriptor3setEjjhh>:
    2bfe:	f3 0f 1e fa          	endbr64
    2c02:	55                   	push   %rbp
    2c03:	48 89 e5             	mov    %rsp,%rbp
    2c06:	48 89 7d f8          	mov    %rdi,-0x8(%rbp)
    2c0a:	89 75 f4             	mov    %esi,-0xc(%rbp)
    2c0d:	89 55 f0             	mov    %edx,-0x10(%rbp)
    2c10:	89 c8                	mov    %ecx,%eax
    2c12:	44 89 c2             	mov    %r8d,%edx
    2c15:	88 45 ec             	mov    %al,-0x14(%rbp)
    2c18:	89 d0                	mov    %edx,%eax
    2c1a:	88 45 e8             	mov    %al,-0x18(%rbp)
    2c1d:	48 8b 45 f8          	mov    -0x8(%rbp),%rax
    2c21:	48 c7 00 00 00 00 00 	movq   $0x0,(%rax)
    2c28:	48 8b 45 f8          	mov    -0x8(%rbp),%rax
    2c2c:	48 8b 10             	mov    (%rax),%rdx
    2c2f:	8b 45 f0             	mov    -0x10(%rbp),%eax
    2c32:	0f b7 c0             	movzwl %ax,%eax
    2c35:	48 09 c2             	or     %rax,%rdx
    2c38:	48 8b 45 f8          	mov    -0x8(%rbp),%rax
    2c3c:	48 89 10             	mov    %rdx,(%rax)
    2c3f:	48 8b 45 f8          	mov    -0x8(%rbp),%rax
    2c43:	48 8b 10             	mov    (%rax),%rdx
    2c46:	48 8b 45 f8          	mov    -0x8(%rbp),%rax
    2c4a:	48 89 10             	mov    %rdx,(%rax)
    2c4d:	48 8b 45 f8          	mov    -0x8(%rbp),%rax
    2c51:	48 8b 00             	mov    (%rax),%rax
    2c54:	8b 55 f4             	mov    -0xc(%rbp),%edx
    2c57:	c1 e2 10             	shl    $0x10,%edx
    2c5a:	89 d2                	mov    %edx,%edx
    2c5c:	48 09 c2             	or     %rax,%rdx
    2c5f:	48 8b 45 f8          	mov    -0x8(%rbp),%rax
    2c63:	48 89 10             	mov    %rdx,(%rax)
    2c66:	48 8b 45 f8          	mov    -0x8(%rbp),%rax
    2c6a:	48 8b 10             	mov    (%rax),%rdx
    2c6d:	48 8b 45 f8          	mov    -0x8(%rbp),%rax
    2c71:	48 89 10             	mov    %rdx,(%rax)
    2c74:	48 8b 45 f8          	mov    -0x8(%rbp),%rax
    2c78:	48 8b 10             	mov    (%rax),%rdx
    2c7b:	48 8b 45 f8          	mov    -0x8(%rbp),%rax
    2c7f:	48 89 10             	mov    %rdx,(%rax)
    2c82:	48 8b 45 f8          	mov    -0x8(%rbp),%rax
    2c86:	48 8b 00             	mov    (%rax),%rax
    2c89:	0f b6 55 ec          	movzbl -0x14(%rbp),%edx
    2c8d:	48 c1 e2 28          	shl    $0x28,%rdx
    2c91:	48 09 c2             	or     %rax,%rdx
    2c94:	48 8b 45 f8          	mov    -0x8(%rbp),%rax
    2c98:	48 89 10             	mov    %rdx,(%rax)
    2c9b:	48 8b 45 f8          	mov    -0x8(%rbp),%rax
    2c9f:	48 8b 00             	mov    (%rax),%rax
    2ca2:	0f b6 55 e8          	movzbl -0x18(%rbp),%edx
    2ca6:	48 89 d1             	mov    %rdx,%rcx
    2ca9:	48 c1 e1 34          	shl    $0x34,%rcx
    2cad:	48 ba 00 00 00 00 00 	movabs $0xf0000000000000,%rdx
    2cb4:	00 f0 00 
    2cb7:	48 21 ca             	and    %rcx,%rdx
    2cba:	48 09 c2             	or     %rax,%rdx
    2cbd:	48 8b 45 f8          	mov    -0x8(%rbp),%rax
    2cc1:	48 89 10             	mov    %rdx,(%rax)
    2cc4:	90                   	nop
    2cc5:	5d                   	pop    %rbp
    2cc6:	c3                   	ret
    2cc7:	90                   	nop

0000000000002cc8 <exception_handler>:
    2cc8:	f3 0f 1e fa          	endbr64
    2ccc:	55                   	push   %rbp
    2ccd:	48 89 e5             	mov    %rsp,%rbp
    2cd0:	53                   	push   %rbx
    2cd1:	48 83 ec 18          	sub    $0x18,%rsp
    2cd5:	48 89 7d e8          	mov    %rdi,-0x18(%rbp)
    2cd9:	48 89 75 e0          	mov    %rsi,-0x20(%rbp)
    2cdd:	48 8b 05 1c 3c 02 00 	mov    0x23c1c(%rip),%rax        # 26900 <ks>
    2ce4:	48 89 c1             	mov    %rax,%rcx
    2ce7:	ba ff ff ff ff       	mov    $0xffffffff,%edx
    2cec:	48 8d 05 8d f5 00 00 	lea    0xf58d(%rip),%rax        # 12280 <_ZL4font+0x1000>
    2cf3:	48 89 c6             	mov    %rax,%rsi
    2cf6:	48 89 cf             	mov    %rcx,%rdi
    2cf9:	e8 70 f8 ff ff       	call   256e <_ZN12BasicConsole5PrintEPKcj>
    2cfe:	48 8b 05 fb 3b 02 00 	mov    0x23bfb(%rip),%rax        # 26900 <ks>
    2d05:	48 89 c3             	mov    %rax,%rbx
    2d08:	48 8b 45 e8          	mov    -0x18(%rbp),%rax
    2d0c:	48 89 c7             	mov    %rax,%rdi
    2d0f:	e8 20 79 00 00       	call   a634 <_Z10to_hstringm>
    2d14:	ba ff ff ff ff       	mov    $0xffffffff,%edx
    2d19:	48 89 c6             	mov    %rax,%rsi
    2d1c:	48 89 df             	mov    %rbx,%rdi
    2d1f:	e8 4a f8 ff ff       	call   256e <_ZN12BasicConsole5PrintEPKcj>
    2d24:	48 8b 05 d5 3b 02 00 	mov    0x23bd5(%rip),%rax        # 26900 <ks>
    2d2b:	48 89 c1             	mov    %rax,%rcx
    2d2e:	ba ff ff ff ff       	mov    $0xffffffff,%edx
    2d33:	48 8d 05 5c f5 00 00 	lea    0xf55c(%rip),%rax        # 12296 <_ZL4font+0x1016>
    2d3a:	48 89 c6             	mov    %rax,%rsi
    2d3d:	48 89 cf             	mov    %rcx,%rdi
    2d40:	e8 29 f8 ff ff       	call   256e <_ZN12BasicConsole5PrintEPKcj>
    2d45:	48 8b 05 b4 3b 02 00 	mov    0x23bb4(%rip),%rax        # 26900 <ks>
    2d4c:	48 89 c3             	mov    %rax,%rbx
    2d4f:	48 8b 45 e8          	mov    -0x18(%rbp),%rax
    2d53:	48 89 c7             	mov    %rax,%rdi
    2d56:	e8 d9 78 00 00       	call   a634 <_Z10to_hstringm>
    2d5b:	ba ff ff ff ff       	mov    $0xffffffff,%edx
    2d60:	48 89 c6             	mov    %rax,%rsi
    2d63:	48 89 df             	mov    %rbx,%rdi
    2d66:	e8 cf f8 ff ff       	call   263a <_ZN12BasicConsole7PrintlnEPKcj>
    2d6b:	fa                   	cli
    2d6c:	f4                   	hlt
    2d6d:	eb fc                	jmp    2d6b <exception_handler+0xa3>

0000000000002d6f <hardware_handler>:
    2d6f:	f3 0f 1e fa          	endbr64
    2d73:	55                   	push   %rbp
    2d74:	48 89 e5             	mov    %rsp,%rbp
    2d77:	53                   	push   %rbx
    2d78:	48 83 ec 18          	sub    $0x18,%rsp
    2d7c:	48 89 7d e8          	mov    %rdi,-0x18(%rbp)
    2d80:	48 8b 05 79 3b 02 00 	mov    0x23b79(%rip),%rax        # 26900 <ks>
    2d87:	48 89 c1             	mov    %rax,%rcx
    2d8a:	ba ff ff ff ff       	mov    $0xffffffff,%edx
    2d8f:	48 8d 05 12 f5 00 00 	lea    0xf512(%rip),%rax        # 122a8 <_ZL4font+0x1028>
    2d96:	48 89 c6             	mov    %rax,%rsi
    2d99:	48 89 cf             	mov    %rcx,%rdi
    2d9c:	e8 cd f7 ff ff       	call   256e <_ZN12BasicConsole5PrintEPKcj>
    2da1:	48 8b 05 58 3b 02 00 	mov    0x23b58(%rip),%rax        # 26900 <ks>
    2da8:	48 89 c3             	mov    %rax,%rbx
    2dab:	48 8b 45 e8          	mov    -0x18(%rbp),%rax
    2daf:	48 89 c7             	mov    %rax,%rdi
    2db2:	e8 7d 78 00 00       	call   a634 <_Z10to_hstringm>
    2db7:	ba ff ff ff ff       	mov    $0xffffffff,%edx
    2dbc:	48 89 c6             	mov    %rax,%rsi
    2dbf:	48 89 df             	mov    %rbx,%rdi
    2dc2:	e8 73 f8 ff ff       	call   263a <_ZN12BasicConsole7PrintlnEPKcj>
    2dc7:	48 8b 05 32 3b 02 00 	mov    0x23b32(%rip),%rax        # 26900 <ks>
    2dce:	48 05 00 11 00 00    	add    $0x1100,%rax
    2dd4:	ba 00 00 00 00       	mov    $0x0,%edx
    2dd9:	be b0 00 00 00       	mov    $0xb0,%esi
    2dde:	48 89 c7             	mov    %rax,%rdi
    2de1:	e8 a6 f1 ff ff       	call   1f8c <_ZN4APIC9WriteAPICE8APICRegsj>
    2de6:	90                   	nop
    2de7:	48 8b 5d f8          	mov    -0x8(%rbp),%rbx
    2deb:	c9                   	leave
    2dec:	c3                   	ret

0000000000002ded <apic_handler>:
    2ded:	f3 0f 1e fa          	endbr64
    2df1:	55                   	push   %rbp
    2df2:	48 89 e5             	mov    %rsp,%rbp
    2df5:	53                   	push   %rbx
    2df6:	48 83 ec 18          	sub    $0x18,%rsp
    2dfa:	48 89 7d e8          	mov    %rdi,-0x18(%rbp)
    2dfe:	48 8b 05 fb 3a 02 00 	mov    0x23afb(%rip),%rax        # 26900 <ks>
    2e05:	48 89 c1             	mov    %rax,%rcx
    2e08:	ba ff ff ff ff       	mov    $0xffffffff,%edx
    2e0d:	48 8d 05 b3 f4 00 00 	lea    0xf4b3(%rip),%rax        # 122c7 <_ZL4font+0x1047>
    2e14:	48 89 c6             	mov    %rax,%rsi
    2e17:	48 89 cf             	mov    %rcx,%rdi
    2e1a:	e8 4f f7 ff ff       	call   256e <_ZN12BasicConsole5PrintEPKcj>
    2e1f:	48 8b 05 da 3a 02 00 	mov    0x23ada(%rip),%rax        # 26900 <ks>
    2e26:	48 89 c3             	mov    %rax,%rbx
    2e29:	48 8b 45 e8          	mov    -0x18(%rbp),%rax
    2e2d:	48 89 c7             	mov    %rax,%rdi
    2e30:	e8 ff 77 00 00       	call   a634 <_Z10to_hstringm>
    2e35:	ba ff ff ff ff       	mov    $0xffffffff,%edx
    2e3a:	48 89 c6             	mov    %rax,%rsi
    2e3d:	48 89 df             	mov    %rbx,%rdi
    2e40:	e8 f5 f7 ff ff       	call   263a <_ZN12BasicConsole7PrintlnEPKcj>
    2e45:	48 8b 05 b4 3a 02 00 	mov    0x23ab4(%rip),%rax        # 26900 <ks>
    2e4c:	48 05 00 11 00 00    	add    $0x1100,%rax
    2e52:	ba 00 00 00 00       	mov    $0x0,%edx
    2e57:	be b0 00 00 00       	mov    $0xb0,%esi
    2e5c:	48 89 c7             	mov    %rax,%rdi
    2e5f:	e8 28 f1 ff ff       	call   1f8c <_ZN4APIC9WriteAPICE8APICRegsj>
    2e64:	90                   	nop
    2e65:	48 8b 5d f8          	mov    -0x8(%rbp),%rbx
    2e69:	c9                   	leave
    2e6a:	c3                   	ret
    2e6b:	90                   	nop

0000000000002e6c <_ZN3IDT10InitializeEP12BasicConsole>:
    2e6c:	f3 0f 1e fa          	endbr64
    2e70:	55                   	push   %rbp
    2e71:	48 89 e5             	mov    %rsp,%rbp
    2e74:	48 89 7d f8          	mov    %rdi,-0x8(%rbp)
    2e78:	48 89 75 f0          	mov    %rsi,-0x10(%rbp)
    2e7c:	48 8b 45 f8          	mov    -0x8(%rbp),%rax
    2e80:	48 8b 55 f0          	mov    -0x10(%rbp),%rdx
    2e84:	48 89 10             	mov    %rdx,(%rax)
    2e87:	90                   	nop
    2e88:	5d                   	pop    %rbp
    2e89:	c3                   	ret

0000000000002e8a <_ZN3IDT13SetDescriptorEhPvh>:
    2e8a:	f3 0f 1e fa          	endbr64
    2e8e:	55                   	push   %rbp
    2e8f:	48 89 e5             	mov    %rsp,%rbp
    2e92:	48 89 7d e8          	mov    %rdi,-0x18(%rbp)
    2e96:	48 89 55 d8          	mov    %rdx,-0x28(%rbp)
    2e9a:	89 c8                	mov    %ecx,%eax
    2e9c:	89 f2                	mov    %esi,%edx
    2e9e:	88 55 e4             	mov    %dl,-0x1c(%rbp)
    2ea1:	88 45 e0             	mov    %al,-0x20(%rbp)
    2ea4:	0f b6 45 e4          	movzbl -0x1c(%rbp),%eax
    2ea8:	48 98                	cltq
    2eaa:	48 83 c0 02          	add    $0x2,%rax
    2eae:	48 c1 e0 04          	shl    $0x4,%rax
    2eb2:	48 89 c2             	mov    %rax,%rdx
    2eb5:	48 8b 45 e8          	mov    -0x18(%rbp),%rax
    2eb9:	48 01 d0             	add    %rdx,%rax
    2ebc:	48 89 45 f8          	mov    %rax,-0x8(%rbp)
    2ec0:	48 8b 45 d8          	mov    -0x28(%rbp),%rax
    2ec4:	89 c2                	mov    %eax,%edx
    2ec6:	48 8b 45 f8          	mov    -0x8(%rbp),%rax
    2eca:	66 89 10             	mov    %dx,(%rax)
    2ecd:	48 8b 45 f8          	mov    -0x8(%rbp),%rax
    2ed1:	66 c7 40 02 08 00    	movw   $0x8,0x2(%rax)
    2ed7:	48 8b 45 f8          	mov    -0x8(%rbp),%rax
    2edb:	c6 40 04 00          	movb   $0x0,0x4(%rax)
    2edf:	48 8b 45 f8          	mov    -0x8(%rbp),%rax
    2ee3:	0f b6 55 e0          	movzbl -0x20(%rbp),%edx
    2ee7:	88 50 05             	mov    %dl,0x5(%rax)
    2eea:	48 8b 45 d8          	mov    -0x28(%rbp),%rax
    2eee:	48 c1 e8 10          	shr    $0x10,%rax
    2ef2:	89 c2                	mov    %eax,%edx
    2ef4:	48 8b 45 f8          	mov    -0x8(%rbp),%rax
    2ef8:	66 89 50 06          	mov    %dx,0x6(%rax)
    2efc:	48 8b 45 d8          	mov    -0x28(%rbp),%rax
    2f00:	48 c1 e8 20          	shr    $0x20,%rax
    2f04:	89 c2                	mov    %eax,%edx
    2f06:	48 8b 45 f8          	mov    -0x8(%rbp),%rax
    2f0a:	89 50 08             	mov    %edx,0x8(%rax)
    2f0d:	48 8b 45 f8          	mov    -0x8(%rbp),%rax
    2f11:	c7 40 0c 00 00 00 00 	movl   $0x0,0xc(%rax)
    2f18:	90                   	nop
    2f19:	5d                   	pop    %rbp
    2f1a:	c3                   	ret
    2f1b:	90                   	nop

0000000000002f1c <_ZN3IDT9CreateIDTEv>:
    2f1c:	f3 0f 1e fa          	endbr64
    2f20:	55                   	push   %rbp
    2f21:	48 89 e5             	mov    %rsp,%rbp
    2f24:	48 83 ec 18          	sub    $0x18,%rsp
    2f28:	48 89 7d e8          	mov    %rdi,-0x18(%rbp)
    2f2c:	48 8b 45 e8          	mov    -0x18(%rbp),%rax
    2f30:	48 83 c0 20          	add    $0x20,%rax
    2f34:	48 89 c2             	mov    %rax,%rdx
    2f37:	48 8b 45 e8          	mov    -0x18(%rbp),%rax
    2f3b:	48 89 50 0a          	mov    %rdx,0xa(%rax)
    2f3f:	48 8b 45 e8          	mov    -0x18(%rbp),%rax
    2f43:	66 c7 40 08 ff 0f    	movw   $0xfff,0x8(%rax)
    2f49:	c6 45 ff 00          	movb   $0x0,-0x1(%rbp)
    2f4d:	eb 49                	jmp    2f98 <_ZN3IDT9CreateIDTEv+0x7c>
    2f4f:	0f b6 45 ff          	movzbl -0x1(%rbp),%eax
    2f53:	48 98                	cltq
    2f55:	48 8d 14 c5 00 00 00 	lea    0x0(,%rax,8),%rdx
    2f5c:	00 
    2f5d:	48 8d 05 dc 8d 02 00 	lea    0x28ddc(%rip),%rax        # 2bd40 <isr_stub_table>
    2f64:	48 8b 14 02          	mov    (%rdx,%rax,1),%rdx
    2f68:	0f b6 75 ff          	movzbl -0x1(%rbp),%esi
    2f6c:	48 8b 45 e8          	mov    -0x18(%rbp),%rax
    2f70:	b9 8e 00 00 00       	mov    $0x8e,%ecx
    2f75:	48 89 c7             	mov    %rax,%rdi
    2f78:	e8 0d ff ff ff       	call   2e8a <_ZN3IDT13SetDescriptorEhPvh>
    2f7d:	0f b6 45 ff          	movzbl -0x1(%rbp),%eax
    2f81:	48 98                	cltq
    2f83:	48 8d 15 76 30 02 00 	lea    0x23076(%rip),%rdx        # 26000 <_ZL7vectors>
    2f8a:	c6 04 10 01          	movb   $0x1,(%rax,%rdx,1)
    2f8e:	0f b6 45 ff          	movzbl -0x1(%rbp),%eax
    2f92:	83 c0 01             	add    $0x1,%eax
    2f95:	88 45 ff             	mov    %al,-0x1(%rbp)
    2f98:	80 7d ff ff          	cmpb   $0xff,-0x1(%rbp)
    2f9c:	75 b1                	jne    2f4f <_ZN3IDT9CreateIDTEv+0x33>
    2f9e:	48 8b 45 e8          	mov    -0x18(%rbp),%rax
    2fa2:	0f 01 58 08          	lidt   0x8(%rax)
    2fa6:	90                   	nop
    2fa7:	c9                   	leave
    2fa8:	c3                   	ret
    2fa9:	90                   	nop

0000000000002faa <_ZN6IOAPIC4readEh>:
    2faa:	f3 0f 1e fa          	endbr64
    2fae:	55                   	push   %rbp
    2faf:	48 89 e5             	mov    %rsp,%rbp
    2fb2:	48 89 7d f8          	mov    %rdi,-0x8(%rbp)
    2fb6:	89 f0                	mov    %esi,%eax
    2fb8:	88 45 f4             	mov    %al,-0xc(%rbp)
    2fbb:	48 8b 45 f8          	mov    -0x8(%rbp),%rax
    2fbf:	48 8b 40 10          	mov    0x10(%rax),%rax
    2fc3:	48 89 c2             	mov    %rax,%rdx
    2fc6:	0f b6 45 f4          	movzbl -0xc(%rbp),%eax
    2fca:	89 02                	mov    %eax,(%rdx)
    2fcc:	48 8b 45 f8          	mov    -0x8(%rbp),%rax
    2fd0:	48 8b 40 10          	mov    0x10(%rax),%rax
    2fd4:	48 83 c0 10          	add    $0x10,%rax
    2fd8:	8b 00                	mov    (%rax),%eax
    2fda:	5d                   	pop    %rbp
    2fdb:	c3                   	ret

0000000000002fdc <_ZN6IOAPIC5writeEhj>:
    2fdc:	f3 0f 1e fa          	endbr64
    2fe0:	55                   	push   %rbp
    2fe1:	48 89 e5             	mov    %rsp,%rbp
    2fe4:	48 89 7d f8          	mov    %rdi,-0x8(%rbp)
    2fe8:	89 f0                	mov    %esi,%eax
    2fea:	89 55 f0             	mov    %edx,-0x10(%rbp)
    2fed:	88 45 f4             	mov    %al,-0xc(%rbp)
    2ff0:	48 8b 45 f8          	mov    -0x8(%rbp),%rax
    2ff4:	48 8b 40 10          	mov    0x10(%rax),%rax
    2ff8:	48 89 c2             	mov    %rax,%rdx
    2ffb:	0f b6 45 f4          	movzbl -0xc(%rbp),%eax
    2fff:	89 02                	mov    %eax,(%rdx)
    3001:	48 8b 45 f8          	mov    -0x8(%rbp),%rax
    3005:	48 8b 40 10          	mov    0x10(%rax),%rax
    3009:	48 83 c0 10          	add    $0x10,%rax
    300d:	48 89 c2             	mov    %rax,%rdx
    3010:	8b 45 f0             	mov    -0x10(%rbp),%eax
    3013:	89 02                	mov    %eax,(%rdx)
    3015:	90                   	nop
    3016:	5d                   	pop    %rbp
    3017:	c3                   	ret

0000000000003018 <_ZN6IOAPIC10InitializeEP12BasicConsolemmm>:
    3018:	f3 0f 1e fa          	endbr64
    301c:	55                   	push   %rbp
    301d:	48 89 e5             	mov    %rsp,%rbp
    3020:	48 83 ec 40          	sub    $0x40,%rsp
    3024:	48 89 7d e8          	mov    %rdi,-0x18(%rbp)
    3028:	48 89 75 e0          	mov    %rsi,-0x20(%rbp)
    302c:	48 89 55 d8          	mov    %rdx,-0x28(%rbp)
    3030:	48 89 4d d0          	mov    %rcx,-0x30(%rbp)
    3034:	4c 89 45 c8          	mov    %r8,-0x38(%rbp)
    3038:	48 8b 45 e8          	mov    -0x18(%rbp),%rax
    303c:	48 8b 55 e0          	mov    -0x20(%rbp),%rdx
    3040:	48 89 10             	mov    %rdx,(%rax)
    3043:	48 8b 45 e8          	mov    -0x18(%rbp),%rax
    3047:	48 8b 55 d8          	mov    -0x28(%rbp),%rdx
    304b:	48 89 50 10          	mov    %rdx,0x10(%rax)
    304f:	48 8b 45 e8          	mov    -0x18(%rbp),%rax
    3053:	be 00 00 00 00       	mov    $0x0,%esi
    3058:	48 89 c7             	mov    %rax,%rdi
    305b:	e8 4a ff ff ff       	call   2faa <_ZN6IOAPIC4readEh>
    3060:	c1 e8 18             	shr    $0x18,%eax
    3063:	83 e0 f0             	and    $0xfffffff0,%eax
    3066:	89 c2                	mov    %eax,%edx
    3068:	48 8b 45 e8          	mov    -0x18(%rbp),%rax
    306c:	88 50 18             	mov    %dl,0x18(%rax)
    306f:	48 8b 45 e8          	mov    -0x18(%rbp),%rax
    3073:	be 01 00 00 00       	mov    $0x1,%esi
    3078:	48 89 c7             	mov    %rax,%rdi
    307b:	e8 2a ff ff ff       	call   2faa <_ZN6IOAPIC4readEh>
    3080:	89 c2                	mov    %eax,%edx
    3082:	48 8b 45 e8          	mov    -0x18(%rbp),%rax
    3086:	88 50 19             	mov    %dl,0x19(%rax)
    3089:	48 8b 45 e8          	mov    -0x18(%rbp),%rax
    308d:	be 01 00 00 00       	mov    $0x1,%esi
    3092:	48 89 c7             	mov    %rax,%rdi
    3095:	e8 10 ff ff ff       	call   2faa <_ZN6IOAPIC4readEh>
    309a:	c1 e8 10             	shr    $0x10,%eax
    309d:	8d 50 01             	lea    0x1(%rax),%edx
    30a0:	48 8b 45 e8          	mov    -0x18(%rbp),%rax
    30a4:	88 50 1a             	mov    %dl,0x1a(%rax)
    30a7:	48 8b 45 e8          	mov    -0x18(%rbp),%rax
    30ab:	48 8b 55 c8          	mov    -0x38(%rbp),%rdx
    30af:	48 89 50 20          	mov    %rdx,0x20(%rax)
    30b3:	c6 45 ff 00          	movb   $0x0,-0x1(%rbp)
    30b7:	eb 4e                	jmp    3107 <_ZN6IOAPIC10InitializeEP12BasicConsolemmm+0xef>
    30b9:	48 c7 45 f7 00 00 00 	movq   $0x0,-0x9(%rbp)
    30c0:	00 
    30c1:	0f b6 45 ff          	movzbl -0x1(%rbp),%eax
    30c5:	83 c0 20             	add    $0x20,%eax
    30c8:	88 45 f7             	mov    %al,-0x9(%rbp)
    30cb:	0f b6 45 f8          	movzbl -0x8(%rbp),%eax
    30cf:	83 e0 f8             	and    $0xfffffff8,%eax
    30d2:	88 45 f8             	mov    %al,-0x8(%rbp)
    30d5:	0f b6 45 f8          	movzbl -0x8(%rbp),%eax
    30d9:	83 e0 f7             	and    $0xfffffff7,%eax
    30dc:	88 45 f8             	mov    %al,-0x8(%rbp)
    30df:	0f b6 45 f9          	movzbl -0x7(%rbp),%eax
    30e3:	83 c8 01             	or     $0x1,%eax
    30e6:	88 45 f9             	mov    %al,-0x7(%rbp)
    30e9:	c6 45 fe 00          	movb   $0x0,-0x2(%rbp)
    30ed:	0f b6 4d ff          	movzbl -0x1(%rbp),%ecx
    30f1:	48 8d 55 f7          	lea    -0x9(%rbp),%rdx
    30f5:	48 8b 45 e8          	mov    -0x18(%rbp),%rax
    30f9:	89 ce                	mov    %ecx,%esi
    30fb:	48 89 c7             	mov    %rax,%rdi
    30fe:	e8 cf 00 00 00       	call   31d2 <_ZN6IOAPIC15writeRedirEntryEhP16RedirectionEntry>
    3103:	80 45 ff 01          	addb   $0x1,-0x1(%rbp)
    3107:	48 8b 45 e8          	mov    -0x18(%rbp),%rax
    310b:	0f b6 40 1a          	movzbl 0x1a(%rax),%eax
    310f:	38 45 ff             	cmp    %al,-0x1(%rbp)
    3112:	72 a5                	jb     30b9 <_ZN6IOAPIC10InitializeEP12BasicConsolemmm+0xa1>
    3114:	48 8b 45 e8          	mov    -0x18(%rbp),%rax
    3118:	48 8b 00             	mov    (%rax),%rax
    311b:	ba ff ff ff ff       	mov    $0xffffffff,%edx
    3120:	48 8d 0d d9 01 01 00 	lea    0x101d9(%rip),%rcx        # 13300 <_ZL4font+0x1000>
    3127:	48 89 ce             	mov    %rcx,%rsi
    312a:	48 89 c7             	mov    %rax,%rdi
    312d:	e8 08 f5 ff ff       	call   263a <_ZN12BasicConsole7PrintlnEPKcj>
    3132:	90                   	nop
    3133:	c9                   	leave
    3134:	c3                   	ret
    3135:	90                   	nop

0000000000003136 <_ZN6IOAPIC13getRedirEntryEh>:
    3136:	f3 0f 1e fa          	endbr64
    313a:	55                   	push   %rbp
    313b:	48 89 e5             	mov    %rsp,%rbp
    313e:	48 83 ec 20          	sub    $0x20,%rsp
    3142:	48 89 7d e8          	mov    %rdi,-0x18(%rbp)
    3146:	89 f0                	mov    %esi,%eax
    3148:	88 45 e4             	mov    %al,-0x1c(%rbp)
    314b:	48 c7 45 f6 00 00 00 	movq   $0x0,-0xa(%rbp)
    3152:	00 
    3153:	48 8b 45 e8          	mov    -0x18(%rbp),%rax
    3157:	48 89 c7             	mov    %rax,%rdi
    315a:	e8 0b 01 00 00       	call   326a <_ZN6IOAPIC18redirectionEntriesEv>
    315f:	38 45 e4             	cmp    %al,-0x1c(%rbp)
    3162:	0f 93 c0             	setae  %al
    3165:	84 c0                	test   %al,%al
    3167:	74 23                	je     318c <_ZN6IOAPIC13getRedirEntryEh+0x56>
    3169:	48 8b 45 e8          	mov    -0x18(%rbp),%rax
    316d:	48 8b 00             	mov    (%rax),%rax
    3170:	0f b6 55 e4          	movzbl -0x1c(%rbp),%edx
    3174:	48 8d 0d aa 01 01 00 	lea    0x101aa(%rip),%rcx        # 13325 <_ZL4font+0x1025>
    317b:	48 89 ce             	mov    %rcx,%rsi
    317e:	48 89 c7             	mov    %rax,%rdi
    3181:	e8 b4 f4 ff ff       	call   263a <_ZN12BasicConsole7PrintlnEPKcj>
    3186:	48 8b 45 f6          	mov    -0xa(%rbp),%rax
    318a:	eb 44                	jmp    31d0 <_ZN6IOAPIC13getRedirEntryEh+0x9a>
    318c:	0f b6 45 e4          	movzbl -0x1c(%rbp),%eax
    3190:	83 c0 08             	add    $0x8,%eax
    3193:	01 c0                	add    %eax,%eax
    3195:	88 45 ff             	mov    %al,-0x1(%rbp)
    3198:	0f b6 45 ff          	movzbl -0x1(%rbp),%eax
    319c:	83 c0 01             	add    $0x1,%eax
    319f:	88 45 fe             	mov    %al,-0x2(%rbp)
    31a2:	0f b6 55 ff          	movzbl -0x1(%rbp),%edx
    31a6:	48 8b 45 e8          	mov    -0x18(%rbp),%rax
    31aa:	89 d6                	mov    %edx,%esi
    31ac:	48 89 c7             	mov    %rax,%rdi
    31af:	e8 f6 fd ff ff       	call   2faa <_ZN6IOAPIC4readEh>
    31b4:	89 45 f6             	mov    %eax,-0xa(%rbp)
    31b7:	0f b6 55 fe          	movzbl -0x2(%rbp),%edx
    31bb:	48 8b 45 e8          	mov    -0x18(%rbp),%rax
    31bf:	89 d6                	mov    %edx,%esi
    31c1:	48 89 c7             	mov    %rax,%rdi
    31c4:	e8 e1 fd ff ff       	call   2faa <_ZN6IOAPIC4readEh>
    31c9:	89 45 fa             	mov    %eax,-0x6(%rbp)
    31cc:	48 8b 45 f6          	mov    -0xa(%rbp),%rax
    31d0:	c9                   	leave
    31d1:	c3                   	ret

00000000000031d2 <_ZN6IOAPIC15writeRedirEntryEhP16RedirectionEntry>:
    31d2:	f3 0f 1e fa          	endbr64
    31d6:	55                   	push   %rbp
    31d7:	48 89 e5             	mov    %rsp,%rbp
    31da:	48 83 ec 30          	sub    $0x30,%rsp
    31de:	48 89 7d e8          	mov    %rdi,-0x18(%rbp)
    31e2:	89 f0                	mov    %esi,%eax
    31e4:	48 89 55 d8          	mov    %rdx,-0x28(%rbp)
    31e8:	88 45 e4             	mov    %al,-0x1c(%rbp)
    31eb:	48 8b 45 e8          	mov    -0x18(%rbp),%rax
    31ef:	48 89 c7             	mov    %rax,%rdi
    31f2:	e8 73 00 00 00       	call   326a <_ZN6IOAPIC18redirectionEntriesEv>
    31f7:	38 45 e4             	cmp    %al,-0x1c(%rbp)
    31fa:	0f 93 c0             	setae  %al
    31fd:	84 c0                	test   %al,%al
    31ff:	74 1f                	je     3220 <_ZN6IOAPIC15writeRedirEntryEhP16RedirectionEntry+0x4e>
    3201:	48 8b 45 e8          	mov    -0x18(%rbp),%rax
    3205:	48 8b 00             	mov    (%rax),%rax
    3208:	0f b6 55 e4          	movzbl -0x1c(%rbp),%edx
    320c:	48 8d 0d 12 01 01 00 	lea    0x10112(%rip),%rcx        # 13325 <_ZL4font+0x1025>
    3213:	48 89 ce             	mov    %rcx,%rsi
    3216:	48 89 c7             	mov    %rax,%rdi
    3219:	e8 1c f4 ff ff       	call   263a <_ZN12BasicConsole7PrintlnEPKcj>
    321e:	eb 47                	jmp    3267 <_ZN6IOAPIC15writeRedirEntryEhP16RedirectionEntry+0x95>
    3220:	0f b6 45 e4          	movzbl -0x1c(%rbp),%eax
    3224:	83 c0 08             	add    $0x8,%eax
    3227:	01 c0                	add    %eax,%eax
    3229:	88 45 ff             	mov    %al,-0x1(%rbp)
    322c:	0f b6 45 ff          	movzbl -0x1(%rbp),%eax
    3230:	83 c0 01             	add    $0x1,%eax
    3233:	88 45 fe             	mov    %al,-0x2(%rbp)
    3236:	48 8b 45 d8          	mov    -0x28(%rbp),%rax
    323a:	8b 10                	mov    (%rax),%edx
    323c:	0f b6 4d ff          	movzbl -0x1(%rbp),%ecx
    3240:	48 8b 45 e8          	mov    -0x18(%rbp),%rax
    3244:	89 ce                	mov    %ecx,%esi
    3246:	48 89 c7             	mov    %rax,%rdi
    3249:	e8 8e fd ff ff       	call   2fdc <_ZN6IOAPIC5writeEhj>
    324e:	48 8b 45 d8          	mov    -0x28(%rbp),%rax
    3252:	8b 50 04             	mov    0x4(%rax),%edx
    3255:	0f b6 4d fe          	movzbl -0x2(%rbp),%ecx
    3259:	48 8b 45 e8          	mov    -0x18(%rbp),%rax
    325d:	89 ce                	mov    %ecx,%esi
    325f:	48 89 c7             	mov    %rax,%rdi
    3262:	e8 75 fd ff ff       	call   2fdc <_ZN6IOAPIC5writeEhj>
    3267:	c9                   	leave
    3268:	c3                   	ret
    3269:	90                   	nop

000000000000326a <_ZN6IOAPIC18redirectionEntriesEv>:
    326a:	f3 0f 1e fa          	endbr64
    326e:	55                   	push   %rbp
    326f:	48 89 e5             	mov    %rsp,%rbp
    3272:	48 89 7d f8          	mov    %rdi,-0x8(%rbp)
    3276:	48 8b 45 f8          	mov    -0x8(%rbp),%rax
    327a:	0f b6 40 1a          	movzbl 0x1a(%rax),%eax
    327e:	5d                   	pop    %rbp
    327f:	c3                   	ret

0000000000003280 <_ZL9parse_hexPKcm>:
    3280:	f3 0f 1e fa          	endbr64
    3284:	55                   	push   %rbp
    3285:	48 89 e5             	mov    %rsp,%rbp
    3288:	48 89 7d d8          	mov    %rdi,-0x28(%rbp)
    328c:	48 89 75 d0          	mov    %rsi,-0x30(%rbp)
    3290:	c7 45 fc 00 00 00 00 	movl   $0x0,-0x4(%rbp)
    3297:	48 c7 45 f0 00 00 00 	movq   $0x0,-0x10(%rbp)
    329e:	00 
    329f:	eb 60                	jmp    3301 <_ZL9parse_hexPKcm+0x81>
    32a1:	48 8b 55 d8          	mov    -0x28(%rbp),%rdx
    32a5:	48 8b 45 f0          	mov    -0x10(%rbp),%rax
    32a9:	48 01 d0             	add    %rdx,%rax
    32ac:	0f b6 00             	movzbl (%rax),%eax
    32af:	88 45 ef             	mov    %al,-0x11(%rbp)
    32b2:	c1 65 fc 04          	shll   $0x4,-0x4(%rbp)
    32b6:	80 7d ef 2f          	cmpb   $0x2f,-0x11(%rbp)
    32ba:	7e 12                	jle    32ce <_ZL9parse_hexPKcm+0x4e>
    32bc:	80 7d ef 39          	cmpb   $0x39,-0x11(%rbp)
    32c0:	7f 0c                	jg     32ce <_ZL9parse_hexPKcm+0x4e>
    32c2:	0f be 45 ef          	movsbl -0x11(%rbp),%eax
    32c6:	83 e8 30             	sub    $0x30,%eax
    32c9:	09 45 fc             	or     %eax,-0x4(%rbp)
    32cc:	eb 2e                	jmp    32fc <_ZL9parse_hexPKcm+0x7c>
    32ce:	80 7d ef 40          	cmpb   $0x40,-0x11(%rbp)
    32d2:	7e 12                	jle    32e6 <_ZL9parse_hexPKcm+0x66>
    32d4:	80 7d ef 46          	cmpb   $0x46,-0x11(%rbp)
    32d8:	7f 0c                	jg     32e6 <_ZL9parse_hexPKcm+0x66>
    32da:	0f be 45 ef          	movsbl -0x11(%rbp),%eax
    32de:	83 e8 37             	sub    $0x37,%eax
    32e1:	09 45 fc             	or     %eax,-0x4(%rbp)
    32e4:	eb 16                	jmp    32fc <_ZL9parse_hexPKcm+0x7c>
    32e6:	80 7d ef 60          	cmpb   $0x60,-0x11(%rbp)
    32ea:	7e 10                	jle    32fc <_ZL9parse_hexPKcm+0x7c>
    32ec:	80 7d ef 66          	cmpb   $0x66,-0x11(%rbp)
    32f0:	7f 0a                	jg     32fc <_ZL9parse_hexPKcm+0x7c>
    32f2:	0f be 45 ef          	movsbl -0x11(%rbp),%eax
    32f6:	83 e8 57             	sub    $0x57,%eax
    32f9:	09 45 fc             	or     %eax,-0x4(%rbp)
    32fc:	48 83 45 f0 01       	addq   $0x1,-0x10(%rbp)
    3301:	48 8b 45 f0          	mov    -0x10(%rbp),%rax
    3305:	48 3b 45 d0          	cmp    -0x30(%rbp),%rax
    3309:	72 96                	jb     32a1 <_ZL9parse_hexPKcm+0x21>
    330b:	8b 45 fc             	mov    -0x4(%rbp),%eax
    330e:	5d                   	pop    %rbp
    330f:	c3                   	ret

0000000000003310 <_Z6memcmpPKvS0_m>:
    3310:	f3 0f 1e fa          	endbr64
    3314:	55                   	push   %rbp
    3315:	48 89 e5             	mov    %rsp,%rbp
    3318:	48 89 7d d8          	mov    %rdi,-0x28(%rbp)
    331c:	48 89 75 d0          	mov    %rsi,-0x30(%rbp)
    3320:	48 89 55 c8          	mov    %rdx,-0x38(%rbp)
    3324:	48 8b 45 d8          	mov    -0x28(%rbp),%rax
    3328:	48 89 45 f0          	mov    %rax,-0x10(%rbp)
    332c:	48 8b 45 d0          	mov    -0x30(%rbp),%rax
    3330:	48 89 45 e8          	mov    %rax,-0x18(%rbp)
    3334:	48 c7 45 f8 00 00 00 	movq   $0x0,-0x8(%rbp)
    333b:	00 
    333c:	eb 4b                	jmp    3389 <_Z6memcmpPKvS0_m+0x79>
    333e:	48 8b 55 f0          	mov    -0x10(%rbp),%rdx
    3342:	48 8b 45 f8          	mov    -0x8(%rbp),%rax
    3346:	48 01 d0             	add    %rdx,%rax
    3349:	0f b6 10             	movzbl (%rax),%edx
    334c:	48 8b 4d e8          	mov    -0x18(%rbp),%rcx
    3350:	48 8b 45 f8          	mov    -0x8(%rbp),%rax
    3354:	48 01 c8             	add    %rcx,%rax
    3357:	0f b6 00             	movzbl (%rax),%eax
    335a:	38 c2                	cmp    %al,%dl
    335c:	74 26                	je     3384 <_Z6memcmpPKvS0_m+0x74>
    335e:	48 8b 55 f0          	mov    -0x10(%rbp),%rdx
    3362:	48 8b 45 f8          	mov    -0x8(%rbp),%rax
    3366:	48 01 d0             	add    %rdx,%rax
    3369:	0f b6 00             	movzbl (%rax),%eax
    336c:	0f b6 d0             	movzbl %al,%edx
    336f:	48 8b 4d e8          	mov    -0x18(%rbp),%rcx
    3373:	48 8b 45 f8          	mov    -0x8(%rbp),%rax
    3377:	48 01 c8             	add    %rcx,%rax
    337a:	0f b6 00             	movzbl (%rax),%eax
    337d:	0f b6 c0             	movzbl %al,%eax
    3380:	29 c2                	sub    %eax,%edx
    3382:	eb 14                	jmp    3398 <_Z6memcmpPKvS0_m+0x88>
    3384:	48 83 45 f8 01       	addq   $0x1,-0x8(%rbp)
    3389:	48 8b 45 f8          	mov    -0x8(%rbp),%rax
    338d:	48 3b 45 c8          	cmp    -0x38(%rbp),%rax
    3391:	72 ab                	jb     333e <_Z6memcmpPKvS0_m+0x2e>
    3393:	ba 00 00 00 00       	mov    $0x0,%edx
    3398:	89 d0                	mov    %edx,%eax
    339a:	5d                   	pop    %rbp
    339b:	c3                   	ret

000000000000339c <_Z6strcmpPKcS0_>:
    339c:	f3 0f 1e fa          	endbr64
    33a0:	55                   	push   %rbp
    33a1:	48 89 e5             	mov    %rsp,%rbp
    33a4:	48 89 7d f8          	mov    %rdi,-0x8(%rbp)
    33a8:	48 89 75 f0          	mov    %rsi,-0x10(%rbp)
    33ac:	eb 0a                	jmp    33b8 <_Z6strcmpPKcS0_+0x1c>
    33ae:	48 83 45 f8 01       	addq   $0x1,-0x8(%rbp)
    33b3:	48 83 45 f0 01       	addq   $0x1,-0x10(%rbp)
    33b8:	48 8b 45 f8          	mov    -0x8(%rbp),%rax
    33bc:	0f b6 00             	movzbl (%rax),%eax
    33bf:	84 c0                	test   %al,%al
    33c1:	74 12                	je     33d5 <_Z6strcmpPKcS0_+0x39>
    33c3:	48 8b 45 f8          	mov    -0x8(%rbp),%rax
    33c7:	0f b6 10             	movzbl (%rax),%edx
    33ca:	48 8b 45 f0          	mov    -0x10(%rbp),%rax
    33ce:	0f b6 00             	movzbl (%rax),%eax
    33d1:	38 c2                	cmp    %al,%dl
    33d3:	74 d9                	je     33ae <_Z6strcmpPKcS0_+0x12>
    33d5:	48 8b 45 f8          	mov    -0x8(%rbp),%rax
    33d9:	0f b6 00             	movzbl (%rax),%eax
    33dc:	0f b6 d0             	movzbl %al,%edx
    33df:	48 8b 45 f0          	mov    -0x10(%rbp),%rax
    33e3:	0f b6 00             	movzbl (%rax),%eax
    33e6:	0f b6 c0             	movzbl %al,%eax
    33e9:	29 c2                	sub    %eax,%edx
    33eb:	89 d0                	mov    %edx,%eax
    33ed:	5d                   	pop    %rbp
    33ee:	c3                   	ret

00000000000033ef <_Z6memcpyPvPKvm>:
    33ef:	f3 0f 1e fa          	endbr64
    33f3:	55                   	push   %rbp
    33f4:	48 89 e5             	mov    %rsp,%rbp
    33f7:	48 89 7d d8          	mov    %rdi,-0x28(%rbp)
    33fb:	48 89 75 d0          	mov    %rsi,-0x30(%rbp)
    33ff:	48 89 55 c8          	mov    %rdx,-0x38(%rbp)
    3403:	48 8b 45 d8          	mov    -0x28(%rbp),%rax
    3407:	48 89 45 f0          	mov    %rax,-0x10(%rbp)
    340b:	48 8b 45 d0          	mov    -0x30(%rbp),%rax
    340f:	48 89 45 e8          	mov    %rax,-0x18(%rbp)
    3413:	48 c7 45 f8 00 00 00 	movq   $0x0,-0x8(%rbp)
    341a:	00 
    341b:	eb 20                	jmp    343d <_Z6memcpyPvPKvm+0x4e>
    341d:	48 8b 55 e8          	mov    -0x18(%rbp),%rdx
    3421:	48 8b 45 f8          	mov    -0x8(%rbp),%rax
    3425:	48 01 d0             	add    %rdx,%rax
    3428:	48 8b 4d f0          	mov    -0x10(%rbp),%rcx
    342c:	48 8b 55 f8          	mov    -0x8(%rbp),%rdx
    3430:	48 01 ca             	add    %rcx,%rdx
    3433:	0f b6 00             	movzbl (%rax),%eax
    3436:	88 02                	mov    %al,(%rdx)
    3438:	48 83 45 f8 01       	addq   $0x1,-0x8(%rbp)
    343d:	48 8b 45 f8          	mov    -0x8(%rbp),%rax
    3441:	48 3b 45 c8          	cmp    -0x38(%rbp),%rax
    3445:	72 d6                	jb     341d <_Z6memcpyPvPKvm+0x2e>
    3447:	48 8b 45 d8          	mov    -0x28(%rbp),%rax
    344b:	5d                   	pop    %rbp
    344c:	c3                   	ret

000000000000344d <_Z7strncmpPKcS0_m>:
    344d:	f3 0f 1e fa          	endbr64
    3451:	55                   	push   %rbp
    3452:	48 89 e5             	mov    %rsp,%rbp
    3455:	48 89 7d e8          	mov    %rdi,-0x18(%rbp)
    3459:	48 89 75 e0          	mov    %rsi,-0x20(%rbp)
    345d:	48 89 55 d8          	mov    %rdx,-0x28(%rbp)
    3461:	48 c7 45 f8 00 00 00 	movq   $0x0,-0x8(%rbp)
    3468:	00 
    3469:	eb 64                	jmp    34cf <_Z7strncmpPKcS0_m+0x82>
    346b:	48 8b 55 e8          	mov    -0x18(%rbp),%rdx
    346f:	48 8b 45 f8          	mov    -0x8(%rbp),%rax
    3473:	48 01 d0             	add    %rdx,%rax
    3476:	0f b6 10             	movzbl (%rax),%edx
    3479:	48 8b 4d e0          	mov    -0x20(%rbp),%rcx
    347d:	48 8b 45 f8          	mov    -0x8(%rbp),%rax
    3481:	48 01 c8             	add    %rcx,%rax
    3484:	0f b6 00             	movzbl (%rax),%eax
    3487:	38 c2                	cmp    %al,%dl
    3489:	74 26                	je     34b1 <_Z7strncmpPKcS0_m+0x64>
    348b:	48 8b 55 e8          	mov    -0x18(%rbp),%rdx
    348f:	48 8b 45 f8          	mov    -0x8(%rbp),%rax
    3493:	48 01 d0             	add    %rdx,%rax
    3496:	0f b6 00             	movzbl (%rax),%eax
    3499:	0f b6 c0             	movzbl %al,%eax
    349c:	48 8b 4d e0          	mov    -0x20(%rbp),%rcx
    34a0:	48 8b 55 f8          	mov    -0x8(%rbp),%rdx
    34a4:	48 01 ca             	add    %rcx,%rdx
    34a7:	0f b6 12             	movzbl (%rdx),%edx
    34aa:	0f b6 d2             	movzbl %dl,%edx
    34ad:	29 d0                	sub    %edx,%eax
    34af:	eb 2d                	jmp    34de <_Z7strncmpPKcS0_m+0x91>
    34b1:	48 8b 55 e8          	mov    -0x18(%rbp),%rdx
    34b5:	48 8b 45 f8          	mov    -0x8(%rbp),%rax
    34b9:	48 01 d0             	add    %rdx,%rax
    34bc:	0f b6 00             	movzbl (%rax),%eax
    34bf:	84 c0                	test   %al,%al
    34c1:	75 07                	jne    34ca <_Z7strncmpPKcS0_m+0x7d>
    34c3:	b8 00 00 00 00       	mov    $0x0,%eax
    34c8:	eb 14                	jmp    34de <_Z7strncmpPKcS0_m+0x91>
    34ca:	48 83 45 f8 01       	addq   $0x1,-0x8(%rbp)
    34cf:	48 8b 45 f8          	mov    -0x8(%rbp),%rax
    34d3:	48 3b 45 d8          	cmp    -0x28(%rbp),%rax
    34d7:	72 92                	jb     346b <_Z7strncmpPKcS0_m+0x1e>
    34d9:	b8 00 00 00 00       	mov    $0x0,%eax
    34de:	5d                   	pop    %rbp
    34df:	c3                   	ret

00000000000034e0 <_Z6strlenPKc>:
    34e0:	f3 0f 1e fa          	endbr64
    34e4:	55                   	push   %rbp
    34e5:	48 89 e5             	mov    %rsp,%rbp
    34e8:	48 89 7d e8          	mov    %rdi,-0x18(%rbp)
    34ec:	48 c7 45 f8 00 00 00 	movq   $0x0,-0x8(%rbp)
    34f3:	00 
    34f4:	eb 05                	jmp    34fb <_Z6strlenPKc+0x1b>
    34f6:	48 83 45 f8 01       	addq   $0x1,-0x8(%rbp)
    34fb:	48 8b 55 e8          	mov    -0x18(%rbp),%rdx
    34ff:	48 8b 45 f8          	mov    -0x8(%rbp),%rax
    3503:	48 01 d0             	add    %rdx,%rax
    3506:	0f b6 00             	movzbl (%rax),%eax
    3509:	84 c0                	test   %al,%al
    350b:	75 e9                	jne    34f6 <_Z6strlenPKc+0x16>
    350d:	48 8b 45 f8          	mov    -0x8(%rbp),%rax
    3511:	5d                   	pop    %rbp
    3512:	c3                   	ret

0000000000003513 <_Z6strchrPKci>:
    3513:	f3 0f 1e fa          	endbr64
    3517:	55                   	push   %rbp
    3518:	48 89 e5             	mov    %rsp,%rbp
    351b:	48 89 7d f8          	mov    %rdi,-0x8(%rbp)
    351f:	89 75 f4             	mov    %esi,-0xc(%rbp)
    3522:	eb 19                	jmp    353d <_Z6strchrPKci+0x2a>
    3524:	48 8b 45 f8          	mov    -0x8(%rbp),%rax
    3528:	0f b6 00             	movzbl (%rax),%eax
    352b:	8b 55 f4             	mov    -0xc(%rbp),%edx
    352e:	38 d0                	cmp    %dl,%al
    3530:	75 06                	jne    3538 <_Z6strchrPKci+0x25>
    3532:	48 8b 45 f8          	mov    -0x8(%rbp),%rax
    3536:	eb 15                	jmp    354d <_Z6strchrPKci+0x3a>
    3538:	48 83 45 f8 01       	addq   $0x1,-0x8(%rbp)
    353d:	48 8b 45 f8          	mov    -0x8(%rbp),%rax
    3541:	0f b6 00             	movzbl (%rax),%eax
    3544:	84 c0                	test   %al,%al
    3546:	75 dc                	jne    3524 <_Z6strchrPKci+0x11>
    3548:	b8 00 00 00 00       	mov    $0x0,%eax
    354d:	5d                   	pop    %rbp
    354e:	c3                   	ret
    354f:	90                   	nop

0000000000003550 <_ZN12InitialRamFS10InitializeEPvm>:
    3550:	f3 0f 1e fa          	endbr64
    3554:	55                   	push   %rbp
    3555:	48 89 e5             	mov    %rsp,%rbp
    3558:	48 89 7d f8          	mov    %rdi,-0x8(%rbp)
    355c:	48 89 75 f0          	mov    %rsi,-0x10(%rbp)
    3560:	48 89 55 e8          	mov    %rdx,-0x18(%rbp)
    3564:	48 8b 45 f8          	mov    -0x8(%rbp),%rax
    3568:	48 8b 55 f0          	mov    -0x10(%rbp),%rdx
    356c:	48 89 10             	mov    %rdx,(%rax)
    356f:	48 8b 45 f8          	mov    -0x8(%rbp),%rax
    3573:	48 8b 55 e8          	mov    -0x18(%rbp),%rdx
    3577:	48 89 50 08          	mov    %rdx,0x8(%rax)
    357b:	90                   	nop
    357c:	5d                   	pop    %rbp
    357d:	c3                   	ret

000000000000357e <_ZN12InitialRamFS11file_existsEPc>:
    357e:	f3 0f 1e fa          	endbr64
    3582:	55                   	push   %rbp
    3583:	48 89 e5             	mov    %rsp,%rbp
    3586:	48 83 ec 40          	sub    $0x40,%rsp
    358a:	48 89 7d c8          	mov    %rdi,-0x38(%rbp)
    358e:	48 89 75 c0          	mov    %rsi,-0x40(%rbp)
    3592:	48 8b 45 c8          	mov    -0x38(%rbp),%rax
    3596:	48 8b 00             	mov    (%rax),%rax
    3599:	48 89 45 f8          	mov    %rax,-0x8(%rbp)
    359d:	48 8b 45 f8          	mov    -0x8(%rbp),%rax
    35a1:	48 89 45 f0          	mov    %rax,-0x10(%rbp)
    35a5:	48 8b 45 f0          	mov    -0x10(%rbp),%rax
    35a9:	ba 06 00 00 00       	mov    $0x6,%edx
    35ae:	48 8d 0d 8e fd 00 00 	lea    0xfd8e(%rip),%rcx        # 13343 <_ZL4font+0x1043>
    35b5:	48 89 ce             	mov    %rcx,%rsi
    35b8:	48 89 c7             	mov    %rax,%rdi
    35bb:	e8 50 fd ff ff       	call   3310 <_Z6memcmpPKvS0_m>
    35c0:	85 c0                	test   %eax,%eax
    35c2:	0f 95 c0             	setne  %al
    35c5:	84 c0                	test   %al,%al
    35c7:	0f 85 c4 00 00 00    	jne    3691 <_ZN12InitialRamFS11file_existsEPc+0x113>
    35cd:	48 8b 45 f0          	mov    -0x10(%rbp),%rax
    35d1:	48 83 c0 5e          	add    $0x5e,%rax
    35d5:	be 08 00 00 00       	mov    $0x8,%esi
    35da:	48 89 c7             	mov    %rax,%rdi
    35dd:	e8 9e fc ff ff       	call   3280 <_ZL9parse_hexPKcm>
    35e2:	89 45 ec             	mov    %eax,-0x14(%rbp)
    35e5:	48 8b 45 f8          	mov    -0x8(%rbp),%rax
    35e9:	48 83 c0 6e          	add    $0x6e,%rax
    35ed:	48 89 45 e0          	mov    %rax,-0x20(%rbp)
    35f1:	48 8b 45 e0          	mov    -0x20(%rbp),%rax
    35f5:	48 8d 15 4e fd 00 00 	lea    0xfd4e(%rip),%rdx        # 1334a <_ZL4font+0x104a>
    35fc:	48 89 d6             	mov    %rdx,%rsi
    35ff:	48 89 c7             	mov    %rax,%rdi
    3602:	e8 95 fd ff ff       	call   339c <_Z6strcmpPKcS0_>
    3607:	85 c0                	test   %eax,%eax
    3609:	0f 94 c0             	sete   %al
    360c:	84 c0                	test   %al,%al
    360e:	0f 85 80 00 00 00    	jne    3694 <_ZN12InitialRamFS11file_existsEPc+0x116>
    3614:	48 8b 55 c0          	mov    -0x40(%rbp),%rdx
    3618:	48 8b 45 e0          	mov    -0x20(%rbp),%rax
    361c:	48 89 d6             	mov    %rdx,%rsi
    361f:	48 89 c7             	mov    %rax,%rdi
    3622:	e8 75 fd ff ff       	call   339c <_Z6strcmpPKcS0_>
    3627:	85 c0                	test   %eax,%eax
    3629:	0f 94 c0             	sete   %al
    362c:	84 c0                	test   %al,%al
    362e:	74 07                	je     3637 <_ZN12InitialRamFS11file_existsEPc+0xb9>
    3630:	b8 01 00 00 00       	mov    $0x1,%eax
    3635:	eb 63                	jmp    369a <_ZN12InitialRamFS11file_existsEPc+0x11c>
    3637:	48 8b 45 f0          	mov    -0x10(%rbp),%rax
    363b:	48 83 c0 36          	add    $0x36,%rax
    363f:	be 08 00 00 00       	mov    $0x8,%esi
    3644:	48 89 c7             	mov    %rax,%rdi
    3647:	e8 34 fc ff ff       	call   3280 <_ZL9parse_hexPKcm>
    364c:	89 45 dc             	mov    %eax,-0x24(%rbp)
    364f:	8b 55 ec             	mov    -0x14(%rbp),%edx
    3652:	48 8b 45 e0          	mov    -0x20(%rbp),%rax
    3656:	48 01 d0             	add    %rdx,%rax
    3659:	48 89 45 d0          	mov    %rax,-0x30(%rbp)
    365d:	48 8b 45 d0          	mov    -0x30(%rbp),%rax
    3661:	48 83 c0 03          	add    $0x3,%rax
    3665:	48 83 e0 fc          	and    $0xfffffffffffffffc,%rax
    3669:	48 89 45 d0          	mov    %rax,-0x30(%rbp)
    366d:	8b 45 dc             	mov    -0x24(%rbp),%eax
    3670:	48 01 45 d0          	add    %rax,-0x30(%rbp)
    3674:	48 8b 45 d0          	mov    -0x30(%rbp),%rax
    3678:	48 83 c0 03          	add    $0x3,%rax
    367c:	48 83 e0 fc          	and    $0xfffffffffffffffc,%rax
    3680:	48 89 45 d0          	mov    %rax,-0x30(%rbp)
    3684:	48 8b 45 d0          	mov    -0x30(%rbp),%rax
    3688:	48 89 45 f8          	mov    %rax,-0x8(%rbp)
    368c:	e9 0c ff ff ff       	jmp    359d <_ZN12InitialRamFS11file_existsEPc+0x1f>
    3691:	90                   	nop
    3692:	eb 01                	jmp    3695 <_ZN12InitialRamFS11file_existsEPc+0x117>
    3694:	90                   	nop
    3695:	b8 00 00 00 00       	mov    $0x0,%eax
    369a:	c9                   	leave
    369b:	c3                   	ret

000000000000369c <_ZN12InitialRamFS10dir_existsEPc>:
    369c:	f3 0f 1e fa          	endbr64
    36a0:	55                   	push   %rbp
    36a1:	48 89 e5             	mov    %rsp,%rbp
    36a4:	48 83 ec 50          	sub    $0x50,%rsp
    36a8:	48 89 7d b8          	mov    %rdi,-0x48(%rbp)
    36ac:	48 89 75 b0          	mov    %rsi,-0x50(%rbp)
    36b0:	48 8b 45 b0          	mov    -0x50(%rbp),%rax
    36b4:	48 89 c7             	mov    %rax,%rdi
    36b7:	e8 24 fe ff ff       	call   34e0 <_Z6strlenPKc>
    36bc:	48 89 45 f8          	mov    %rax,-0x8(%rbp)
    36c0:	48 8b 45 f8          	mov    -0x8(%rbp),%rax
    36c4:	48 8d 50 ff          	lea    -0x1(%rax),%rdx
    36c8:	48 8b 45 b0          	mov    -0x50(%rbp),%rax
    36cc:	48 01 d0             	add    %rdx,%rax
    36cf:	0f b6 00             	movzbl (%rax),%eax
    36d2:	3c 2f                	cmp    $0x2f,%al
    36d4:	74 05                	je     36db <_ZN12InitialRamFS10dir_existsEPc+0x3f>
    36d6:	48 83 45 f8 01       	addq   $0x1,-0x8(%rbp)
    36db:	48 8b 45 b8          	mov    -0x48(%rbp),%rax
    36df:	48 8b 00             	mov    (%rax),%rax
    36e2:	48 89 45 f0          	mov    %rax,-0x10(%rbp)
    36e6:	48 8b 45 f0          	mov    -0x10(%rbp),%rax
    36ea:	48 89 45 e8          	mov    %rax,-0x18(%rbp)
    36ee:	48 8b 45 e8          	mov    -0x18(%rbp),%rax
    36f2:	ba 06 00 00 00       	mov    $0x6,%edx
    36f7:	48 8d 0d 45 fc 00 00 	lea    0xfc45(%rip),%rcx        # 13343 <_ZL4font+0x1043>
    36fe:	48 89 ce             	mov    %rcx,%rsi
    3701:	48 89 c7             	mov    %rax,%rdi
    3704:	e8 07 fc ff ff       	call   3310 <_Z6memcmpPKvS0_m>
    3709:	85 c0                	test   %eax,%eax
    370b:	0f 95 c0             	setne  %al
    370e:	84 c0                	test   %al,%al
    3710:	0f 85 ed 00 00 00    	jne    3803 <_ZN12InitialRamFS10dir_existsEPc+0x167>
    3716:	48 8b 45 e8          	mov    -0x18(%rbp),%rax
    371a:	48 83 c0 5e          	add    $0x5e,%rax
    371e:	be 08 00 00 00       	mov    $0x8,%esi
    3723:	48 89 c7             	mov    %rax,%rdi
    3726:	e8 55 fb ff ff       	call   3280 <_ZL9parse_hexPKcm>
    372b:	89 45 e4             	mov    %eax,-0x1c(%rbp)
    372e:	48 8b 45 f0          	mov    -0x10(%rbp),%rax
    3732:	48 83 c0 6e          	add    $0x6e,%rax
    3736:	48 89 45 d8          	mov    %rax,-0x28(%rbp)
    373a:	48 8b 45 d8          	mov    -0x28(%rbp),%rax
    373e:	48 8d 15 05 fc 00 00 	lea    0xfc05(%rip),%rdx        # 1334a <_ZL4font+0x104a>
    3745:	48 89 d6             	mov    %rdx,%rsi
    3748:	48 89 c7             	mov    %rax,%rdi
    374b:	e8 4c fc ff ff       	call   339c <_Z6strcmpPKcS0_>
    3750:	85 c0                	test   %eax,%eax
    3752:	0f 94 c0             	sete   %al
    3755:	84 c0                	test   %al,%al
    3757:	0f 85 a9 00 00 00    	jne    3806 <_ZN12InitialRamFS10dir_existsEPc+0x16a>
    375d:	48 8b 45 f8          	mov    -0x8(%rbp),%rax
    3761:	48 8d 50 ff          	lea    -0x1(%rax),%rdx
    3765:	48 8b 4d b0          	mov    -0x50(%rbp),%rcx
    3769:	48 8b 45 d8          	mov    -0x28(%rbp),%rax
    376d:	48 89 ce             	mov    %rcx,%rsi
    3770:	48 89 c7             	mov    %rax,%rdi
    3773:	e8 d5 fc ff ff       	call   344d <_Z7strncmpPKcS0_m>
    3778:	85 c0                	test   %eax,%eax
    377a:	75 1d                	jne    3799 <_ZN12InitialRamFS10dir_existsEPc+0xfd>
    377c:	48 8b 45 f8          	mov    -0x8(%rbp),%rax
    3780:	48 8d 50 ff          	lea    -0x1(%rax),%rdx
    3784:	48 8b 45 d8          	mov    -0x28(%rbp),%rax
    3788:	48 01 d0             	add    %rdx,%rax
    378b:	0f b6 00             	movzbl (%rax),%eax
    378e:	3c 2f                	cmp    $0x2f,%al
    3790:	75 07                	jne    3799 <_ZN12InitialRamFS10dir_existsEPc+0xfd>
    3792:	b8 01 00 00 00       	mov    $0x1,%eax
    3797:	eb 05                	jmp    379e <_ZN12InitialRamFS10dir_existsEPc+0x102>
    3799:	b8 00 00 00 00       	mov    $0x0,%eax
    379e:	84 c0                	test   %al,%al
    37a0:	74 07                	je     37a9 <_ZN12InitialRamFS10dir_existsEPc+0x10d>
    37a2:	b8 01 00 00 00       	mov    $0x1,%eax
    37a7:	eb 63                	jmp    380c <_ZN12InitialRamFS10dir_existsEPc+0x170>
    37a9:	48 8b 45 e8          	mov    -0x18(%rbp),%rax
    37ad:	48 83 c0 36          	add    $0x36,%rax
    37b1:	be 08 00 00 00       	mov    $0x8,%esi
    37b6:	48 89 c7             	mov    %rax,%rdi
    37b9:	e8 c2 fa ff ff       	call   3280 <_ZL9parse_hexPKcm>
    37be:	89 45 d4             	mov    %eax,-0x2c(%rbp)
    37c1:	8b 55 e4             	mov    -0x1c(%rbp),%edx
    37c4:	48 8b 45 d8          	mov    -0x28(%rbp),%rax
    37c8:	48 01 d0             	add    %rdx,%rax
    37cb:	48 89 45 c8          	mov    %rax,-0x38(%rbp)
    37cf:	48 8b 45 c8          	mov    -0x38(%rbp),%rax
    37d3:	48 83 c0 03          	add    $0x3,%rax
    37d7:	48 83 e0 fc          	and    $0xfffffffffffffffc,%rax
    37db:	48 89 45 c8          	mov    %rax,-0x38(%rbp)
    37df:	8b 45 d4             	mov    -0x2c(%rbp),%eax
    37e2:	48 01 45 c8          	add    %rax,-0x38(%rbp)
    37e6:	48 8b 45 c8          	mov    -0x38(%rbp),%rax
    37ea:	48 83 c0 03          	add    $0x3,%rax
    37ee:	48 83 e0 fc          	and    $0xfffffffffffffffc,%rax
    37f2:	48 89 45 c8          	mov    %rax,-0x38(%rbp)
    37f6:	48 8b 45 c8          	mov    -0x38(%rbp),%rax
    37fa:	48 89 45 f0          	mov    %rax,-0x10(%rbp)
    37fe:	e9 e3 fe ff ff       	jmp    36e6 <_ZN12InitialRamFS10dir_existsEPc+0x4a>
    3803:	90                   	nop
    3804:	eb 01                	jmp    3807 <_ZN12InitialRamFS10dir_existsEPc+0x16b>
    3806:	90                   	nop
    3807:	b8 00 00 00 00       	mov    $0x0,%eax
    380c:	c9                   	leave
    380d:	c3                   	ret

000000000000380e <_ZN12InitialRamFS4readEPcS0_>:
    380e:	f3 0f 1e fa          	endbr64
    3812:	55                   	push   %rbp
    3813:	48 89 e5             	mov    %rsp,%rbp
    3816:	48 81 ec 60 01 00 00 	sub    $0x160,%rsp
    381d:	48 89 bd b8 fe ff ff 	mov    %rdi,-0x148(%rbp)
    3824:	48 89 b5 b0 fe ff ff 	mov    %rsi,-0x150(%rbp)
    382b:	48 89 95 a8 fe ff ff 	mov    %rdx,-0x158(%rbp)
    3832:	c7 45 fc 00 00 00 00 	movl   $0x0,-0x4(%rbp)
    3839:	eb 23                	jmp    385e <_ZN12InitialRamFS4readEPcS0_+0x50>
    383b:	8b 45 fc             	mov    -0x4(%rbp),%eax
    383e:	48 63 d0             	movslq %eax,%rdx
    3841:	48 8b 85 b0 fe ff ff 	mov    -0x150(%rbp),%rax
    3848:	48 01 d0             	add    %rdx,%rax
    384b:	0f b6 10             	movzbl (%rax),%edx
    384e:	8b 45 fc             	mov    -0x4(%rbp),%eax
    3851:	48 98                	cltq
    3853:	88 94 05 c0 fe ff ff 	mov    %dl,-0x140(%rbp,%rax,1)
    385a:	83 45 fc 01          	addl   $0x1,-0x4(%rbp)
    385e:	8b 45 fc             	mov    -0x4(%rbp),%eax
    3861:	48 63 d0             	movslq %eax,%rdx
    3864:	48 8b 85 b0 fe ff ff 	mov    -0x150(%rbp),%rax
    386b:	48 01 d0             	add    %rdx,%rax
    386e:	0f b6 00             	movzbl (%rax),%eax
    3871:	84 c0                	test   %al,%al
    3873:	74 09                	je     387e <_ZN12InitialRamFS4readEPcS0_+0x70>
    3875:	81 7d fc fe 00 00 00 	cmpl   $0xfe,-0x4(%rbp)
    387c:	7e bd                	jle    383b <_ZN12InitialRamFS4readEPcS0_+0x2d>
    387e:	83 7d fc 00          	cmpl   $0x0,-0x4(%rbp)
    3882:	7e 30                	jle    38b4 <_ZN12InitialRamFS4readEPcS0_+0xa6>
    3884:	8b 45 fc             	mov    -0x4(%rbp),%eax
    3887:	83 e8 01             	sub    $0x1,%eax
    388a:	48 98                	cltq
    388c:	0f b6 84 05 c0 fe ff 	movzbl -0x140(%rbp,%rax,1),%eax
    3893:	ff 
    3894:	3c 2f                	cmp    $0x2f,%al
    3896:	74 1c                	je     38b4 <_ZN12InitialRamFS4readEPcS0_+0xa6>
    3898:	81 7d fc fe 00 00 00 	cmpl   $0xfe,-0x4(%rbp)
    389f:	7f 13                	jg     38b4 <_ZN12InitialRamFS4readEPcS0_+0xa6>
    38a1:	8b 45 fc             	mov    -0x4(%rbp),%eax
    38a4:	8d 50 01             	lea    0x1(%rax),%edx
    38a7:	89 55 fc             	mov    %edx,-0x4(%rbp)
    38aa:	48 98                	cltq
    38ac:	c6 84 05 c0 fe ff ff 	movb   $0x2f,-0x140(%rbp,%rax,1)
    38b3:	2f 
    38b4:	c7 45 f8 00 00 00 00 	movl   $0x0,-0x8(%rbp)
    38bb:	eb 2a                	jmp    38e7 <_ZN12InitialRamFS4readEPcS0_+0xd9>
    38bd:	48 8b 8d a8 fe ff ff 	mov    -0x158(%rbp),%rcx
    38c4:	8b 45 f8             	mov    -0x8(%rbp),%eax
    38c7:	8d 50 01             	lea    0x1(%rax),%edx
    38ca:	89 55 f8             	mov    %edx,-0x8(%rbp)
    38cd:	48 98                	cltq
    38cf:	48 01 c8             	add    %rcx,%rax
    38d2:	0f b6 10             	movzbl (%rax),%edx
    38d5:	8b 45 fc             	mov    -0x4(%rbp),%eax
    38d8:	8d 48 01             	lea    0x1(%rax),%ecx
    38db:	89 4d fc             	mov    %ecx,-0x4(%rbp)
    38de:	48 98                	cltq
    38e0:	88 94 05 c0 fe ff ff 	mov    %dl,-0x140(%rbp,%rax,1)
    38e7:	8b 45 f8             	mov    -0x8(%rbp),%eax
    38ea:	48 63 d0             	movslq %eax,%rdx
    38ed:	48 8b 85 a8 fe ff ff 	mov    -0x158(%rbp),%rax
    38f4:	48 01 d0             	add    %rdx,%rax
    38f7:	0f b6 00             	movzbl (%rax),%eax
    38fa:	84 c0                	test   %al,%al
    38fc:	74 09                	je     3907 <_ZN12InitialRamFS4readEPcS0_+0xf9>
    38fe:	81 7d fc fe 00 00 00 	cmpl   $0xfe,-0x4(%rbp)
    3905:	7e b6                	jle    38bd <_ZN12InitialRamFS4readEPcS0_+0xaf>
    3907:	8b 45 fc             	mov    -0x4(%rbp),%eax
    390a:	48 98                	cltq
    390c:	c6 84 05 c0 fe ff ff 	movb   $0x0,-0x140(%rbp,%rax,1)
    3913:	00 
    3914:	48 8b 85 b8 fe ff ff 	mov    -0x148(%rbp),%rax
    391b:	48 8b 00             	mov    (%rax),%rax
    391e:	48 89 45 f0          	mov    %rax,-0x10(%rbp)
    3922:	48 8b 45 f0          	mov    -0x10(%rbp),%rax
    3926:	48 89 45 e8          	mov    %rax,-0x18(%rbp)
    392a:	48 8b 45 e8          	mov    -0x18(%rbp),%rax
    392e:	ba 06 00 00 00       	mov    $0x6,%edx
    3933:	48 8d 0d 09 fa 00 00 	lea    0xfa09(%rip),%rcx        # 13343 <_ZL4font+0x1043>
    393a:	48 89 ce             	mov    %rcx,%rsi
    393d:	48 89 c7             	mov    %rax,%rdi
    3940:	e8 cb f9 ff ff       	call   3310 <_Z6memcmpPKvS0_m>
    3945:	85 c0                	test   %eax,%eax
    3947:	0f 95 c0             	setne  %al
    394a:	84 c0                	test   %al,%al
    394c:	0f 85 e4 00 00 00    	jne    3a36 <_ZN12InitialRamFS4readEPcS0_+0x228>
    3952:	48 8b 45 e8          	mov    -0x18(%rbp),%rax
    3956:	48 83 c0 5e          	add    $0x5e,%rax
    395a:	be 08 00 00 00       	mov    $0x8,%esi
    395f:	48 89 c7             	mov    %rax,%rdi
    3962:	e8 19 f9 ff ff       	call   3280 <_ZL9parse_hexPKcm>
    3967:	89 45 e4             	mov    %eax,-0x1c(%rbp)
    396a:	48 8b 45 f0          	mov    -0x10(%rbp),%rax
    396e:	48 83 c0 6e          	add    $0x6e,%rax
    3972:	48 89 45 d8          	mov    %rax,-0x28(%rbp)
    3976:	48 8b 45 d8          	mov    -0x28(%rbp),%rax
    397a:	48 8d 15 c9 f9 00 00 	lea    0xf9c9(%rip),%rdx        # 1334a <_ZL4font+0x104a>
    3981:	48 89 d6             	mov    %rdx,%rsi
    3984:	48 89 c7             	mov    %rax,%rdi
    3987:	e8 10 fa ff ff       	call   339c <_Z6strcmpPKcS0_>
    398c:	85 c0                	test   %eax,%eax
    398e:	0f 94 c0             	sete   %al
    3991:	84 c0                	test   %al,%al
    3993:	0f 85 a0 00 00 00    	jne    3a39 <_ZN12InitialRamFS4readEPcS0_+0x22b>
    3999:	48 8d 95 c0 fe ff ff 	lea    -0x140(%rbp),%rdx
    39a0:	48 8b 45 d8          	mov    -0x28(%rbp),%rax
    39a4:	48 89 d6             	mov    %rdx,%rsi
    39a7:	48 89 c7             	mov    %rax,%rdi
    39aa:	e8 ed f9 ff ff       	call   339c <_Z6strcmpPKcS0_>
    39af:	85 c0                	test   %eax,%eax
    39b1:	0f 94 c0             	sete   %al
    39b4:	84 c0                	test   %al,%al
    39b6:	74 24                	je     39dc <_ZN12InitialRamFS4readEPcS0_+0x1ce>
    39b8:	8b 55 e4             	mov    -0x1c(%rbp),%edx
    39bb:	48 8b 45 d8          	mov    -0x28(%rbp),%rax
    39bf:	48 01 d0             	add    %rdx,%rax
    39c2:	48 89 45 c0          	mov    %rax,-0x40(%rbp)
    39c6:	48 8b 45 c0          	mov    -0x40(%rbp),%rax
    39ca:	48 83 c0 03          	add    $0x3,%rax
    39ce:	48 83 e0 fc          	and    $0xfffffffffffffffc,%rax
    39d2:	48 89 45 c0          	mov    %rax,-0x40(%rbp)
    39d6:	48 8b 45 c0          	mov    -0x40(%rbp),%rax
    39da:	eb 63                	jmp    3a3f <_ZN12InitialRamFS4readEPcS0_+0x231>
    39dc:	48 8b 45 e8          	mov    -0x18(%rbp),%rax
    39e0:	48 83 c0 36          	add    $0x36,%rax
    39e4:	be 08 00 00 00       	mov    $0x8,%esi
    39e9:	48 89 c7             	mov    %rax,%rdi
    39ec:	e8 8f f8 ff ff       	call   3280 <_ZL9parse_hexPKcm>
    39f1:	89 45 d4             	mov    %eax,-0x2c(%rbp)
    39f4:	8b 55 e4             	mov    -0x1c(%rbp),%edx
    39f7:	48 8b 45 d8          	mov    -0x28(%rbp),%rax
    39fb:	48 01 d0             	add    %rdx,%rax
    39fe:	48 89 45 c8          	mov    %rax,-0x38(%rbp)
    3a02:	48 8b 45 c8          	mov    -0x38(%rbp),%rax
    3a06:	48 83 c0 03          	add    $0x3,%rax
    3a0a:	48 83 e0 fc          	and    $0xfffffffffffffffc,%rax
    3a0e:	48 89 45 c8          	mov    %rax,-0x38(%rbp)
    3a12:	8b 45 d4             	mov    -0x2c(%rbp),%eax
    3a15:	48 01 45 c8          	add    %rax,-0x38(%rbp)
    3a19:	48 8b 45 c8          	mov    -0x38(%rbp),%rax
    3a1d:	48 83 c0 03          	add    $0x3,%rax
    3a21:	48 83 e0 fc          	and    $0xfffffffffffffffc,%rax
    3a25:	48 89 45 c8          	mov    %rax,-0x38(%rbp)
    3a29:	48 8b 45 c8          	mov    -0x38(%rbp),%rax
    3a2d:	48 89 45 f0          	mov    %rax,-0x10(%rbp)
    3a31:	e9 ec fe ff ff       	jmp    3922 <_ZN12InitialRamFS4readEPcS0_+0x114>
    3a36:	90                   	nop
    3a37:	eb 01                	jmp    3a3a <_ZN12InitialRamFS4readEPcS0_+0x22c>
    3a39:	90                   	nop
    3a3a:	b8 00 00 00 00       	mov    $0x0,%eax
    3a3f:	c9                   	leave
    3a40:	c3                   	ret
    3a41:	90                   	nop

0000000000003a42 <_ZN12InitialRamFS4listEPc>:
    3a42:	f3 0f 1e fa          	endbr64
    3a46:	55                   	push   %rbp
    3a47:	48 89 e5             	mov    %rsp,%rbp
    3a4a:	48 83 ec 70          	sub    $0x70,%rsp
    3a4e:	48 89 7d 98          	mov    %rdi,-0x68(%rbp)
    3a52:	48 89 75 90          	mov    %rsi,-0x70(%rbp)
    3a56:	48 8d 05 a3 26 02 00 	lea    0x226a3(%rip),%rax        # 26100 <_ZZN12InitialRamFS4listEPcE6buffer>
    3a5d:	48 89 45 f8          	mov    %rax,-0x8(%rbp)
    3a61:	48 8b 45 90          	mov    -0x70(%rbp),%rax
    3a65:	48 89 c7             	mov    %rax,%rdi
    3a68:	e8 73 fa ff ff       	call   34e0 <_Z6strlenPKc>
    3a6d:	48 89 45 f0          	mov    %rax,-0x10(%rbp)
    3a71:	48 8b 45 f0          	mov    -0x10(%rbp),%rax
    3a75:	48 8d 50 ff          	lea    -0x1(%rax),%rdx
    3a79:	48 8b 45 90          	mov    -0x70(%rbp),%rax
    3a7d:	48 01 d0             	add    %rdx,%rax
    3a80:	0f b6 00             	movzbl (%rax),%eax
    3a83:	3c 2f                	cmp    $0x2f,%al
    3a85:	74 25                	je     3aac <_ZN12InitialRamFS4listEPc+0x6a>
    3a87:	48 8b 55 90          	mov    -0x70(%rbp),%rdx
    3a8b:	48 8b 45 f0          	mov    -0x10(%rbp),%rax
    3a8f:	48 01 d0             	add    %rdx,%rax
    3a92:	c6 00 2f             	movb   $0x2f,(%rax)
    3a95:	48 8b 45 f0          	mov    -0x10(%rbp),%rax
    3a99:	48 8d 50 01          	lea    0x1(%rax),%rdx
    3a9d:	48 8b 45 90          	mov    -0x70(%rbp),%rax
    3aa1:	48 01 d0             	add    %rdx,%rax
    3aa4:	c6 00 00             	movb   $0x0,(%rax)
    3aa7:	48 83 45 f0 01       	addq   $0x1,-0x10(%rbp)
    3aac:	48 8b 45 98          	mov    -0x68(%rbp),%rax
    3ab0:	48 8b 00             	mov    (%rax),%rax
    3ab3:	48 89 45 e8          	mov    %rax,-0x18(%rbp)
    3ab7:	48 8b 45 e8          	mov    -0x18(%rbp),%rax
    3abb:	48 89 45 e0          	mov    %rax,-0x20(%rbp)
    3abf:	48 8b 45 e0          	mov    -0x20(%rbp),%rax
    3ac3:	ba 06 00 00 00       	mov    $0x6,%edx
    3ac8:	48 8d 0d 74 f8 00 00 	lea    0xf874(%rip),%rcx        # 13343 <_ZL4font+0x1043>
    3acf:	48 89 ce             	mov    %rcx,%rsi
    3ad2:	48 89 c7             	mov    %rax,%rdi
    3ad5:	e8 36 f8 ff ff       	call   3310 <_Z6memcmpPKvS0_m>
    3ada:	85 c0                	test   %eax,%eax
    3adc:	0f 95 c0             	setne  %al
    3adf:	84 c0                	test   %al,%al
    3ae1:	0f 85 2d 01 00 00    	jne    3c14 <_ZN12InitialRamFS4listEPc+0x1d2>
    3ae7:	48 8b 45 e0          	mov    -0x20(%rbp),%rax
    3aeb:	48 83 c0 5e          	add    $0x5e,%rax
    3aef:	be 08 00 00 00       	mov    $0x8,%esi
    3af4:	48 89 c7             	mov    %rax,%rdi
    3af7:	e8 84 f7 ff ff       	call   3280 <_ZL9parse_hexPKcm>
    3afc:	89 45 dc             	mov    %eax,-0x24(%rbp)
    3aff:	48 8b 45 e8          	mov    -0x18(%rbp),%rax
    3b03:	48 83 c0 6e          	add    $0x6e,%rax
    3b07:	48 89 45 d0          	mov    %rax,-0x30(%rbp)
    3b0b:	48 8b 45 d0          	mov    -0x30(%rbp),%rax
    3b0f:	48 8d 15 34 f8 00 00 	lea    0xf834(%rip),%rdx        # 1334a <_ZL4font+0x104a>
    3b16:	48 89 d6             	mov    %rdx,%rsi
    3b19:	48 89 c7             	mov    %rax,%rdi
    3b1c:	e8 7b f8 ff ff       	call   339c <_Z6strcmpPKcS0_>
    3b21:	85 c0                	test   %eax,%eax
    3b23:	0f 94 c0             	sete   %al
    3b26:	84 c0                	test   %al,%al
    3b28:	0f 85 e9 00 00 00    	jne    3c17 <_ZN12InitialRamFS4listEPc+0x1d5>
    3b2e:	48 8b 55 f0          	mov    -0x10(%rbp),%rdx
    3b32:	48 8b 4d 90          	mov    -0x70(%rbp),%rcx
    3b36:	48 8b 45 d0          	mov    -0x30(%rbp),%rax
    3b3a:	48 89 ce             	mov    %rcx,%rsi
    3b3d:	48 89 c7             	mov    %rax,%rdi
    3b40:	e8 08 f9 ff ff       	call   344d <_Z7strncmpPKcS0_m>
    3b45:	85 c0                	test   %eax,%eax
    3b47:	0f 94 c0             	sete   %al
    3b4a:	84 c0                	test   %al,%al
    3b4c:	74 6c                	je     3bba <_ZN12InitialRamFS4listEPc+0x178>
    3b4e:	48 8b 55 d0          	mov    -0x30(%rbp),%rdx
    3b52:	48 8b 45 f0          	mov    -0x10(%rbp),%rax
    3b56:	48 01 d0             	add    %rdx,%rax
    3b59:	48 89 45 c8          	mov    %rax,-0x38(%rbp)
    3b5d:	48 8b 45 c8          	mov    -0x38(%rbp),%rax
    3b61:	be 2f 00 00 00       	mov    $0x2f,%esi
    3b66:	48 89 c7             	mov    %rax,%rdi
    3b69:	e8 a5 f9 ff ff       	call   3513 <_Z6strchrPKci>
    3b6e:	48 89 45 c0          	mov    %rax,-0x40(%rbp)
    3b72:	48 83 7d c0 00       	cmpq   $0x0,-0x40(%rbp)
    3b77:	75 41                	jne    3bba <_ZN12InitialRamFS4listEPc+0x178>
    3b79:	48 8b 45 c8          	mov    -0x38(%rbp),%rax
    3b7d:	48 89 c7             	mov    %rax,%rdi
    3b80:	e8 5b f9 ff ff       	call   34e0 <_Z6strlenPKc>
    3b85:	48 89 45 b8          	mov    %rax,-0x48(%rbp)
    3b89:	48 8b 55 b8          	mov    -0x48(%rbp),%rdx
    3b8d:	48 8b 4d c8          	mov    -0x38(%rbp),%rcx
    3b91:	48 8b 45 f8          	mov    -0x8(%rbp),%rax
    3b95:	48 89 ce             	mov    %rcx,%rsi
    3b98:	48 89 c7             	mov    %rax,%rdi
    3b9b:	e8 4f f8 ff ff       	call   33ef <_Z6memcpyPvPKvm>
    3ba0:	48 8b 55 f8          	mov    -0x8(%rbp),%rdx
    3ba4:	48 8b 45 b8          	mov    -0x48(%rbp),%rax
    3ba8:	48 01 d0             	add    %rdx,%rax
    3bab:	c6 00 0a             	movb   $0xa,(%rax)
    3bae:	48 8b 45 b8          	mov    -0x48(%rbp),%rax
    3bb2:	48 83 c0 01          	add    $0x1,%rax
    3bb6:	48 01 45 f8          	add    %rax,-0x8(%rbp)
    3bba:	48 8b 45 e0          	mov    -0x20(%rbp),%rax
    3bbe:	48 83 c0 36          	add    $0x36,%rax
    3bc2:	be 08 00 00 00       	mov    $0x8,%esi
    3bc7:	48 89 c7             	mov    %rax,%rdi
    3bca:	e8 b1 f6 ff ff       	call   3280 <_ZL9parse_hexPKcm>
    3bcf:	89 45 b4             	mov    %eax,-0x4c(%rbp)
    3bd2:	8b 55 dc             	mov    -0x24(%rbp),%edx
    3bd5:	48 8b 45 d0          	mov    -0x30(%rbp),%rax
    3bd9:	48 01 d0             	add    %rdx,%rax
    3bdc:	48 89 45 a8          	mov    %rax,-0x58(%rbp)
    3be0:	48 8b 45 a8          	mov    -0x58(%rbp),%rax
    3be4:	48 83 c0 03          	add    $0x3,%rax
    3be8:	48 83 e0 fc          	and    $0xfffffffffffffffc,%rax
    3bec:	48 89 45 a8          	mov    %rax,-0x58(%rbp)
    3bf0:	8b 45 b4             	mov    -0x4c(%rbp),%eax
    3bf3:	48 01 45 a8          	add    %rax,-0x58(%rbp)
    3bf7:	48 8b 45 a8          	mov    -0x58(%rbp),%rax
    3bfb:	48 83 c0 03          	add    $0x3,%rax
    3bff:	48 83 e0 fc          	and    $0xfffffffffffffffc,%rax
    3c03:	48 89 45 a8          	mov    %rax,-0x58(%rbp)
    3c07:	48 8b 45 a8          	mov    -0x58(%rbp),%rax
    3c0b:	48 89 45 e8          	mov    %rax,-0x18(%rbp)
    3c0f:	e9 a3 fe ff ff       	jmp    3ab7 <_ZN12InitialRamFS4listEPc+0x75>
    3c14:	90                   	nop
    3c15:	eb 01                	jmp    3c18 <_ZN12InitialRamFS4listEPc+0x1d6>
    3c17:	90                   	nop
    3c18:	48 8b 45 f8          	mov    -0x8(%rbp),%rax
    3c1c:	c6 00 00             	movb   $0x0,(%rax)
    3c1f:	48 8d 05 da 24 02 00 	lea    0x224da(%rip),%rax        # 26100 <_ZZN12InitialRamFS4listEPcE6buffer>
    3c26:	c9                   	leave
    3c27:	c3                   	ret

0000000000003c28 <_ZN14KernelServicesC1EP8BootInfo>:
    3c28:	f3 0f 1e fa          	endbr64
    3c2c:	55                   	push   %rbp
    3c2d:	48 89 e5             	mov    %rsp,%rbp
    3c30:	48 83 ec 10          	sub    $0x10,%rsp
    3c34:	48 89 7d f8          	mov    %rdi,-0x8(%rbp)
    3c38:	48 89 75 f0          	mov    %rsi,-0x10(%rbp)
    3c3c:	48 8b 7d f8          	mov    -0x8(%rbp),%rdi
    3c40:	48 8b 4d f0          	mov    -0x10(%rbp),%rcx
    3c44:	48 83 ec 20          	sub    $0x20,%rsp
    3c48:	48 89 e6             	mov    %rsp,%rsi
    3c4b:	48 8b 01             	mov    (%rcx),%rax
    3c4e:	48 8b 51 08          	mov    0x8(%rcx),%rdx
    3c52:	48 89 06             	mov    %rax,(%rsi)
    3c55:	48 89 56 08          	mov    %rdx,0x8(%rsi)
    3c59:	48 8b 41 10          	mov    0x10(%rcx),%rax
    3c5d:	48 8b 51 18          	mov    0x18(%rcx),%rdx
    3c61:	48 89 46 10          	mov    %rax,0x10(%rsi)
    3c65:	48 89 56 18          	mov    %rdx,0x18(%rsi)
    3c69:	e8 b0 e7 ff ff       	call   241e <_ZN12BasicConsoleC1E11FrameBuffer>
    3c6e:	48 83 c4 20          	add    $0x20,%rsp
    3c72:	48 8b 45 f8          	mov    -0x8(%rbp),%rax
    3c76:	48 83 c0 28          	add    $0x28,%rax
    3c7a:	48 89 c7             	mov    %rax,%rdi
    3c7d:	e8 e2 4d 00 00       	call   8a64 <_ZN18PageFrameAllocatorC1Ev>
    3c82:	48 8b 45 f8          	mov    -0x8(%rbp),%rax
    3c86:	48 83 e8 80          	sub    $0xffffffffffffff80,%rax
    3c8a:	48 89 c7             	mov    %rax,%rdi
    3c8d:	e8 1c 01 00 00       	call   3dae <_ZN16PageTableManagerC1Ev>
    3c92:	48 8b 45 f8          	mov    -0x8(%rbp),%rax
    3c96:	48 05 a8 00 00 00    	add    $0xa8,%rax
    3c9c:	48 89 c7             	mov    %rax,%rdi
    3c9f:	e8 22 01 00 00       	call   3dc6 <_ZN3GDTC1Ev>
    3ca4:	48 8b 45 f8          	mov    -0x8(%rbp),%rax
    3ca8:	48 05 e0 00 00 00    	add    $0xe0,%rax
    3cae:	48 89 c7             	mov    %rax,%rdi
    3cb1:	e8 20 01 00 00       	call   3dd6 <_ZN3IDTC1Ev>
    3cb6:	48 8b 45 f8          	mov    -0x8(%rbp),%rax
    3cba:	48 05 00 11 00 00    	add    $0x1100,%rax
    3cc0:	48 89 c7             	mov    %rax,%rdi
    3cc3:	e8 1e 01 00 00       	call   3de6 <_ZN4APICC1Ev>
    3cc8:	48 8b 45 f8          	mov    -0x8(%rbp),%rax
    3ccc:	48 05 01 11 00 00    	add    $0x1101,%rax
    3cd2:	48 89 c7             	mov    %rax,%rdi
    3cd5:	e8 04 e7 ff ff       	call   23de <_ZN3PICC1Ev>
    3cda:	48 8b 45 f8          	mov    -0x8(%rbp),%rax
    3cde:	48 05 08 11 00 00    	add    $0x1108,%rax
    3ce4:	48 89 c7             	mov    %rax,%rdi
    3ce7:	e8 0a 01 00 00       	call   3df6 <_ZN6IOAPICC1Ev>
    3cec:	48 8b 45 f8          	mov    -0x8(%rbp),%rax
    3cf0:	48 05 30 11 00 00    	add    $0x1130,%rax
    3cf6:	48 89 c7             	mov    %rax,%rdi
    3cf9:	e8 08 01 00 00       	call   3e06 <_ZN4ACPIC1Ev>
    3cfe:	48 8b 45 f8          	mov    -0x8(%rbp),%rax
    3d02:	48 05 58 11 00 00    	add    $0x1158,%rax
    3d08:	48 89 c7             	mov    %rax,%rdi
    3d0b:	e8 06 01 00 00       	call   3e16 <_ZN13HeapAllocatorC1Ev>
    3d10:	48 8b 45 f8          	mov    -0x8(%rbp),%rax
    3d14:	48 05 78 11 00 00    	add    $0x1178,%rax
    3d1a:	48 89 c7             	mov    %rax,%rdi
    3d1d:	e8 04 01 00 00       	call   3e26 <_ZN3PCIC1Ev>
    3d22:	48 8b 45 f8          	mov    -0x8(%rbp),%rax
    3d26:	48 05 90 11 00 00    	add    $0x1190,%rax
    3d2c:	48 89 c7             	mov    %rax,%rdi
    3d2f:	e8 12 01 00 00       	call   3e46 <_ZN4PCIeC1Ev>
    3d34:	48 8b 45 f8          	mov    -0x8(%rbp),%rax
    3d38:	48 8d 50 28          	lea    0x28(%rax),%rdx
    3d3c:	48 8b 45 f8          	mov    -0x8(%rbp),%rax
    3d40:	48 89 c6             	mov    %rax,%rsi
    3d43:	48 89 d7             	mov    %rdx,%rdi
    3d46:	e8 43 00 00 00       	call   3d8e <_ZN18PageFrameAllocator10InitialiseEP12BasicConsole>
    3d4b:	48 8b 45 f8          	mov    -0x8(%rbp),%rax
    3d4f:	48 8d 90 a8 00 00 00 	lea    0xa8(%rax),%rdx
    3d56:	48 8b 45 f8          	mov    -0x8(%rbp),%rax
    3d5a:	48 89 c6             	mov    %rax,%rsi
    3d5d:	48 89 d7             	mov    %rdx,%rdi
    3d60:	e8 2b ed ff ff       	call   2a90 <_ZN3GDT10InitializeEP12BasicConsole>
    3d65:	48 8b 45 f8          	mov    -0x8(%rbp),%rax
    3d69:	48 89 05 90 2b 02 00 	mov    %rax,0x22b90(%rip)        # 26900 <ks>
    3d70:	48 8b 45 f8          	mov    -0x8(%rbp),%rax
    3d74:	48 8d 90 e0 00 00 00 	lea    0xe0(%rax),%rdx
    3d7b:	48 8b 45 f8          	mov    -0x8(%rbp),%rax
    3d7f:	48 89 c6             	mov    %rax,%rsi
    3d82:	48 89 d7             	mov    %rdx,%rdi
    3d85:	e8 e2 f0 ff ff       	call   2e6c <_ZN3IDT10InitializeEP12BasicConsole>
    3d8a:	90                   	nop
    3d8b:	c9                   	leave
    3d8c:	c3                   	ret
    3d8d:	90                   	nop

0000000000003d8e <_ZN18PageFrameAllocator10InitialiseEP12BasicConsole>:
    3d8e:	f3 0f 1e fa          	endbr64
    3d92:	55                   	push   %rbp
    3d93:	48 89 e5             	mov    %rsp,%rbp
    3d96:	48 89 7d f8          	mov    %rdi,-0x8(%rbp)
    3d9a:	48 89 75 f0          	mov    %rsi,-0x10(%rbp)
    3d9e:	48 8b 45 f8          	mov    -0x8(%rbp),%rax
    3da2:	48 8b 55 f0          	mov    -0x10(%rbp),%rdx
    3da6:	48 89 50 50          	mov    %rdx,0x50(%rax)
    3daa:	90                   	nop
    3dab:	5d                   	pop    %rbp
    3dac:	c3                   	ret
    3dad:	90                   	nop

0000000000003dae <_ZN16PageTableManagerC1Ev>:
    3dae:	f3 0f 1e fa          	endbr64
    3db2:	55                   	push   %rbp
    3db3:	48 89 e5             	mov    %rsp,%rbp
    3db6:	48 89 7d f8          	mov    %rdi,-0x8(%rbp)
    3dba:	48 8b 45 f8          	mov    -0x8(%rbp),%rax
    3dbe:	c6 40 18 00          	movb   $0x0,0x18(%rax)
    3dc2:	90                   	nop
    3dc3:	5d                   	pop    %rbp
    3dc4:	c3                   	ret
    3dc5:	90                   	nop

0000000000003dc6 <_ZN3GDTC1Ev>:
    3dc6:	f3 0f 1e fa          	endbr64
    3dca:	55                   	push   %rbp
    3dcb:	48 89 e5             	mov    %rsp,%rbp
    3dce:	48 89 7d f8          	mov    %rdi,-0x8(%rbp)
    3dd2:	90                   	nop
    3dd3:	5d                   	pop    %rbp
    3dd4:	c3                   	ret
    3dd5:	90                   	nop

0000000000003dd6 <_ZN3IDTC1Ev>:
    3dd6:	f3 0f 1e fa          	endbr64
    3dda:	55                   	push   %rbp
    3ddb:	48 89 e5             	mov    %rsp,%rbp
    3dde:	48 89 7d f8          	mov    %rdi,-0x8(%rbp)
    3de2:	90                   	nop
    3de3:	5d                   	pop    %rbp
    3de4:	c3                   	ret
    3de5:	90                   	nop

0000000000003de6 <_ZN4APICC1Ev>:
    3de6:	f3 0f 1e fa          	endbr64
    3dea:	55                   	push   %rbp
    3deb:	48 89 e5             	mov    %rsp,%rbp
    3dee:	48 89 7d f8          	mov    %rdi,-0x8(%rbp)
    3df2:	90                   	nop
    3df3:	5d                   	pop    %rbp
    3df4:	c3                   	ret
    3df5:	90                   	nop

0000000000003df6 <_ZN6IOAPICC1Ev>:
    3df6:	f3 0f 1e fa          	endbr64
    3dfa:	55                   	push   %rbp
    3dfb:	48 89 e5             	mov    %rsp,%rbp
    3dfe:	48 89 7d f8          	mov    %rdi,-0x8(%rbp)
    3e02:	90                   	nop
    3e03:	5d                   	pop    %rbp
    3e04:	c3                   	ret
    3e05:	90                   	nop

0000000000003e06 <_ZN4ACPIC1Ev>:
    3e06:	f3 0f 1e fa          	endbr64
    3e0a:	55                   	push   %rbp
    3e0b:	48 89 e5             	mov    %rsp,%rbp
    3e0e:	48 89 7d f8          	mov    %rdi,-0x8(%rbp)
    3e12:	90                   	nop
    3e13:	5d                   	pop    %rbp
    3e14:	c3                   	ret
    3e15:	90                   	nop

0000000000003e16 <_ZN13HeapAllocatorC1Ev>:
    3e16:	f3 0f 1e fa          	endbr64
    3e1a:	55                   	push   %rbp
    3e1b:	48 89 e5             	mov    %rsp,%rbp
    3e1e:	48 89 7d f8          	mov    %rdi,-0x8(%rbp)
    3e22:	90                   	nop
    3e23:	5d                   	pop    %rbp
    3e24:	c3                   	ret
    3e25:	90                   	nop

0000000000003e26 <_ZN3PCIC1Ev>:
    3e26:	f3 0f 1e fa          	endbr64
    3e2a:	55                   	push   %rbp
    3e2b:	48 89 e5             	mov    %rsp,%rbp
    3e2e:	48 83 ec 10          	sub    $0x10,%rsp
    3e32:	48 89 7d f8          	mov    %rdi,-0x8(%rbp)
    3e36:	48 8b 45 f8          	mov    -0x8(%rbp),%rax
    3e3a:	48 89 c7             	mov    %rax,%rdi
    3e3d:	e8 24 00 00 00       	call   3e66 <_ZN5ArrayI9DeviceKeyEC1Ev>
    3e42:	90                   	nop
    3e43:	c9                   	leave
    3e44:	c3                   	ret
    3e45:	90                   	nop

0000000000003e46 <_ZN4PCIeC1Ev>:
    3e46:	f3 0f 1e fa          	endbr64
    3e4a:	55                   	push   %rbp
    3e4b:	48 89 e5             	mov    %rsp,%rbp
    3e4e:	48 83 ec 10          	sub    $0x10,%rsp
    3e52:	48 89 7d f8          	mov    %rdi,-0x8(%rbp)
    3e56:	48 8b 45 f8          	mov    -0x8(%rbp),%rax
    3e5a:	48 89 c7             	mov    %rax,%rdi
    3e5d:	e8 4e 00 00 00       	call   3eb0 <_ZN5ArrayI13PCIeDeviceKeyEC1Ev>
    3e62:	90                   	nop
    3e63:	c9                   	leave
    3e64:	c3                   	ret
    3e65:	90                   	nop

0000000000003e66 <_ZN5ArrayI9DeviceKeyEC1Ev>:
    3e66:	f3 0f 1e fa          	endbr64
    3e6a:	55                   	push   %rbp
    3e6b:	48 89 e5             	mov    %rsp,%rbp
    3e6e:	48 89 7d f8          	mov    %rdi,-0x8(%rbp)
    3e72:	48 8b 45 f8          	mov    -0x8(%rbp),%rax
    3e76:	48 c7 00 00 00 00 00 	movq   $0x0,(%rax)
    3e7d:	48 8b 45 f8          	mov    -0x8(%rbp),%rax
    3e81:	48 c7 40 08 00 00 00 	movq   $0x0,0x8(%rax)
    3e88:	00 
    3e89:	48 8b 45 f8          	mov    -0x8(%rbp),%rax
    3e8d:	48 c7 40 10 00 00 00 	movq   $0x0,0x10(%rax)
    3e94:	00 
    3e95:	48 8b 45 f8          	mov    -0x8(%rbp),%rax
    3e99:	48 c7 40 08 00 00 00 	movq   $0x0,0x8(%rax)
    3ea0:	00 
    3ea1:	48 8b 45 f8          	mov    -0x8(%rbp),%rax
    3ea5:	48 c7 40 10 00 00 00 	movq   $0x0,0x10(%rax)
    3eac:	00 
    3ead:	90                   	nop
    3eae:	5d                   	pop    %rbp
    3eaf:	c3                   	ret

0000000000003eb0 <_ZN5ArrayI13PCIeDeviceKeyEC1Ev>:
    3eb0:	f3 0f 1e fa          	endbr64
    3eb4:	55                   	push   %rbp
    3eb5:	48 89 e5             	mov    %rsp,%rbp
    3eb8:	48 89 7d f8          	mov    %rdi,-0x8(%rbp)
    3ebc:	48 8b 45 f8          	mov    -0x8(%rbp),%rax
    3ec0:	48 c7 00 00 00 00 00 	movq   $0x0,(%rax)
    3ec7:	48 8b 45 f8          	mov    -0x8(%rbp),%rax
    3ecb:	48 c7 40 08 00 00 00 	movq   $0x0,0x8(%rax)
    3ed2:	00 
    3ed3:	48 8b 45 f8          	mov    -0x8(%rbp),%rax
    3ed7:	48 c7 40 10 00 00 00 	movq   $0x0,0x10(%rax)
    3ede:	00 
    3edf:	48 8b 45 f8          	mov    -0x8(%rbp),%rax
    3ee3:	48 c7 40 08 00 00 00 	movq   $0x0,0x8(%rax)
    3eea:	00 
    3eeb:	48 8b 45 f8          	mov    -0x8(%rbp),%rax
    3eef:	48 c7 40 10 00 00 00 	movq   $0x0,0x10(%rax)
    3ef6:	00 
    3ef7:	90                   	nop
    3ef8:	5d                   	pop    %rbp
    3ef9:	c3                   	ret

0000000000003efa <_ZN3PCI14ConfigReadWordEhhhh>:
    3efa:	f3 0f 1e fa          	endbr64
    3efe:	55                   	push   %rbp
    3eff:	48 89 e5             	mov    %rsp,%rbp
    3f02:	48 83 ec 40          	sub    $0x40,%rsp
    3f06:	48 89 7d d8          	mov    %rdi,-0x28(%rbp)
    3f0a:	89 c8                	mov    %ecx,%eax
    3f0c:	44 89 c7             	mov    %r8d,%edi
    3f0f:	89 f1                	mov    %esi,%ecx
    3f11:	88 4d d4             	mov    %cl,-0x2c(%rbp)
    3f14:	88 55 d0             	mov    %dl,-0x30(%rbp)
    3f17:	88 45 cc             	mov    %al,-0x34(%rbp)
    3f1a:	89 f8                	mov    %edi,%eax
    3f1c:	88 45 c8             	mov    %al,-0x38(%rbp)
    3f1f:	0f b6 45 d4          	movzbl -0x2c(%rbp),%eax
    3f23:	89 45 fc             	mov    %eax,-0x4(%rbp)
    3f26:	0f b6 45 d0          	movzbl -0x30(%rbp),%eax
    3f2a:	89 45 f8             	mov    %eax,-0x8(%rbp)
    3f2d:	0f b6 45 cc          	movzbl -0x34(%rbp),%eax
    3f31:	89 45 f4             	mov    %eax,-0xc(%rbp)
    3f34:	66 c7 45 f2 00 00    	movw   $0x0,-0xe(%rbp)
    3f3a:	8b 45 fc             	mov    -0x4(%rbp),%eax
    3f3d:	c1 e0 10             	shl    $0x10,%eax
    3f40:	89 c2                	mov    %eax,%edx
    3f42:	8b 45 f8             	mov    -0x8(%rbp),%eax
    3f45:	c1 e0 0b             	shl    $0xb,%eax
    3f48:	09 c2                	or     %eax,%edx
    3f4a:	8b 45 f4             	mov    -0xc(%rbp),%eax
    3f4d:	c1 e0 08             	shl    $0x8,%eax
    3f50:	09 c2                	or     %eax,%edx
    3f52:	0f b6 45 c8          	movzbl -0x38(%rbp),%eax
    3f56:	25 fc 00 00 00       	and    $0xfc,%eax
    3f5b:	09 d0                	or     %edx,%eax
    3f5d:	0d 00 00 00 80       	or     $0x80000000,%eax
    3f62:	89 45 ec             	mov    %eax,-0x14(%rbp)
    3f65:	8b 45 ec             	mov    -0x14(%rbp),%eax
    3f68:	89 c6                	mov    %eax,%esi
    3f6a:	bf f8 0c 00 00       	mov    $0xcf8,%edi
    3f6f:	e8 1e e8 ff ff       	call   2792 <_Z4outltj>
    3f74:	bf fc 0c 00 00       	mov    $0xcfc,%edi
    3f79:	e8 30 e8 ff ff       	call   27ae <_Z3inlt>
    3f7e:	0f b6 55 c8          	movzbl -0x38(%rbp),%edx
    3f82:	83 e2 02             	and    $0x2,%edx
    3f85:	c1 e2 03             	shl    $0x3,%edx
    3f88:	89 d1                	mov    %edx,%ecx
    3f8a:	d3 e8                	shr    %cl,%eax
    3f8c:	66 89 45 f2          	mov    %ax,-0xe(%rbp)
    3f90:	0f b7 45 f2          	movzwl -0xe(%rbp),%eax
    3f94:	c9                   	leave
    3f95:	c3                   	ret

0000000000003f96 <_ZN3PCI15ConfigWriteWordEhhhht>:
    3f96:	f3 0f 1e fa          	endbr64
    3f9a:	55                   	push   %rbp
    3f9b:	48 89 e5             	mov    %rsp,%rbp
    3f9e:	48 83 ec 30          	sub    $0x30,%rsp
    3fa2:	48 89 7d e8          	mov    %rdi,-0x18(%rbp)
    3fa6:	89 c8                	mov    %ecx,%eax
    3fa8:	44 89 cf             	mov    %r9d,%edi
    3fab:	89 f1                	mov    %esi,%ecx
    3fad:	88 4d e4             	mov    %cl,-0x1c(%rbp)
    3fb0:	88 55 e0             	mov    %dl,-0x20(%rbp)
    3fb3:	88 45 dc             	mov    %al,-0x24(%rbp)
    3fb6:	44 89 c0             	mov    %r8d,%eax
    3fb9:	88 45 d8             	mov    %al,-0x28(%rbp)
    3fbc:	89 f8                	mov    %edi,%eax
    3fbe:	66 89 45 d4          	mov    %ax,-0x2c(%rbp)
    3fc2:	0f b6 45 e4          	movzbl -0x1c(%rbp),%eax
    3fc6:	c1 e0 10             	shl    $0x10,%eax
    3fc9:	0d 00 00 00 80       	or     $0x80000000,%eax
    3fce:	89 c2                	mov    %eax,%edx
    3fd0:	0f b6 45 e0          	movzbl -0x20(%rbp),%eax
    3fd4:	c1 e0 0b             	shl    $0xb,%eax
    3fd7:	09 c2                	or     %eax,%edx
    3fd9:	0f b6 45 dc          	movzbl -0x24(%rbp),%eax
    3fdd:	c1 e0 08             	shl    $0x8,%eax
    3fe0:	09 c2                	or     %eax,%edx
    3fe2:	0f b6 45 d8          	movzbl -0x28(%rbp),%eax
    3fe6:	25 fc 00 00 00       	and    $0xfc,%eax
    3feb:	09 d0                	or     %edx,%eax
    3fed:	89 45 fc             	mov    %eax,-0x4(%rbp)
    3ff0:	8b 45 fc             	mov    -0x4(%rbp),%eax
    3ff3:	89 c6                	mov    %eax,%esi
    3ff5:	bf f8 0c 00 00       	mov    $0xcf8,%edi
    3ffa:	e8 93 e7 ff ff       	call   2792 <_Z4outltj>
    3fff:	bf fc 0c 00 00       	mov    $0xcfc,%edi
    4004:	e8 a5 e7 ff ff       	call   27ae <_Z3inlt>
    4009:	89 45 f8             	mov    %eax,-0x8(%rbp)
    400c:	0f b6 45 d8          	movzbl -0x28(%rbp),%eax
    4010:	83 e0 02             	and    $0x2,%eax
    4013:	c1 e0 03             	shl    $0x3,%eax
    4016:	ba ff ff 00 00       	mov    $0xffff,%edx
    401b:	89 c1                	mov    %eax,%ecx
    401d:	d3 e2                	shl    %cl,%edx
    401f:	89 d0                	mov    %edx,%eax
    4021:	89 45 f4             	mov    %eax,-0xc(%rbp)
    4024:	8b 45 f4             	mov    -0xc(%rbp),%eax
    4027:	f7 d0                	not    %eax
    4029:	23 45 f8             	and    -0x8(%rbp),%eax
    402c:	0f b7 75 d4          	movzwl -0x2c(%rbp),%esi
    4030:	0f b6 55 d8          	movzbl -0x28(%rbp),%edx
    4034:	83 e2 02             	and    $0x2,%edx
    4037:	c1 e2 03             	shl    $0x3,%edx
    403a:	89 d1                	mov    %edx,%ecx
    403c:	d3 e6                	shl    %cl,%esi
    403e:	89 f2                	mov    %esi,%edx
    4040:	09 d0                	or     %edx,%eax
    4042:	89 45 f8             	mov    %eax,-0x8(%rbp)
    4045:	8b 45 f8             	mov    -0x8(%rbp),%eax
    4048:	89 c6                	mov    %eax,%esi
    404a:	bf fc 0c 00 00       	mov    $0xcfc,%edi
    404f:	e8 3e e7 ff ff       	call   2792 <_Z4outltj>
    4054:	90                   	nop
    4055:	c9                   	leave
    4056:	c3                   	ret
    4057:	90                   	nop

0000000000004058 <_ZN3PCI16ConfigWriteDWordEhhhhj>:
    4058:	f3 0f 1e fa          	endbr64
    405c:	55                   	push   %rbp
    405d:	48 89 e5             	mov    %rsp,%rbp
    4060:	48 83 ec 30          	sub    $0x30,%rsp
    4064:	48 89 7d e8          	mov    %rdi,-0x18(%rbp)
    4068:	89 c8                	mov    %ecx,%eax
    406a:	44 89 c7             	mov    %r8d,%edi
    406d:	44 89 4d d4          	mov    %r9d,-0x2c(%rbp)
    4071:	89 f1                	mov    %esi,%ecx
    4073:	88 4d e4             	mov    %cl,-0x1c(%rbp)
    4076:	88 55 e0             	mov    %dl,-0x20(%rbp)
    4079:	88 45 dc             	mov    %al,-0x24(%rbp)
    407c:	89 f8                	mov    %edi,%eax
    407e:	88 45 d8             	mov    %al,-0x28(%rbp)
    4081:	0f b6 45 e4          	movzbl -0x1c(%rbp),%eax
    4085:	c1 e0 10             	shl    $0x10,%eax
    4088:	89 c2                	mov    %eax,%edx
    408a:	0f b6 45 e0          	movzbl -0x20(%rbp),%eax
    408e:	c1 e0 0b             	shl    $0xb,%eax
    4091:	09 c2                	or     %eax,%edx
    4093:	0f b6 45 dc          	movzbl -0x24(%rbp),%eax
    4097:	c1 e0 08             	shl    $0x8,%eax
    409a:	09 c2                	or     %eax,%edx
    409c:	0f b6 45 d8          	movzbl -0x28(%rbp),%eax
    40a0:	25 fc 00 00 00       	and    $0xfc,%eax
    40a5:	09 d0                	or     %edx,%eax
    40a7:	0d 00 00 00 80       	or     $0x80000000,%eax
    40ac:	89 45 fc             	mov    %eax,-0x4(%rbp)
    40af:	8b 45 fc             	mov    -0x4(%rbp),%eax
    40b2:	89 c6                	mov    %eax,%esi
    40b4:	bf f8 0c 00 00       	mov    $0xcf8,%edi
    40b9:	e8 d4 e6 ff ff       	call   2792 <_Z4outltj>
    40be:	8b 45 d4             	mov    -0x2c(%rbp),%eax
    40c1:	89 c6                	mov    %eax,%esi
    40c3:	bf fc 0c 00 00       	mov    $0xcfc,%edi
    40c8:	e8 c5 e6 ff ff       	call   2792 <_Z4outltj>
    40cd:	90                   	nop
    40ce:	c9                   	leave
    40cf:	c3                   	ret

00000000000040d0 <_ZN3PCI14ConfigReadByteEhhhh>:
    40d0:	f3 0f 1e fa          	endbr64
    40d4:	55                   	push   %rbp
    40d5:	48 89 e5             	mov    %rsp,%rbp
    40d8:	48 83 ec 30          	sub    $0x30,%rsp
    40dc:	48 89 7d e8          	mov    %rdi,-0x18(%rbp)
    40e0:	89 c8                	mov    %ecx,%eax
    40e2:	44 89 c7             	mov    %r8d,%edi
    40e5:	89 f1                	mov    %esi,%ecx
    40e7:	88 4d e4             	mov    %cl,-0x1c(%rbp)
    40ea:	88 55 e0             	mov    %dl,-0x20(%rbp)
    40ed:	88 45 dc             	mov    %al,-0x24(%rbp)
    40f0:	89 f8                	mov    %edi,%eax
    40f2:	88 45 d8             	mov    %al,-0x28(%rbp)
    40f5:	0f b6 45 d8          	movzbl -0x28(%rbp),%eax
    40f9:	83 e0 fc             	and    $0xfffffffc,%eax
    40fc:	89 45 fc             	mov    %eax,-0x4(%rbp)
    40ff:	8b 45 fc             	mov    -0x4(%rbp),%eax
    4102:	0f b6 f8             	movzbl %al,%edi
    4105:	0f b6 4d dc          	movzbl -0x24(%rbp),%ecx
    4109:	0f b6 55 e0          	movzbl -0x20(%rbp),%edx
    410d:	0f b6 75 e4          	movzbl -0x1c(%rbp),%esi
    4111:	48 8b 45 e8          	mov    -0x18(%rbp),%rax
    4115:	41 89 f8             	mov    %edi,%r8d
    4118:	48 89 c7             	mov    %rax,%rdi
    411b:	e8 20 00 00 00       	call   4140 <_ZN3PCI15ConfigReadDWordEhhhh>
    4120:	89 45 f8             	mov    %eax,-0x8(%rbp)
    4123:	0f b6 45 d8          	movzbl -0x28(%rbp),%eax
    4127:	83 e0 03             	and    $0x3,%eax
    412a:	c1 e0 03             	shl    $0x3,%eax
    412d:	88 45 f7             	mov    %al,-0x9(%rbp)
    4130:	0f b6 45 f7          	movzbl -0x9(%rbp),%eax
    4134:	8b 55 f8             	mov    -0x8(%rbp),%edx
    4137:	89 c1                	mov    %eax,%ecx
    4139:	d3 ea                	shr    %cl,%edx
    413b:	89 d0                	mov    %edx,%eax
    413d:	c9                   	leave
    413e:	c3                   	ret
    413f:	90                   	nop

0000000000004140 <_ZN3PCI15ConfigReadDWordEhhhh>:
    4140:	f3 0f 1e fa          	endbr64
    4144:	55                   	push   %rbp
    4145:	48 89 e5             	mov    %rsp,%rbp
    4148:	48 83 ec 30          	sub    $0x30,%rsp
    414c:	48 89 7d e8          	mov    %rdi,-0x18(%rbp)
    4150:	89 c8                	mov    %ecx,%eax
    4152:	44 89 c7             	mov    %r8d,%edi
    4155:	89 f1                	mov    %esi,%ecx
    4157:	88 4d e4             	mov    %cl,-0x1c(%rbp)
    415a:	88 55 e0             	mov    %dl,-0x20(%rbp)
    415d:	88 45 dc             	mov    %al,-0x24(%rbp)
    4160:	89 f8                	mov    %edi,%eax
    4162:	88 45 d8             	mov    %al,-0x28(%rbp)
    4165:	0f b6 45 e4          	movzbl -0x1c(%rbp),%eax
    4169:	c1 e0 10             	shl    $0x10,%eax
    416c:	0d 00 00 00 80       	or     $0x80000000,%eax
    4171:	89 c2                	mov    %eax,%edx
    4173:	0f b6 45 e0          	movzbl -0x20(%rbp),%eax
    4177:	c1 e0 0b             	shl    $0xb,%eax
    417a:	0f b7 c0             	movzwl %ax,%eax
    417d:	09 c2                	or     %eax,%edx
    417f:	0f b6 45 dc          	movzbl -0x24(%rbp),%eax
    4183:	c1 e0 08             	shl    $0x8,%eax
    4186:	25 00 07 00 00       	and    $0x700,%eax
    418b:	09 c2                	or     %eax,%edx
    418d:	0f b6 45 d8          	movzbl -0x28(%rbp),%eax
    4191:	25 fc 00 00 00       	and    $0xfc,%eax
    4196:	09 d0                	or     %edx,%eax
    4198:	89 45 fc             	mov    %eax,-0x4(%rbp)
    419b:	8b 45 fc             	mov    -0x4(%rbp),%eax
    419e:	89 c6                	mov    %eax,%esi
    41a0:	bf f8 0c 00 00       	mov    $0xcf8,%edi
    41a5:	e8 e8 e5 ff ff       	call   2792 <_Z4outltj>
    41aa:	bf fc 0c 00 00       	mov    $0xcfc,%edi
    41af:	e8 fa e5 ff ff       	call   27ae <_Z3inlt>
    41b4:	c9                   	leave
    41b5:	c3                   	ret

00000000000041b6 <_ZN3PCI9PCIExistsEv>:
    41b6:	f3 0f 1e fa          	endbr64
    41ba:	55                   	push   %rbp
    41bb:	48 89 e5             	mov    %rsp,%rbp
    41be:	48 83 ec 20          	sub    $0x20,%rsp
    41c2:	48 89 7d e8          	mov    %rdi,-0x18(%rbp)
    41c6:	c6 45 ff 00          	movb   $0x0,-0x1(%rbp)
    41ca:	eb 3c                	jmp    4208 <_ZN3PCI9PCIExistsEv+0x52>
    41cc:	0f b6 55 ff          	movzbl -0x1(%rbp),%edx
    41d0:	48 8b 45 e8          	mov    -0x18(%rbp),%rax
    41d4:	41 b8 00 00 00 00    	mov    $0x0,%r8d
    41da:	b9 00 00 00 00       	mov    $0x0,%ecx
    41df:	be 00 00 00 00       	mov    $0x0,%esi
    41e4:	48 89 c7             	mov    %rax,%rdi
    41e7:	e8 0e fd ff ff       	call   3efa <_ZN3PCI14ConfigReadWordEhhhh>
    41ec:	66 89 45 fc          	mov    %ax,-0x4(%rbp)
    41f0:	66 83 7d fc ff       	cmpw   $0xffff,-0x4(%rbp)
    41f5:	74 07                	je     41fe <_ZN3PCI9PCIExistsEv+0x48>
    41f7:	b8 01 00 00 00       	mov    $0x1,%eax
    41fc:	eb 15                	jmp    4213 <_ZN3PCI9PCIExistsEv+0x5d>
    41fe:	0f b6 45 ff          	movzbl -0x1(%rbp),%eax
    4202:	83 c0 01             	add    $0x1,%eax
    4205:	88 45 ff             	mov    %al,-0x1(%rbp)
    4208:	80 7d ff 1f          	cmpb   $0x1f,-0x1(%rbp)
    420c:	76 be                	jbe    41cc <_ZN3PCI9PCIExistsEv+0x16>
    420e:	b8 00 00 00 00       	mov    $0x0,%eax
    4213:	c9                   	leave
    4214:	c3                   	ret
    4215:	90                   	nop

0000000000004216 <_ZN3PCI14GetDeviceClassEhhh>:
    4216:	f3 0f 1e fa          	endbr64
    421a:	55                   	push   %rbp
    421b:	48 89 e5             	mov    %rsp,%rbp
    421e:	48 89 7d f8          	mov    %rdi,-0x8(%rbp)
    4222:	89 c8                	mov    %ecx,%eax
    4224:	89 f1                	mov    %esi,%ecx
    4226:	88 4d f4             	mov    %cl,-0xc(%rbp)
    4229:	88 55 f0             	mov    %dl,-0x10(%rbp)
    422c:	88 45 ec             	mov    %al,-0x14(%rbp)
    422f:	0f b6 45 f4          	movzbl -0xc(%rbp),%eax
    4233:	c1 e0 18             	shl    $0x18,%eax
    4236:	89 c2                	mov    %eax,%edx
    4238:	0f b6 45 f0          	movzbl -0x10(%rbp),%eax
    423c:	c1 e0 10             	shl    $0x10,%eax
    423f:	09 c2                	or     %eax,%edx
    4241:	0f b6 45 ec          	movzbl -0x14(%rbp),%eax
    4245:	c1 e0 08             	shl    $0x8,%eax
    4248:	09 d0                	or     %edx,%eax
    424a:	5d                   	pop    %rbp
    424b:	c3                   	ret

000000000000424c <_ZN3PCI12GetClassCodeEh>:
    424c:	f3 0f 1e fa          	endbr64
    4250:	55                   	push   %rbp
    4251:	48 89 e5             	mov    %rsp,%rbp
    4254:	48 89 7d f8          	mov    %rdi,-0x8(%rbp)
    4258:	89 f0                	mov    %esi,%eax
    425a:	88 45 f4             	mov    %al,-0xc(%rbp)
    425d:	0f b6 45 f4          	movzbl -0xc(%rbp),%eax
    4261:	83 f8 12             	cmp    $0x12,%eax
    4264:	0f 87 dd 00 00 00    	ja     4347 <_ZN3PCI12GetClassCodeEh+0xfb>
    426a:	89 c0                	mov    %eax,%eax
    426c:	48 8d 14 85 00 00 00 	lea    0x0(,%rax,4),%rdx
    4273:	00 
    4274:	48 8d 05 95 12 01 00 	lea    0x11295(%rip),%rax        # 15510 <_ZL4font+0x11b0>
    427b:	8b 04 02             	mov    (%rdx,%rax,1),%eax
    427e:	48 98                	cltq
    4280:	48 8d 15 89 12 01 00 	lea    0x11289(%rip),%rdx        # 15510 <_ZL4font+0x11b0>
    4287:	48 01 d0             	add    %rdx,%rax
    428a:	3e ff e0             	notrack jmp *%rax
    428d:	48 8d 05 cc 10 01 00 	lea    0x110cc(%rip),%rax        # 15360 <_ZL4font+0x1000>
    4294:	e9 b5 00 00 00       	jmp    434e <_ZN3PCI12GetClassCodeEh+0x102>
    4299:	48 8d 05 cd 10 01 00 	lea    0x110cd(%rip),%rax        # 1536d <_ZL4font+0x100d>
    42a0:	e9 a9 00 00 00       	jmp    434e <_ZN3PCI12GetClassCodeEh+0x102>
    42a5:	48 8d 05 d9 10 01 00 	lea    0x110d9(%rip),%rax        # 15385 <_ZL4font+0x1025>
    42ac:	e9 9d 00 00 00       	jmp    434e <_ZN3PCI12GetClassCodeEh+0x102>
    42b1:	48 8d 05 e0 10 01 00 	lea    0x110e0(%rip),%rax        # 15398 <_ZL4font+0x1038>
    42b8:	e9 91 00 00 00       	jmp    434e <_ZN3PCI12GetClassCodeEh+0x102>
    42bd:	48 8d 05 e7 10 01 00 	lea    0x110e7(%rip),%rax        # 153ab <_ZL4font+0x104b>
    42c4:	e9 85 00 00 00       	jmp    434e <_ZN3PCI12GetClassCodeEh+0x102>
    42c9:	48 8d 05 f1 10 01 00 	lea    0x110f1(%rip),%rax        # 153c1 <_ZL4font+0x1061>
    42d0:	eb 7c                	jmp    434e <_ZN3PCI12GetClassCodeEh+0x102>
    42d2:	48 8d 05 fa 10 01 00 	lea    0x110fa(%rip),%rax        # 153d3 <_ZL4font+0x1073>
    42d9:	eb 73                	jmp    434e <_ZN3PCI12GetClassCodeEh+0x102>
    42db:	48 8d 05 fe 10 01 00 	lea    0x110fe(%rip),%rax        # 153e0 <_ZL4font+0x1080>
    42e2:	eb 6a                	jmp    434e <_ZN3PCI12GetClassCodeEh+0x102>
    42e4:	48 8d 05 15 11 01 00 	lea    0x11115(%rip),%rax        # 15400 <_ZL4font+0x10a0>
    42eb:	eb 61                	jmp    434e <_ZN3PCI12GetClassCodeEh+0x102>
    42ed:	48 8d 05 23 11 01 00 	lea    0x11123(%rip),%rax        # 15417 <_ZL4font+0x10b7>
    42f4:	eb 58                	jmp    434e <_ZN3PCI12GetClassCodeEh+0x102>
    42f6:	48 8d 05 32 11 01 00 	lea    0x11132(%rip),%rax        # 1542f <_ZL4font+0x10cf>
    42fd:	eb 4f                	jmp    434e <_ZN3PCI12GetClassCodeEh+0x102>
    42ff:	48 8d 05 39 11 01 00 	lea    0x11139(%rip),%rax        # 1543f <_ZL4font+0x10df>
    4306:	eb 46                	jmp    434e <_ZN3PCI12GetClassCodeEh+0x102>
    4308:	48 8d 05 3a 11 01 00 	lea    0x1113a(%rip),%rax        # 15449 <_ZL4font+0x10e9>
    430f:	eb 3d                	jmp    434e <_ZN3PCI12GetClassCodeEh+0x102>
    4311:	48 8d 05 47 11 01 00 	lea    0x11147(%rip),%rax        # 1545f <_ZL4font+0x10ff>
    4318:	eb 34                	jmp    434e <_ZN3PCI12GetClassCodeEh+0x102>
    431a:	48 8d 05 52 11 01 00 	lea    0x11152(%rip),%rax        # 15473 <_ZL4font+0x1113>
    4321:	eb 2b                	jmp    434e <_ZN3PCI12GetClassCodeEh+0x102>
    4323:	48 8d 05 66 11 01 00 	lea    0x11166(%rip),%rax        # 15490 <_ZL4font+0x1130>
    432a:	eb 22                	jmp    434e <_ZN3PCI12GetClassCodeEh+0x102>
    432c:	48 8d 05 80 11 01 00 	lea    0x11180(%rip),%rax        # 154b3 <_ZL4font+0x1153>
    4333:	eb 19                	jmp    434e <_ZN3PCI12GetClassCodeEh+0x102>
    4335:	48 8d 05 8d 11 01 00 	lea    0x1118d(%rip),%rax        # 154c9 <_ZL4font+0x1169>
    433c:	eb 10                	jmp    434e <_ZN3PCI12GetClassCodeEh+0x102>
    433e:	48 8d 05 a1 11 01 00 	lea    0x111a1(%rip),%rax        # 154e6 <_ZL4font+0x1186>
    4345:	eb 07                	jmp    434e <_ZN3PCI12GetClassCodeEh+0x102>
    4347:	48 8d 05 af 11 01 00 	lea    0x111af(%rip),%rax        # 154fd <_ZL4font+0x119d>
    434e:	5d                   	pop    %rbp
    434f:	c3                   	ret

0000000000004350 <_ZN3PCI13GetDeviceCodeEhhh>:
    4350:	f3 0f 1e fa          	endbr64
    4354:	55                   	push   %rbp
    4355:	48 89 e5             	mov    %rsp,%rbp
    4358:	48 89 7d f8          	mov    %rdi,-0x8(%rbp)
    435c:	89 c8                	mov    %ecx,%eax
    435e:	89 f1                	mov    %esi,%ecx
    4360:	88 4d f4             	mov    %cl,-0xc(%rbp)
    4363:	88 55 f0             	mov    %dl,-0x10(%rbp)
    4366:	88 45 ec             	mov    %al,-0x14(%rbp)
    4369:	0f b6 45 f4          	movzbl -0xc(%rbp),%eax
    436d:	83 f8 41             	cmp    $0x41,%eax
    4370:	7f 34                	jg     43a6 <_ZN3PCI13GetDeviceCodeEhhh+0x56>
    4372:	85 c0                	test   %eax,%eax
    4374:	0f 88 c4 0f 00 00    	js     533e <_ZN3PCI13GetDeviceCodeEhhh+0xfee>
    437a:	83 f8 41             	cmp    $0x41,%eax
    437d:	0f 87 bb 0f 00 00    	ja     533e <_ZN3PCI13GetDeviceCodeEhhh+0xfee>
    4383:	89 c0                	mov    %eax,%eax
    4385:	48 8d 14 85 00 00 00 	lea    0x0(,%rax,4),%rdx
    438c:	00 
    438d:	48 8d 05 9c 31 01 00 	lea    0x1319c(%rip),%rax        # 17530 <_ZL4font+0x31d0>
    4394:	8b 04 02             	mov    (%rdx,%rax,1),%eax
    4397:	48 98                	cltq
    4399:	48 8d 15 90 31 01 00 	lea    0x13190(%rip),%rdx        # 17530 <_ZL4font+0x31d0>
    43a0:	48 01 d0             	add    %rdx,%rax
    43a3:	3e ff e0             	notrack jmp *%rax
    43a6:	3d ff 00 00 00       	cmp    $0xff,%eax
    43ab:	0f 84 84 0f 00 00    	je     5335 <_ZN3PCI13GetDeviceCodeEhhh+0xfe5>
    43b1:	e9 88 0f 00 00       	jmp    533e <_ZN3PCI13GetDeviceCodeEhhh+0xfee>
    43b6:	0f b6 45 f0          	movzbl -0x10(%rbp),%eax
    43ba:	85 c0                	test   %eax,%eax
    43bc:	74 07                	je     43c5 <_ZN3PCI13GetDeviceCodeEhhh+0x75>
    43be:	83 f8 01             	cmp    $0x1,%eax
    43c1:	74 0e                	je     43d1 <_ZN3PCI13GetDeviceCodeEhhh+0x81>
    43c3:	eb 18                	jmp    43dd <_ZN3PCI13GetDeviceCodeEhhh+0x8d>
    43c5:	48 8d 05 94 11 01 00 	lea    0x11194(%rip),%rax        # 15560 <_ZL4font+0x1200>
    43cc:	e9 74 0f 00 00       	jmp    5345 <_ZN3PCI13GetDeviceCodeEhhh+0xff5>
    43d1:	48 8d 05 a9 11 01 00 	lea    0x111a9(%rip),%rax        # 15581 <_ZL4font+0x1221>
    43d8:	e9 68 0f 00 00       	jmp    5345 <_ZN3PCI13GetDeviceCodeEhhh+0xff5>
    43dd:	48 8d 05 ba 11 01 00 	lea    0x111ba(%rip),%rax        # 1559e <_ZL4font+0x123e>
    43e4:	e9 5c 0f 00 00       	jmp    5345 <_ZN3PCI13GetDeviceCodeEhhh+0xff5>
    43e9:	0f b6 45 f0          	movzbl -0x10(%rbp),%eax
    43ed:	83 f8 08             	cmp    $0x8,%eax
    43f0:	7f 34                	jg     4426 <_ZN3PCI13GetDeviceCodeEhhh+0xd6>
    43f2:	85 c0                	test   %eax,%eax
    43f4:	0f 88 37 02 00 00    	js     4631 <_ZN3PCI13GetDeviceCodeEhhh+0x2e1>
    43fa:	83 f8 08             	cmp    $0x8,%eax
    43fd:	0f 87 2e 02 00 00    	ja     4631 <_ZN3PCI13GetDeviceCodeEhhh+0x2e1>
    4403:	89 c0                	mov    %eax,%eax
    4405:	48 8d 14 85 00 00 00 	lea    0x0(,%rax,4),%rdx
    440c:	00 
    440d:	48 8d 05 24 32 01 00 	lea    0x13224(%rip),%rax        # 17638 <_ZL4font+0x32d8>
    4414:	8b 04 02             	mov    (%rdx,%rax,1),%eax
    4417:	48 98                	cltq
    4419:	48 8d 15 18 32 01 00 	lea    0x13218(%rip),%rdx        # 17638 <_ZL4font+0x32d8>
    4420:	48 01 d0             	add    %rdx,%rax
    4423:	3e ff e0             	notrack jmp *%rax
    4426:	3d 80 00 00 00       	cmp    $0x80,%eax
    442b:	0f 84 f4 01 00 00    	je     4625 <_ZN3PCI13GetDeviceCodeEhhh+0x2d5>
    4431:	e9 fb 01 00 00       	jmp    4631 <_ZN3PCI13GetDeviceCodeEhhh+0x2e1>
    4436:	48 8d 05 77 11 01 00 	lea    0x11177(%rip),%rax        # 155b4 <_ZL4font+0x1254>
    443d:	e9 03 0f 00 00       	jmp    5345 <_ZN3PCI13GetDeviceCodeEhhh+0xff5>
    4442:	0f b6 45 ec          	movzbl -0x14(%rbp),%eax
    4446:	3d 8f 00 00 00       	cmp    $0x8f,%eax
    444b:	0f 84 b4 00 00 00    	je     4505 <_ZN3PCI13GetDeviceCodeEhhh+0x1b5>
    4451:	3d 8f 00 00 00       	cmp    $0x8f,%eax
    4456:	0f 8f b5 00 00 00    	jg     4511 <_ZN3PCI13GetDeviceCodeEhhh+0x1c1>
    445c:	3d 8a 00 00 00       	cmp    $0x8a,%eax
    4461:	0f 84 92 00 00 00    	je     44f9 <_ZN3PCI13GetDeviceCodeEhhh+0x1a9>
    4467:	3d 8a 00 00 00       	cmp    $0x8a,%eax
    446c:	0f 8f 9f 00 00 00    	jg     4511 <_ZN3PCI13GetDeviceCodeEhhh+0x1c1>
    4472:	3d 85 00 00 00       	cmp    $0x85,%eax
    4477:	74 74                	je     44ed <_ZN3PCI13GetDeviceCodeEhhh+0x19d>
    4479:	3d 85 00 00 00       	cmp    $0x85,%eax
    447e:	0f 8f 8d 00 00 00    	jg     4511 <_ZN3PCI13GetDeviceCodeEhhh+0x1c1>
    4484:	3d 80 00 00 00       	cmp    $0x80,%eax
    4489:	74 56                	je     44e1 <_ZN3PCI13GetDeviceCodeEhhh+0x191>
    448b:	3d 80 00 00 00       	cmp    $0x80,%eax
    4490:	7f 7f                	jg     4511 <_ZN3PCI13GetDeviceCodeEhhh+0x1c1>
    4492:	83 f8 0f             	cmp    $0xf,%eax
    4495:	74 3e                	je     44d5 <_ZN3PCI13GetDeviceCodeEhhh+0x185>
    4497:	83 f8 0f             	cmp    $0xf,%eax
    449a:	7f 75                	jg     4511 <_ZN3PCI13GetDeviceCodeEhhh+0x1c1>
    449c:	83 f8 0a             	cmp    $0xa,%eax
    449f:	74 28                	je     44c9 <_ZN3PCI13GetDeviceCodeEhhh+0x179>
    44a1:	83 f8 0a             	cmp    $0xa,%eax
    44a4:	7f 6b                	jg     4511 <_ZN3PCI13GetDeviceCodeEhhh+0x1c1>
    44a6:	85 c0                	test   %eax,%eax
    44a8:	74 07                	je     44b1 <_ZN3PCI13GetDeviceCodeEhhh+0x161>
    44aa:	83 f8 05             	cmp    $0x5,%eax
    44ad:	74 0e                	je     44bd <_ZN3PCI13GetDeviceCodeEhhh+0x16d>
    44af:	eb 60                	jmp    4511 <_ZN3PCI13GetDeviceCodeEhhh+0x1c1>
    44b1:	48 8d 05 20 11 01 00 	lea    0x11120(%rip),%rax        # 155d8 <_ZL4font+0x1278>
    44b8:	e9 88 0e 00 00       	jmp    5345 <_ZN3PCI13GetDeviceCodeEhhh+0xff5>
    44bd:	48 8d 05 54 11 01 00 	lea    0x11154(%rip),%rax        # 15618 <_ZL4font+0x12b8>
    44c4:	e9 7c 0e 00 00       	jmp    5345 <_ZN3PCI13GetDeviceCodeEhhh+0xff5>
    44c9:	48 8d 05 80 11 01 00 	lea    0x11180(%rip),%rax        # 15650 <_ZL4font+0x12f0>
    44d0:	e9 70 0e 00 00       	jmp    5345 <_ZN3PCI13GetDeviceCodeEhhh+0xff5>
    44d5:	48 8d 05 ac 11 01 00 	lea    0x111ac(%rip),%rax        # 15688 <_ZL4font+0x1328>
    44dc:	e9 64 0e 00 00       	jmp    5345 <_ZN3PCI13GetDeviceCodeEhhh+0xff5>
    44e1:	48 8d 05 d0 11 01 00 	lea    0x111d0(%rip),%rax        # 156b8 <_ZL4font+0x1358>
    44e8:	e9 58 0e 00 00       	jmp    5345 <_ZN3PCI13GetDeviceCodeEhhh+0xff5>
    44ed:	48 8d 05 14 12 01 00 	lea    0x11214(%rip),%rax        # 15708 <_ZL4font+0x13a8>
    44f4:	e9 4c 0e 00 00       	jmp    5345 <_ZN3PCI13GetDeviceCodeEhhh+0xff5>
    44f9:	48 8d 05 50 12 01 00 	lea    0x11250(%rip),%rax        # 15750 <_ZL4font+0x13f0>
    4500:	e9 40 0e 00 00       	jmp    5345 <_ZN3PCI13GetDeviceCodeEhhh+0xff5>
    4505:	48 8d 05 8c 12 01 00 	lea    0x1128c(%rip),%rax        # 15798 <_ZL4font+0x1438>
    450c:	e9 34 0e 00 00       	jmp    5345 <_ZN3PCI13GetDeviceCodeEhhh+0xff5>
    4511:	48 8d 05 c0 12 01 00 	lea    0x112c0(%rip),%rax        # 157d8 <_ZL4font+0x1478>
    4518:	e9 28 0e 00 00       	jmp    5345 <_ZN3PCI13GetDeviceCodeEhhh+0xff5>
    451d:	48 8d 05 dc 12 01 00 	lea    0x112dc(%rip),%rax        # 15800 <_ZL4font+0x14a0>
    4524:	e9 1c 0e 00 00       	jmp    5345 <_ZN3PCI13GetDeviceCodeEhhh+0xff5>
    4529:	48 8d 05 f5 12 01 00 	lea    0x112f5(%rip),%rax        # 15825 <_ZL4font+0x14c5>
    4530:	e9 10 0e 00 00       	jmp    5345 <_ZN3PCI13GetDeviceCodeEhhh+0xff5>
    4535:	48 8d 05 06 13 01 00 	lea    0x11306(%rip),%rax        # 15842 <_ZL4font+0x14e2>
    453c:	e9 04 0e 00 00       	jmp    5345 <_ZN3PCI13GetDeviceCodeEhhh+0xff5>
    4541:	0f b6 45 ec          	movzbl -0x14(%rbp),%eax
    4545:	83 f8 20             	cmp    $0x20,%eax
    4548:	74 07                	je     4551 <_ZN3PCI13GetDeviceCodeEhhh+0x201>
    454a:	83 f8 30             	cmp    $0x30,%eax
    454d:	74 0e                	je     455d <_ZN3PCI13GetDeviceCodeEhhh+0x20d>
    454f:	eb 18                	jmp    4569 <_ZN3PCI13GetDeviceCodeEhhh+0x219>
    4551:	48 8d 05 08 13 01 00 	lea    0x11308(%rip),%rax        # 15860 <_ZL4font+0x1500>
    4558:	e9 e8 0d 00 00       	jmp    5345 <_ZN3PCI13GetDeviceCodeEhhh+0xff5>
    455d:	48 8d 05 2c 13 01 00 	lea    0x1132c(%rip),%rax        # 15890 <_ZL4font+0x1530>
    4564:	e9 dc 0d 00 00       	jmp    5345 <_ZN3PCI13GetDeviceCodeEhhh+0xff5>
    4569:	48 8d 05 50 13 01 00 	lea    0x11350(%rip),%rax        # 158c0 <_ZL4font+0x1560>
    4570:	e9 d0 0d 00 00       	jmp    5345 <_ZN3PCI13GetDeviceCodeEhhh+0xff5>
    4575:	0f b6 45 ec          	movzbl -0x14(%rbp),%eax
    4579:	83 f8 02             	cmp    $0x2,%eax
    457c:	74 28                	je     45a6 <_ZN3PCI13GetDeviceCodeEhhh+0x256>
    457e:	83 f8 02             	cmp    $0x2,%eax
    4581:	7f 2f                	jg     45b2 <_ZN3PCI13GetDeviceCodeEhhh+0x262>
    4583:	85 c0                	test   %eax,%eax
    4585:	74 07                	je     458e <_ZN3PCI13GetDeviceCodeEhhh+0x23e>
    4587:	83 f8 01             	cmp    $0x1,%eax
    458a:	74 0e                	je     459a <_ZN3PCI13GetDeviceCodeEhhh+0x24a>
    458c:	eb 24                	jmp    45b2 <_ZN3PCI13GetDeviceCodeEhhh+0x262>
    458e:	48 8d 05 53 13 01 00 	lea    0x11353(%rip),%rax        # 158e8 <_ZL4font+0x1588>
    4595:	e9 ab 0d 00 00       	jmp    5345 <_ZN3PCI13GetDeviceCodeEhhh+0xff5>
    459a:	48 8d 05 87 13 01 00 	lea    0x11387(%rip),%rax        # 15928 <_ZL4font+0x15c8>
    45a1:	e9 9f 0d 00 00       	jmp    5345 <_ZN3PCI13GetDeviceCodeEhhh+0xff5>
    45a6:	48 8d 05 ab 13 01 00 	lea    0x113ab(%rip),%rax        # 15958 <_ZL4font+0x15f8>
    45ad:	e9 93 0d 00 00       	jmp    5345 <_ZN3PCI13GetDeviceCodeEhhh+0xff5>
    45b2:	48 8d 05 d7 13 01 00 	lea    0x113d7(%rip),%rax        # 15990 <_ZL4font+0x1630>
    45b9:	e9 87 0d 00 00       	jmp    5345 <_ZN3PCI13GetDeviceCodeEhhh+0xff5>
    45be:	0f b6 45 ec          	movzbl -0x14(%rbp),%eax
    45c2:	85 c0                	test   %eax,%eax
    45c4:	74 07                	je     45cd <_ZN3PCI13GetDeviceCodeEhhh+0x27d>
    45c6:	83 f8 01             	cmp    $0x1,%eax
    45c9:	74 0e                	je     45d9 <_ZN3PCI13GetDeviceCodeEhhh+0x289>
    45cb:	eb 18                	jmp    45e5 <_ZN3PCI13GetDeviceCodeEhhh+0x295>
    45cd:	48 8d 05 ec 13 01 00 	lea    0x113ec(%rip),%rax        # 159c0 <_ZL4font+0x1660>
    45d4:	e9 6c 0d 00 00       	jmp    5345 <_ZN3PCI13GetDeviceCodeEhhh+0xff5>
    45d9:	48 8d 05 10 14 01 00 	lea    0x11410(%rip),%rax        # 159f0 <_ZL4font+0x1690>
    45e0:	e9 60 0d 00 00       	jmp    5345 <_ZN3PCI13GetDeviceCodeEhhh+0xff5>
    45e5:	48 8d 05 4c 14 01 00 	lea    0x1144c(%rip),%rax        # 15a38 <_ZL4font+0x16d8>
    45ec:	e9 54 0d 00 00       	jmp    5345 <_ZN3PCI13GetDeviceCodeEhhh+0xff5>
    45f1:	0f b6 45 ec          	movzbl -0x14(%rbp),%eax
    45f5:	83 f8 01             	cmp    $0x1,%eax
    45f8:	74 07                	je     4601 <_ZN3PCI13GetDeviceCodeEhhh+0x2b1>
    45fa:	83 f8 02             	cmp    $0x2,%eax
    45fd:	74 0e                	je     460d <_ZN3PCI13GetDeviceCodeEhhh+0x2bd>
    45ff:	eb 18                	jmp    4619 <_ZN3PCI13GetDeviceCodeEhhh+0x2c9>
    4601:	48 8d 05 68 14 01 00 	lea    0x11468(%rip),%rax        # 15a70 <_ZL4font+0x1710>
    4608:	e9 38 0d 00 00       	jmp    5345 <_ZN3PCI13GetDeviceCodeEhhh+0xff5>
    460d:	48 8d 05 94 14 01 00 	lea    0x11494(%rip),%rax        # 15aa8 <_ZL4font+0x1748>
    4614:	e9 2c 0d 00 00       	jmp    5345 <_ZN3PCI13GetDeviceCodeEhhh+0xff5>
    4619:	48 8d 05 c8 14 01 00 	lea    0x114c8(%rip),%rax        # 15ae8 <_ZL4font+0x1788>
    4620:	e9 20 0d 00 00       	jmp    5345 <_ZN3PCI13GetDeviceCodeEhhh+0xff5>
    4625:	48 8d 05 f4 14 01 00 	lea    0x114f4(%rip),%rax        # 15b20 <_ZL4font+0x17c0>
    462c:	e9 14 0d 00 00       	jmp    5345 <_ZN3PCI13GetDeviceCodeEhhh+0xff5>
    4631:	48 8d 05 08 15 01 00 	lea    0x11508(%rip),%rax        # 15b40 <_ZL4font+0x17e0>
    4638:	e9 08 0d 00 00       	jmp    5345 <_ZN3PCI13GetDeviceCodeEhhh+0xff5>
    463d:	0f b6 45 f0          	movzbl -0x10(%rbp),%eax
    4641:	83 f8 08             	cmp    $0x8,%eax
    4644:	7f 34                	jg     467a <_ZN3PCI13GetDeviceCodeEhhh+0x32a>
    4646:	85 c0                	test   %eax,%eax
    4648:	0f 88 ad 00 00 00    	js     46fb <_ZN3PCI13GetDeviceCodeEhhh+0x3ab>
    464e:	83 f8 08             	cmp    $0x8,%eax
    4651:	0f 87 a4 00 00 00    	ja     46fb <_ZN3PCI13GetDeviceCodeEhhh+0x3ab>
    4657:	89 c0                	mov    %eax,%eax
    4659:	48 8d 14 85 00 00 00 	lea    0x0(,%rax,4),%rdx
    4660:	00 
    4661:	48 8d 05 f4 2f 01 00 	lea    0x12ff4(%rip),%rax        # 1765c <_ZL4font+0x32fc>
    4668:	8b 04 02             	mov    (%rdx,%rax,1),%eax
    466b:	48 98                	cltq
    466d:	48 8d 15 e8 2f 01 00 	lea    0x12fe8(%rip),%rdx        # 1765c <_ZL4font+0x32fc>
    4674:	48 01 d0             	add    %rdx,%rax
    4677:	3e ff e0             	notrack jmp *%rax
    467a:	3d 80 00 00 00       	cmp    $0x80,%eax
    467f:	74 6e                	je     46ef <_ZN3PCI13GetDeviceCodeEhhh+0x39f>
    4681:	eb 78                	jmp    46fb <_ZN3PCI13GetDeviceCodeEhhh+0x3ab>
    4683:	48 8d 05 d7 14 01 00 	lea    0x114d7(%rip),%rax        # 15b61 <_ZL4font+0x1801>
    468a:	e9 b6 0c 00 00       	jmp    5345 <_ZN3PCI13GetDeviceCodeEhhh+0xff5>
    468f:	48 8d 05 ea 14 01 00 	lea    0x114ea(%rip),%rax        # 15b80 <_ZL4font+0x1820>
    4696:	e9 aa 0c 00 00       	jmp    5345 <_ZN3PCI13GetDeviceCodeEhhh+0xff5>
    469b:	48 8d 05 fd 14 01 00 	lea    0x114fd(%rip),%rax        # 15b9f <_ZL4font+0x183f>
    46a2:	e9 9e 0c 00 00       	jmp    5345 <_ZN3PCI13GetDeviceCodeEhhh+0xff5>
    46a7:	48 8d 05 0a 15 01 00 	lea    0x1150a(%rip),%rax        # 15bb8 <_ZL4font+0x1858>
    46ae:	e9 92 0c 00 00       	jmp    5345 <_ZN3PCI13GetDeviceCodeEhhh+0xff5>
    46b3:	48 8d 05 16 15 01 00 	lea    0x11516(%rip),%rax        # 15bd0 <_ZL4font+0x1870>
    46ba:	e9 86 0c 00 00       	jmp    5345 <_ZN3PCI13GetDeviceCodeEhhh+0xff5>
    46bf:	48 8d 05 23 15 01 00 	lea    0x11523(%rip),%rax        # 15be9 <_ZL4font+0x1889>
    46c6:	e9 7a 0c 00 00       	jmp    5345 <_ZN3PCI13GetDeviceCodeEhhh+0xff5>
    46cb:	48 8d 05 34 15 01 00 	lea    0x11534(%rip),%rax        # 15c06 <_ZL4font+0x18a6>
    46d2:	e9 6e 0c 00 00       	jmp    5345 <_ZN3PCI13GetDeviceCodeEhhh+0xff5>
    46d7:	48 8d 05 42 15 01 00 	lea    0x11542(%rip),%rax        # 15c20 <_ZL4font+0x18c0>
    46de:	e9 62 0c 00 00       	jmp    5345 <_ZN3PCI13GetDeviceCodeEhhh+0xff5>
    46e3:	48 8d 05 55 15 01 00 	lea    0x11555(%rip),%rax        # 15c3f <_ZL4font+0x18df>
    46ea:	e9 56 0c 00 00       	jmp    5345 <_ZN3PCI13GetDeviceCodeEhhh+0xff5>
    46ef:	48 8d 05 64 15 01 00 	lea    0x11564(%rip),%rax        # 15c5a <_ZL4font+0x18fa>
    46f6:	e9 4a 0c 00 00       	jmp    5345 <_ZN3PCI13GetDeviceCodeEhhh+0xff5>
    46fb:	48 8d 05 72 15 01 00 	lea    0x11572(%rip),%rax        # 15c74 <_ZL4font+0x1914>
    4702:	e9 3e 0c 00 00       	jmp    5345 <_ZN3PCI13GetDeviceCodeEhhh+0xff5>
    4707:	0f b6 45 f0          	movzbl -0x10(%rbp),%eax
    470b:	3d 80 00 00 00       	cmp    $0x80,%eax
    4710:	74 67                	je     4779 <_ZN3PCI13GetDeviceCodeEhhh+0x429>
    4712:	3d 80 00 00 00       	cmp    $0x80,%eax
    4717:	7f 6c                	jg     4785 <_ZN3PCI13GetDeviceCodeEhhh+0x435>
    4719:	83 f8 02             	cmp    $0x2,%eax
    471c:	74 4f                	je     476d <_ZN3PCI13GetDeviceCodeEhhh+0x41d>
    471e:	83 f8 02             	cmp    $0x2,%eax
    4721:	7f 62                	jg     4785 <_ZN3PCI13GetDeviceCodeEhhh+0x435>
    4723:	85 c0                	test   %eax,%eax
    4725:	74 07                	je     472e <_ZN3PCI13GetDeviceCodeEhhh+0x3de>
    4727:	83 f8 01             	cmp    $0x1,%eax
    472a:	74 35                	je     4761 <_ZN3PCI13GetDeviceCodeEhhh+0x411>
    472c:	eb 57                	jmp    4785 <_ZN3PCI13GetDeviceCodeEhhh+0x435>
    472e:	0f b6 45 ec          	movzbl -0x14(%rbp),%eax
    4732:	85 c0                	test   %eax,%eax
    4734:	74 07                	je     473d <_ZN3PCI13GetDeviceCodeEhhh+0x3ed>
    4736:	83 f8 01             	cmp    $0x1,%eax
    4739:	74 0e                	je     4749 <_ZN3PCI13GetDeviceCodeEhhh+0x3f9>
    473b:	eb 18                	jmp    4755 <_ZN3PCI13GetDeviceCodeEhhh+0x405>
    473d:	48 8d 05 4c 15 01 00 	lea    0x1154c(%rip),%rax        # 15c90 <_ZL4font+0x1930>
    4744:	e9 fc 0b 00 00       	jmp    5345 <_ZN3PCI13GetDeviceCodeEhhh+0xff5>
    4749:	48 8d 05 58 15 01 00 	lea    0x11558(%rip),%rax        # 15ca8 <_ZL4font+0x1948>
    4750:	e9 f0 0b 00 00       	jmp    5345 <_ZN3PCI13GetDeviceCodeEhhh+0xff5>
    4755:	48 8d 05 74 15 01 00 	lea    0x11574(%rip),%rax        # 15cd0 <_ZL4font+0x1970>
    475c:	e9 e4 0b 00 00       	jmp    5345 <_ZN3PCI13GetDeviceCodeEhhh+0xff5>
    4761:	48 8d 05 89 15 01 00 	lea    0x11589(%rip),%rax        # 15cf1 <_ZL4font+0x1991>
    4768:	e9 d8 0b 00 00       	jmp    5345 <_ZN3PCI13GetDeviceCodeEhhh+0xff5>
    476d:	48 8d 05 95 15 01 00 	lea    0x11595(%rip),%rax        # 15d09 <_ZL4font+0x19a9>
    4774:	e9 cc 0b 00 00       	jmp    5345 <_ZN3PCI13GetDeviceCodeEhhh+0xff5>
    4779:	48 8d 05 a0 15 01 00 	lea    0x115a0(%rip),%rax        # 15d20 <_ZL4font+0x19c0>
    4780:	e9 c0 0b 00 00       	jmp    5345 <_ZN3PCI13GetDeviceCodeEhhh+0xff5>
    4785:	48 8d 05 ae 15 01 00 	lea    0x115ae(%rip),%rax        # 15d3a <_ZL4font+0x19da>
    478c:	e9 b4 0b 00 00       	jmp    5345 <_ZN3PCI13GetDeviceCodeEhhh+0xff5>
    4791:	0f b6 45 f0          	movzbl -0x10(%rbp),%eax
    4795:	3d 80 00 00 00       	cmp    $0x80,%eax
    479a:	74 56                	je     47f2 <_ZN3PCI13GetDeviceCodeEhhh+0x4a2>
    479c:	3d 80 00 00 00       	cmp    $0x80,%eax
    47a1:	7f 5b                	jg     47fe <_ZN3PCI13GetDeviceCodeEhhh+0x4ae>
    47a3:	83 f8 03             	cmp    $0x3,%eax
    47a6:	74 3e                	je     47e6 <_ZN3PCI13GetDeviceCodeEhhh+0x496>
    47a8:	83 f8 03             	cmp    $0x3,%eax
    47ab:	7f 51                	jg     47fe <_ZN3PCI13GetDeviceCodeEhhh+0x4ae>
    47ad:	83 f8 02             	cmp    $0x2,%eax
    47b0:	74 28                	je     47da <_ZN3PCI13GetDeviceCodeEhhh+0x48a>
    47b2:	83 f8 02             	cmp    $0x2,%eax
    47b5:	7f 47                	jg     47fe <_ZN3PCI13GetDeviceCodeEhhh+0x4ae>
    47b7:	85 c0                	test   %eax,%eax
    47b9:	74 07                	je     47c2 <_ZN3PCI13GetDeviceCodeEhhh+0x472>
    47bb:	83 f8 01             	cmp    $0x1,%eax
    47be:	74 0e                	je     47ce <_ZN3PCI13GetDeviceCodeEhhh+0x47e>
    47c0:	eb 3c                	jmp    47fe <_ZN3PCI13GetDeviceCodeEhhh+0x4ae>
    47c2:	48 8d 05 8d 15 01 00 	lea    0x1158d(%rip),%rax        # 15d56 <_ZL4font+0x19f6>
    47c9:	e9 77 0b 00 00       	jmp    5345 <_ZN3PCI13GetDeviceCodeEhhh+0xff5>
    47ce:	48 8d 05 9e 15 01 00 	lea    0x1159e(%rip),%rax        # 15d73 <_ZL4font+0x1a13>
    47d5:	e9 6b 0b 00 00       	jmp    5345 <_ZN3PCI13GetDeviceCodeEhhh+0xff5>
    47da:	48 8d 05 af 15 01 00 	lea    0x115af(%rip),%rax        # 15d90 <_ZL4font+0x1a30>
    47e1:	e9 5f 0b 00 00       	jmp    5345 <_ZN3PCI13GetDeviceCodeEhhh+0xff5>
    47e6:	48 8d 05 db 15 01 00 	lea    0x115db(%rip),%rax        # 15dc8 <_ZL4font+0x1a68>
    47ed:	e9 53 0b 00 00       	jmp    5345 <_ZN3PCI13GetDeviceCodeEhhh+0xff5>
    47f2:	48 8d 05 f3 15 01 00 	lea    0x115f3(%rip),%rax        # 15dec <_ZL4font+0x1a8c>
    47f9:	e9 47 0b 00 00       	jmp    5345 <_ZN3PCI13GetDeviceCodeEhhh+0xff5>
    47fe:	48 8d 05 0b 16 01 00 	lea    0x1160b(%rip),%rax        # 15e10 <_ZL4font+0x1ab0>
    4805:	e9 3b 0b 00 00       	jmp    5345 <_ZN3PCI13GetDeviceCodeEhhh+0xff5>
    480a:	0f b6 45 f0          	movzbl -0x10(%rbp),%eax
    480e:	3d 80 00 00 00       	cmp    $0x80,%eax
    4813:	74 2a                	je     483f <_ZN3PCI13GetDeviceCodeEhhh+0x4ef>
    4815:	3d 80 00 00 00       	cmp    $0x80,%eax
    481a:	7f 2f                	jg     484b <_ZN3PCI13GetDeviceCodeEhhh+0x4fb>
    481c:	85 c0                	test   %eax,%eax
    481e:	74 07                	je     4827 <_ZN3PCI13GetDeviceCodeEhhh+0x4d7>
    4820:	83 f8 01             	cmp    $0x1,%eax
    4823:	74 0e                	je     4833 <_ZN3PCI13GetDeviceCodeEhhh+0x4e3>
    4825:	eb 24                	jmp    484b <_ZN3PCI13GetDeviceCodeEhhh+0x4fb>
    4827:	48 8d 05 01 16 01 00 	lea    0x11601(%rip),%rax        # 15e2f <_ZL4font+0x1acf>
    482e:	e9 12 0b 00 00       	jmp    5345 <_ZN3PCI13GetDeviceCodeEhhh+0xff5>
    4833:	48 8d 05 0c 16 01 00 	lea    0x1160c(%rip),%rax        # 15e46 <_ZL4font+0x1ae6>
    483a:	e9 06 0b 00 00       	jmp    5345 <_ZN3PCI13GetDeviceCodeEhhh+0xff5>
    483f:	48 8d 05 19 16 01 00 	lea    0x11619(%rip),%rax        # 15e5f <_ZL4font+0x1aff>
    4846:	e9 fa 0a 00 00       	jmp    5345 <_ZN3PCI13GetDeviceCodeEhhh+0xff5>
    484b:	48 8d 05 26 16 01 00 	lea    0x11626(%rip),%rax        # 15e78 <_ZL4font+0x1b18>
    4852:	e9 ee 0a 00 00       	jmp    5345 <_ZN3PCI13GetDeviceCodeEhhh+0xff5>
    4857:	0f b6 45 f0          	movzbl -0x10(%rbp),%eax
    485b:	83 f8 0a             	cmp    $0xa,%eax
    485e:	7f 34                	jg     4894 <_ZN3PCI13GetDeviceCodeEhhh+0x544>
    4860:	85 c0                	test   %eax,%eax
    4862:	0f 88 44 01 00 00    	js     49ac <_ZN3PCI13GetDeviceCodeEhhh+0x65c>
    4868:	83 f8 0a             	cmp    $0xa,%eax
    486b:	0f 87 3b 01 00 00    	ja     49ac <_ZN3PCI13GetDeviceCodeEhhh+0x65c>
    4871:	89 c0                	mov    %eax,%eax
    4873:	48 8d 14 85 00 00 00 	lea    0x0(,%rax,4),%rdx
    487a:	00 
    487b:	48 8d 05 fe 2d 01 00 	lea    0x12dfe(%rip),%rax        # 17680 <_ZL4font+0x3320>
    4882:	8b 04 02             	mov    (%rdx,%rax,1),%eax
    4885:	48 98                	cltq
    4887:	48 8d 15 f2 2d 01 00 	lea    0x12df2(%rip),%rdx        # 17680 <_ZL4font+0x3320>
    488e:	48 01 d0             	add    %rdx,%rax
    4891:	3e ff e0             	notrack jmp *%rax
    4894:	3d 80 00 00 00       	cmp    $0x80,%eax
    4899:	0f 84 01 01 00 00    	je     49a0 <_ZN3PCI13GetDeviceCodeEhhh+0x650>
    489f:	e9 08 01 00 00       	jmp    49ac <_ZN3PCI13GetDeviceCodeEhhh+0x65c>
    48a4:	48 8d 05 e8 15 01 00 	lea    0x115e8(%rip),%rax        # 15e93 <_ZL4font+0x1b33>
    48ab:	e9 95 0a 00 00       	jmp    5345 <_ZN3PCI13GetDeviceCodeEhhh+0xff5>
    48b0:	48 8d 05 e9 15 01 00 	lea    0x115e9(%rip),%rax        # 15ea0 <_ZL4font+0x1b40>
    48b7:	e9 89 0a 00 00       	jmp    5345 <_ZN3PCI13GetDeviceCodeEhhh+0xff5>
    48bc:	48 8d 05 e9 15 01 00 	lea    0x115e9(%rip),%rax        # 15eac <_ZL4font+0x1b4c>
    48c3:	e9 7d 0a 00 00       	jmp    5345 <_ZN3PCI13GetDeviceCodeEhhh+0xff5>
    48c8:	48 8d 05 ea 15 01 00 	lea    0x115ea(%rip),%rax        # 15eb9 <_ZL4font+0x1b59>
    48cf:	e9 71 0a 00 00       	jmp    5345 <_ZN3PCI13GetDeviceCodeEhhh+0xff5>
    48d4:	0f b6 45 ec          	movzbl -0x14(%rbp),%eax
    48d8:	85 c0                	test   %eax,%eax
    48da:	74 07                	je     48e3 <_ZN3PCI13GetDeviceCodeEhhh+0x593>
    48dc:	83 f8 01             	cmp    $0x1,%eax
    48df:	74 0e                	je     48ef <_ZN3PCI13GetDeviceCodeEhhh+0x59f>
    48e1:	eb 18                	jmp    48fb <_ZN3PCI13GetDeviceCodeEhhh+0x5ab>
    48e3:	48 8d 05 de 15 01 00 	lea    0x115de(%rip),%rax        # 15ec8 <_ZL4font+0x1b68>
    48ea:	e9 56 0a 00 00       	jmp    5345 <_ZN3PCI13GetDeviceCodeEhhh+0xff5>
    48ef:	48 8d 05 fa 15 01 00 	lea    0x115fa(%rip),%rax        # 15ef0 <_ZL4font+0x1b90>
    48f6:	e9 4a 0a 00 00       	jmp    5345 <_ZN3PCI13GetDeviceCodeEhhh+0xff5>
    48fb:	48 8d 05 15 16 01 00 	lea    0x11615(%rip),%rax        # 15f17 <_ZL4font+0x1bb7>
    4902:	e9 3e 0a 00 00       	jmp    5345 <_ZN3PCI13GetDeviceCodeEhhh+0xff5>
    4907:	48 8d 05 25 16 01 00 	lea    0x11625(%rip),%rax        # 15f33 <_ZL4font+0x1bd3>
    490e:	e9 32 0a 00 00       	jmp    5345 <_ZN3PCI13GetDeviceCodeEhhh+0xff5>
    4913:	48 8d 05 28 16 01 00 	lea    0x11628(%rip),%rax        # 15f42 <_ZL4font+0x1be2>
    491a:	e9 26 0a 00 00       	jmp    5345 <_ZN3PCI13GetDeviceCodeEhhh+0xff5>
    491f:	48 8d 05 2a 16 01 00 	lea    0x1162a(%rip),%rax        # 15f50 <_ZL4font+0x1bf0>
    4926:	e9 1a 0a 00 00       	jmp    5345 <_ZN3PCI13GetDeviceCodeEhhh+0xff5>
    492b:	0f b6 45 ec          	movzbl -0x14(%rbp),%eax
    492f:	85 c0                	test   %eax,%eax
    4931:	74 07                	je     493a <_ZN3PCI13GetDeviceCodeEhhh+0x5ea>
    4933:	83 f8 01             	cmp    $0x1,%eax
    4936:	74 0e                	je     4946 <_ZN3PCI13GetDeviceCodeEhhh+0x5f6>
    4938:	eb 18                	jmp    4952 <_ZN3PCI13GetDeviceCodeEhhh+0x602>
    493a:	48 8d 05 1f 16 01 00 	lea    0x1161f(%rip),%rax        # 15f60 <_ZL4font+0x1c00>
    4941:	e9 ff 09 00 00       	jmp    5345 <_ZN3PCI13GetDeviceCodeEhhh+0xff5>
    4946:	48 8d 05 3b 16 01 00 	lea    0x1163b(%rip),%rax        # 15f88 <_ZL4font+0x1c28>
    494d:	e9 f3 09 00 00       	jmp    5345 <_ZN3PCI13GetDeviceCodeEhhh+0xff5>
    4952:	48 8d 05 4e 16 01 00 	lea    0x1164e(%rip),%rax        # 15fa7 <_ZL4font+0x1c47>
    4959:	e9 e7 09 00 00       	jmp    5345 <_ZN3PCI13GetDeviceCodeEhhh+0xff5>
    495e:	0f b6 45 ec          	movzbl -0x14(%rbp),%eax
    4962:	83 f8 40             	cmp    $0x40,%eax
    4965:	74 09                	je     4970 <_ZN3PCI13GetDeviceCodeEhhh+0x620>
    4967:	3d 80 00 00 00       	cmp    $0x80,%eax
    496c:	74 0e                	je     497c <_ZN3PCI13GetDeviceCodeEhhh+0x62c>
    496e:	eb 18                	jmp    4988 <_ZN3PCI13GetDeviceCodeEhhh+0x638>
    4970:	48 8d 05 49 16 01 00 	lea    0x11649(%rip),%rax        # 15fc0 <_ZL4font+0x1c60>
    4977:	e9 c9 09 00 00       	jmp    5345 <_ZN3PCI13GetDeviceCodeEhhh+0xff5>
    497c:	48 8d 05 75 16 01 00 	lea    0x11675(%rip),%rax        # 15ff8 <_ZL4font+0x1c98>
    4983:	e9 bd 09 00 00       	jmp    5345 <_ZN3PCI13GetDeviceCodeEhhh+0xff5>
    4988:	48 8d 05 88 15 01 00 	lea    0x11588(%rip),%rax        # 15f17 <_ZL4font+0x1bb7>
    498f:	e9 b1 09 00 00       	jmp    5345 <_ZN3PCI13GetDeviceCodeEhhh+0xff5>
    4994:	48 8d 05 95 16 01 00 	lea    0x11695(%rip),%rax        # 16030 <_ZL4font+0x1cd0>
    499b:	e9 a5 09 00 00       	jmp    5345 <_ZN3PCI13GetDeviceCodeEhhh+0xff5>
    49a0:	48 8d 05 a8 16 01 00 	lea    0x116a8(%rip),%rax        # 1604f <_ZL4font+0x1cef>
    49a7:	e9 99 09 00 00       	jmp    5345 <_ZN3PCI13GetDeviceCodeEhhh+0xff5>
    49ac:	48 8d 05 aa 16 01 00 	lea    0x116aa(%rip),%rax        # 1605d <_ZL4font+0x1cfd>
    49b3:	e9 8d 09 00 00       	jmp    5345 <_ZN3PCI13GetDeviceCodeEhhh+0xff5>
    49b8:	0f b6 45 f0          	movzbl -0x10(%rbp),%eax
    49bc:	83 f8 05             	cmp    $0x5,%eax
    49bf:	7f 34                	jg     49f5 <_ZN3PCI13GetDeviceCodeEhhh+0x6a5>
    49c1:	85 c0                	test   %eax,%eax
    49c3:	0f 88 e5 01 00 00    	js     4bae <_ZN3PCI13GetDeviceCodeEhhh+0x85e>
    49c9:	83 f8 05             	cmp    $0x5,%eax
    49cc:	0f 87 dc 01 00 00    	ja     4bae <_ZN3PCI13GetDeviceCodeEhhh+0x85e>
    49d2:	89 c0                	mov    %eax,%eax
    49d4:	48 8d 14 85 00 00 00 	lea    0x0(,%rax,4),%rdx
    49db:	00 
    49dc:	48 8d 05 c9 2c 01 00 	lea    0x12cc9(%rip),%rax        # 176ac <_ZL4font+0x334c>
    49e3:	8b 04 02             	mov    (%rdx,%rax,1),%eax
    49e6:	48 98                	cltq
    49e8:	48 8d 15 bd 2c 01 00 	lea    0x12cbd(%rip),%rdx        # 176ac <_ZL4font+0x334c>
    49ef:	48 01 d0             	add    %rdx,%rax
    49f2:	3e ff e0             	notrack jmp *%rax
    49f5:	3d 80 00 00 00       	cmp    $0x80,%eax
    49fa:	0f 84 a2 01 00 00    	je     4ba2 <_ZN3PCI13GetDeviceCodeEhhh+0x852>
    4a00:	e9 a9 01 00 00       	jmp    4bae <_ZN3PCI13GetDeviceCodeEhhh+0x85e>
    4a05:	0f b6 45 ec          	movzbl -0x14(%rbp),%eax
    4a09:	83 f8 06             	cmp    $0x6,%eax
    4a0c:	77 77                	ja     4a85 <_ZN3PCI13GetDeviceCodeEhhh+0x735>
    4a0e:	89 c0                	mov    %eax,%eax
    4a10:	48 8d 14 85 00 00 00 	lea    0x0(,%rax,4),%rdx
    4a17:	00 
    4a18:	48 8d 05 a5 2c 01 00 	lea    0x12ca5(%rip),%rax        # 176c4 <_ZL4font+0x3364>
    4a1f:	8b 04 02             	mov    (%rdx,%rax,1),%eax
    4a22:	48 98                	cltq
    4a24:	48 8d 15 99 2c 01 00 	lea    0x12c99(%rip),%rdx        # 176c4 <_ZL4font+0x3364>
    4a2b:	48 01 d0             	add    %rdx,%rax
    4a2e:	3e ff e0             	notrack jmp *%rax
    4a31:	48 8d 05 38 16 01 00 	lea    0x11638(%rip),%rax        # 16070 <_ZL4font+0x1d10>
    4a38:	e9 08 09 00 00       	jmp    5345 <_ZN3PCI13GetDeviceCodeEhhh+0xff5>
    4a3d:	48 8d 05 6c 16 01 00 	lea    0x1166c(%rip),%rax        # 160b0 <_ZL4font+0x1d50>
    4a44:	e9 fc 08 00 00       	jmp    5345 <_ZN3PCI13GetDeviceCodeEhhh+0xff5>
    4a49:	48 8d 05 a0 16 01 00 	lea    0x116a0(%rip),%rax        # 160f0 <_ZL4font+0x1d90>
    4a50:	e9 f0 08 00 00       	jmp    5345 <_ZN3PCI13GetDeviceCodeEhhh+0xff5>
    4a55:	48 8d 05 d4 16 01 00 	lea    0x116d4(%rip),%rax        # 16130 <_ZL4font+0x1dd0>
    4a5c:	e9 e4 08 00 00       	jmp    5345 <_ZN3PCI13GetDeviceCodeEhhh+0xff5>
    4a61:	48 8d 05 08 17 01 00 	lea    0x11708(%rip),%rax        # 16170 <_ZL4font+0x1e10>
    4a68:	e9 d8 08 00 00       	jmp    5345 <_ZN3PCI13GetDeviceCodeEhhh+0xff5>
    4a6d:	48 8d 05 3c 17 01 00 	lea    0x1173c(%rip),%rax        # 161b0 <_ZL4font+0x1e50>
    4a74:	e9 cc 08 00 00       	jmp    5345 <_ZN3PCI13GetDeviceCodeEhhh+0xff5>
    4a79:	48 8d 05 70 17 01 00 	lea    0x11770(%rip),%rax        # 161f0 <_ZL4font+0x1e90>
    4a80:	e9 c0 08 00 00       	jmp    5345 <_ZN3PCI13GetDeviceCodeEhhh+0xff5>
    4a85:	48 8d 05 a4 17 01 00 	lea    0x117a4(%rip),%rax        # 16230 <_ZL4font+0x1ed0>
    4a8c:	e9 b4 08 00 00       	jmp    5345 <_ZN3PCI13GetDeviceCodeEhhh+0xff5>
    4a91:	0f b6 45 ec          	movzbl -0x14(%rbp),%eax
    4a95:	3d fe 00 00 00       	cmp    $0xfe,%eax
    4a9a:	74 56                	je     4af2 <_ZN3PCI13GetDeviceCodeEhhh+0x7a2>
    4a9c:	3d fe 00 00 00       	cmp    $0xfe,%eax
    4aa1:	7f 5b                	jg     4afe <_ZN3PCI13GetDeviceCodeEhhh+0x7ae>
    4aa3:	83 f8 03             	cmp    $0x3,%eax
    4aa6:	74 3e                	je     4ae6 <_ZN3PCI13GetDeviceCodeEhhh+0x796>
    4aa8:	83 f8 03             	cmp    $0x3,%eax
    4aab:	7f 51                	jg     4afe <_ZN3PCI13GetDeviceCodeEhhh+0x7ae>
    4aad:	83 f8 02             	cmp    $0x2,%eax
    4ab0:	74 28                	je     4ada <_ZN3PCI13GetDeviceCodeEhhh+0x78a>
    4ab2:	83 f8 02             	cmp    $0x2,%eax
    4ab5:	7f 47                	jg     4afe <_ZN3PCI13GetDeviceCodeEhhh+0x7ae>
    4ab7:	85 c0                	test   %eax,%eax
    4ab9:	74 07                	je     4ac2 <_ZN3PCI13GetDeviceCodeEhhh+0x772>
    4abb:	83 f8 01             	cmp    $0x1,%eax
    4abe:	74 0e                	je     4ace <_ZN3PCI13GetDeviceCodeEhhh+0x77e>
    4ac0:	eb 3c                	jmp    4afe <_ZN3PCI13GetDeviceCodeEhhh+0x7ae>
    4ac2:	48 8d 05 9f 17 01 00 	lea    0x1179f(%rip),%rax        # 16268 <_ZL4font+0x1f08>
    4ac9:	e9 77 08 00 00       	jmp    5345 <_ZN3PCI13GetDeviceCodeEhhh+0xff5>
    4ace:	48 8d 05 cb 17 01 00 	lea    0x117cb(%rip),%rax        # 162a0 <_ZL4font+0x1f40>
    4ad5:	e9 6b 08 00 00       	jmp    5345 <_ZN3PCI13GetDeviceCodeEhhh+0xff5>
    4ada:	48 8d 05 ff 17 01 00 	lea    0x117ff(%rip),%rax        # 162e0 <_ZL4font+0x1f80>
    4ae1:	e9 5f 08 00 00       	jmp    5345 <_ZN3PCI13GetDeviceCodeEhhh+0xff5>
    4ae6:	48 8d 05 33 18 01 00 	lea    0x11833(%rip),%rax        # 16320 <_ZL4font+0x1fc0>
    4aed:	e9 53 08 00 00       	jmp    5345 <_ZN3PCI13GetDeviceCodeEhhh+0xff5>
    4af2:	48 8d 05 67 18 01 00 	lea    0x11867(%rip),%rax        # 16360 <_ZL4font+0x2000>
    4af9:	e9 47 08 00 00       	jmp    5345 <_ZN3PCI13GetDeviceCodeEhhh+0xff5>
    4afe:	48 8d 05 a3 18 01 00 	lea    0x118a3(%rip),%rax        # 163a8 <_ZL4font+0x2048>
    4b05:	e9 3b 08 00 00       	jmp    5345 <_ZN3PCI13GetDeviceCodeEhhh+0xff5>
    4b0a:	48 8d 05 cf 18 01 00 	lea    0x118cf(%rip),%rax        # 163e0 <_ZL4font+0x2080>
    4b11:	e9 2f 08 00 00       	jmp    5345 <_ZN3PCI13GetDeviceCodeEhhh+0xff5>
    4b16:	0f b6 45 ec          	movzbl -0x14(%rbp),%eax
    4b1a:	83 f8 04             	cmp    $0x4,%eax
    4b1d:	77 5f                	ja     4b7e <_ZN3PCI13GetDeviceCodeEhhh+0x82e>
    4b1f:	89 c0                	mov    %eax,%eax
    4b21:	48 8d 14 85 00 00 00 	lea    0x0(,%rax,4),%rdx
    4b28:	00 
    4b29:	48 8d 05 b0 2b 01 00 	lea    0x12bb0(%rip),%rax        # 176e0 <_ZL4font+0x3380>
    4b30:	8b 04 02             	mov    (%rdx,%rax,1),%eax
    4b33:	48 98                	cltq
    4b35:	48 8d 15 a4 2b 01 00 	lea    0x12ba4(%rip),%rdx        # 176e0 <_ZL4font+0x3380>
    4b3c:	48 01 d0             	add    %rdx,%rax
    4b3f:	3e ff e0             	notrack jmp *%rax
    4b42:	48 8d 05 cf 18 01 00 	lea    0x118cf(%rip),%rax        # 16418 <_ZL4font+0x20b8>
    4b49:	e9 f7 07 00 00       	jmp    5345 <_ZN3PCI13GetDeviceCodeEhhh+0xff5>
    4b4e:	48 8d 05 f3 18 01 00 	lea    0x118f3(%rip),%rax        # 16448 <_ZL4font+0x20e8>
    4b55:	e9 eb 07 00 00       	jmp    5345 <_ZN3PCI13GetDeviceCodeEhhh+0xff5>
    4b5a:	48 8d 05 27 19 01 00 	lea    0x11927(%rip),%rax        # 16488 <_ZL4font+0x2128>
    4b61:	e9 df 07 00 00       	jmp    5345 <_ZN3PCI13GetDeviceCodeEhhh+0xff5>
    4b66:	48 8d 05 5b 19 01 00 	lea    0x1195b(%rip),%rax        # 164c8 <_ZL4font+0x2168>
    4b6d:	e9 d3 07 00 00       	jmp    5345 <_ZN3PCI13GetDeviceCodeEhhh+0xff5>
    4b72:	48 8d 05 8f 19 01 00 	lea    0x1198f(%rip),%rax        # 16508 <_ZL4font+0x21a8>
    4b79:	e9 c7 07 00 00       	jmp    5345 <_ZN3PCI13GetDeviceCodeEhhh+0xff5>
    4b7e:	48 8d 05 c3 19 01 00 	lea    0x119c3(%rip),%rax        # 16548 <_ZL4font+0x21e8>
    4b85:	e9 bb 07 00 00       	jmp    5345 <_ZN3PCI13GetDeviceCodeEhhh+0xff5>
    4b8a:	48 8d 05 e7 19 01 00 	lea    0x119e7(%rip),%rax        # 16578 <_ZL4font+0x2218>
    4b91:	e9 af 07 00 00       	jmp    5345 <_ZN3PCI13GetDeviceCodeEhhh+0xff5>
    4b96:	48 8d 05 03 1a 01 00 	lea    0x11a03(%rip),%rax        # 165a0 <_ZL4font+0x2240>
    4b9d:	e9 a3 07 00 00       	jmp    5345 <_ZN3PCI13GetDeviceCodeEhhh+0xff5>
    4ba2:	48 8d 05 27 1a 01 00 	lea    0x11a27(%rip),%rax        # 165d0 <_ZL4font+0x2270>
    4ba9:	e9 97 07 00 00       	jmp    5345 <_ZN3PCI13GetDeviceCodeEhhh+0xff5>
    4bae:	48 8d 05 43 1a 01 00 	lea    0x11a43(%rip),%rax        # 165f8 <_ZL4font+0x2298>
    4bb5:	e9 8b 07 00 00       	jmp    5345 <_ZN3PCI13GetDeviceCodeEhhh+0xff5>
    4bba:	0f b6 45 f0          	movzbl -0x10(%rbp),%eax
    4bbe:	83 f8 06             	cmp    $0x6,%eax
    4bc1:	7f 34                	jg     4bf7 <_ZN3PCI13GetDeviceCodeEhhh+0x8a7>
    4bc3:	85 c0                	test   %eax,%eax
    4bc5:	0f 88 bb 01 00 00    	js     4d86 <_ZN3PCI13GetDeviceCodeEhhh+0xa36>
    4bcb:	83 f8 06             	cmp    $0x6,%eax
    4bce:	0f 87 b2 01 00 00    	ja     4d86 <_ZN3PCI13GetDeviceCodeEhhh+0xa36>
    4bd4:	89 c0                	mov    %eax,%eax
    4bd6:	48 8d 14 85 00 00 00 	lea    0x0(,%rax,4),%rdx
    4bdd:	00 
    4bde:	48 8d 05 0f 2b 01 00 	lea    0x12b0f(%rip),%rax        # 176f4 <_ZL4font+0x3394>
    4be5:	8b 04 02             	mov    (%rdx,%rax,1),%eax
    4be8:	48 98                	cltq
    4bea:	48 8d 15 03 2b 01 00 	lea    0x12b03(%rip),%rdx        # 176f4 <_ZL4font+0x3394>
    4bf1:	48 01 d0             	add    %rdx,%rax
    4bf4:	3e ff e0             	notrack jmp *%rax
    4bf7:	3d 80 00 00 00       	cmp    $0x80,%eax
    4bfc:	0f 84 78 01 00 00    	je     4d7a <_ZN3PCI13GetDeviceCodeEhhh+0xa2a>
    4c02:	e9 7f 01 00 00       	jmp    4d86 <_ZN3PCI13GetDeviceCodeEhhh+0xa36>
    4c07:	0f b6 45 ec          	movzbl -0x14(%rbp),%eax
    4c0b:	83 f8 20             	cmp    $0x20,%eax
    4c0e:	77 5f                	ja     4c6f <_ZN3PCI13GetDeviceCodeEhhh+0x91f>
    4c10:	89 c0                	mov    %eax,%eax
    4c12:	48 8d 14 85 00 00 00 	lea    0x0(,%rax,4),%rdx
    4c19:	00 
    4c1a:	48 8d 05 ef 2a 01 00 	lea    0x12aef(%rip),%rax        # 17710 <_ZL4font+0x33b0>
    4c21:	8b 04 02             	mov    (%rdx,%rax,1),%eax
