
kernel.elf:     file format elf64-x86-64


Disassembly of section .text:

0000000000001000 <strncmp>:
    1000:	f3 0f 1e fa          	endbr64
    1004:	55                   	push   %rbp
    1005:	48 89 e5             	mov    %rsp,%rbp
    1008:	48 89 7d e8          	mov    %rdi,-0x18(%rbp)
    100c:	48 89 75 e0          	mov    %rsi,-0x20(%rbp)
    1010:	48 89 55 d8          	mov    %rdx,-0x28(%rbp)
    1014:	48 c7 45 f8 00 00 00 	movq   $0x0,-0x8(%rbp)
    101b:	00 
    101c:	eb 64                	jmp    1082 <strncmp+0x82>
    101e:	48 8b 55 e8          	mov    -0x18(%rbp),%rdx
    1022:	48 8b 45 f8          	mov    -0x8(%rbp),%rax
    1026:	48 01 d0             	add    %rdx,%rax
    1029:	0f b6 10             	movzbl (%rax),%edx
    102c:	48 8b 4d e0          	mov    -0x20(%rbp),%rcx
    1030:	48 8b 45 f8          	mov    -0x8(%rbp),%rax
    1034:	48 01 c8             	add    %rcx,%rax
    1037:	0f b6 00             	movzbl (%rax),%eax
    103a:	38 c2                	cmp    %al,%dl
    103c:	74 26                	je     1064 <strncmp+0x64>
    103e:	48 8b 55 e8          	mov    -0x18(%rbp),%rdx
    1042:	48 8b 45 f8          	mov    -0x8(%rbp),%rax
    1046:	48 01 d0             	add    %rdx,%rax
    1049:	0f b6 00             	movzbl (%rax),%eax
    104c:	0f b6 c0             	movzbl %al,%eax
    104f:	48 8b 4d e0          	mov    -0x20(%rbp),%rcx
    1053:	48 8b 55 f8          	mov    -0x8(%rbp),%rdx
    1057:	48 01 ca             	add    %rcx,%rdx
    105a:	0f b6 12             	movzbl (%rdx),%edx
    105d:	0f b6 d2             	movzbl %dl,%edx
    1060:	29 d0                	sub    %edx,%eax
    1062:	eb 2d                	jmp    1091 <strncmp+0x91>
    1064:	48 8b 55 e8          	mov    -0x18(%rbp),%rdx
    1068:	48 8b 45 f8          	mov    -0x8(%rbp),%rax
    106c:	48 01 d0             	add    %rdx,%rax
    106f:	0f b6 00             	movzbl (%rax),%eax
    1072:	84 c0                	test   %al,%al
    1074:	75 07                	jne    107d <strncmp+0x7d>
    1076:	b8 00 00 00 00       	mov    $0x0,%eax
    107b:	eb 14                	jmp    1091 <strncmp+0x91>
    107d:	48 83 45 f8 01       	addq   $0x1,-0x8(%rbp)
    1082:	48 8b 45 f8          	mov    -0x8(%rbp),%rax
    1086:	48 3b 45 d8          	cmp    -0x28(%rbp),%rax
    108a:	72 92                	jb     101e <strncmp+0x1e>
    108c:	b8 00 00 00 00       	mov    $0x0,%eax
    1091:	5d                   	pop    %rbp
    1092:	c3                   	ret

0000000000001093 <memcpy>:
    1093:	f3 0f 1e fa          	endbr64
    1097:	55                   	push   %rbp
    1098:	48 89 e5             	mov    %rsp,%rbp
    109b:	48 89 7d d8          	mov    %rdi,-0x28(%rbp)
    109f:	48 89 75 d0          	mov    %rsi,-0x30(%rbp)
    10a3:	48 89 55 c8          	mov    %rdx,-0x38(%rbp)
    10a7:	48 8b 45 d8          	mov    -0x28(%rbp),%rax
    10ab:	48 89 45 f0          	mov    %rax,-0x10(%rbp)
    10af:	48 8b 45 d0          	mov    -0x30(%rbp),%rax
    10b3:	48 89 45 e8          	mov    %rax,-0x18(%rbp)
    10b7:	48 c7 45 f8 00 00 00 	movq   $0x0,-0x8(%rbp)
    10be:	00 
    10bf:	eb 20                	jmp    10e1 <memcpy+0x4e>
    10c1:	48 8b 55 e8          	mov    -0x18(%rbp),%rdx
    10c5:	48 8b 45 f8          	mov    -0x8(%rbp),%rax
    10c9:	48 01 d0             	add    %rdx,%rax
    10cc:	48 8b 4d f0          	mov    -0x10(%rbp),%rcx
    10d0:	48 8b 55 f8          	mov    -0x8(%rbp),%rdx
    10d4:	48 01 ca             	add    %rcx,%rdx
    10d7:	0f b6 00             	movzbl (%rax),%eax
    10da:	88 02                	mov    %al,(%rdx)
    10dc:	48 83 45 f8 01       	addq   $0x1,-0x8(%rbp)
    10e1:	48 8b 45 f8          	mov    -0x8(%rbp),%rax
    10e5:	48 3b 45 c8          	cmp    -0x38(%rbp),%rax
    10e9:	72 d6                	jb     10c1 <memcpy+0x2e>
    10eb:	48 8b 45 d8          	mov    -0x28(%rbp),%rax
    10ef:	5d                   	pop    %rbp
    10f0:	c3                   	ret

00000000000010f1 <_Z15ReadUnaligned64Ph>:
    10f1:	f3 0f 1e fa          	endbr64
    10f5:	55                   	push   %rbp
    10f6:	48 89 e5             	mov    %rsp,%rbp
    10f9:	48 83 ec 18          	sub    $0x18,%rsp
    10fd:	48 89 7d e8          	mov    %rdi,-0x18(%rbp)
    1101:	48 8b 4d e8          	mov    -0x18(%rbp),%rcx
    1105:	48 8d 45 f8          	lea    -0x8(%rbp),%rax
    1109:	ba 08 00 00 00       	mov    $0x8,%edx
    110e:	48 89 ce             	mov    %rcx,%rsi
    1111:	48 89 c7             	mov    %rax,%rdi
    1114:	e8 7a ff ff ff       	call   1093 <memcpy>
    1119:	48 8b 45 f8          	mov    -0x8(%rbp),%rax
    111d:	c9                   	leave
    111e:	c3                   	ret
    111f:	90                   	nop

0000000000001120 <_ZN4ACPI10InitializeEP12BasicConsolePv>:
    1120:	f3 0f 1e fa          	endbr64
    1124:	55                   	push   %rbp
    1125:	48 89 e5             	mov    %rsp,%rbp
    1128:	53                   	push   %rbx
    1129:	48 83 ec 38          	sub    $0x38,%rsp
    112d:	48 89 7d d8          	mov    %rdi,-0x28(%rbp)
    1131:	48 89 75 d0          	mov    %rsi,-0x30(%rbp)
    1135:	48 89 55 c8          	mov    %rdx,-0x38(%rbp)
    1139:	48 8b 45 d8          	mov    -0x28(%rbp),%rax
    113d:	48 8b 55 d0          	mov    -0x30(%rbp),%rdx
    1141:	48 89 50 10          	mov    %rdx,0x10(%rax)
    1145:	48 8b 45 c8          	mov    -0x38(%rbp),%rax
    1149:	48 89 45 e8          	mov    %rax,-0x18(%rbp)
    114d:	48 8b 45 d8          	mov    -0x28(%rbp),%rax
    1151:	48 8b 40 10          	mov    0x10(%rax),%rax
    1155:	ba ff ff ff ff       	mov    $0xffffffff,%edx
    115a:	48 8d 0d 9f be 00 00 	lea    0xbe9f(%rip),%rcx        # d000 <_ZL4font+0x1000>
    1161:	48 89 ce             	mov    %rcx,%rsi
    1164:	48 89 c7             	mov    %rax,%rdi
    1167:	e8 02 14 00 00       	call   256e <_ZN12BasicConsole5PrintEPKcj>
    116c:	48 8b 45 d8          	mov    -0x28(%rbp),%rax
    1170:	48 8b 58 10          	mov    0x10(%rax),%rbx
    1174:	48 8b 45 e8          	mov    -0x18(%rbp),%rax
    1178:	48 89 c7             	mov    %rax,%rdi
    117b:	e8 b4 94 00 00       	call   a634 <_Z10to_hstringm>
    1180:	ba ff ff ff ff       	mov    $0xffffffff,%edx
    1185:	48 89 c6             	mov    %rax,%rsi
    1188:	48 89 df             	mov    %rbx,%rdi
    118b:	e8 aa 14 00 00       	call   263a <_ZN12BasicConsole7PrintlnEPKcj>
    1190:	48 8b 45 d8          	mov    -0x28(%rbp),%rax
    1194:	48 8b 40 10          	mov    0x10(%rax),%rax
    1198:	ba ff ff ff ff       	mov    $0xffffffff,%edx
    119d:	48 8d 0d 68 be 00 00 	lea    0xbe68(%rip),%rcx        # d00c <_ZL4font+0x100c>
    11a4:	48 89 ce             	mov    %rcx,%rsi
    11a7:	48 89 c7             	mov    %rax,%rdi
    11aa:	e8 bf 13 00 00       	call   256e <_ZN12BasicConsole5PrintEPKcj>
    11af:	48 8b 45 d8          	mov    -0x28(%rbp),%rax
    11b3:	48 8b 40 10          	mov    0x10(%rax),%rax
    11b7:	48 8b 4d e8          	mov    -0x18(%rbp),%rcx
    11bb:	ba ff ff ff ff       	mov    $0xffffffff,%edx
    11c0:	48 89 ce             	mov    %rcx,%rsi
    11c3:	48 89 c7             	mov    %rax,%rdi
    11c6:	e8 6f 14 00 00       	call   263a <_ZN12BasicConsole7PrintlnEPKcj>
    11cb:	48 8b 45 d8          	mov    -0x28(%rbp),%rax
    11cf:	48 8b 40 10          	mov    0x10(%rax),%rax
    11d3:	ba ff ff ff ff       	mov    $0xffffffff,%edx
    11d8:	48 8d 0d 3e be 00 00 	lea    0xbe3e(%rip),%rcx        # d01d <_ZL4font+0x101d>
    11df:	48 89 ce             	mov    %rcx,%rsi
    11e2:	48 89 c7             	mov    %rax,%rdi
    11e5:	e8 84 13 00 00       	call   256e <_ZN12BasicConsole5PrintEPKcj>
    11ea:	48 8b 45 d8          	mov    -0x28(%rbp),%rax
    11ee:	48 8b 40 10          	mov    0x10(%rax),%rax
    11f2:	48 8b 55 e8          	mov    -0x18(%rbp),%rdx
    11f6:	48 8d 4a 09          	lea    0x9(%rdx),%rcx
    11fa:	ba ff ff ff ff       	mov    $0xffffffff,%edx
    11ff:	48 89 ce             	mov    %rcx,%rsi
    1202:	48 89 c7             	mov    %rax,%rdi
    1205:	e8 30 14 00 00       	call   263a <_ZN12BasicConsole7PrintlnEPKcj>
    120a:	48 8b 45 d8          	mov    -0x28(%rbp),%rax
    120e:	48 8b 40 10          	mov    0x10(%rax),%rax
    1212:	ba ff ff ff ff       	mov    $0xffffffff,%edx
    1217:	48 8d 0d 0d be 00 00 	lea    0xbe0d(%rip),%rcx        # d02b <_ZL4font+0x102b>
    121e:	48 89 ce             	mov    %rcx,%rsi
    1221:	48 89 c7             	mov    %rax,%rdi
    1224:	e8 45 13 00 00       	call   256e <_ZN12BasicConsole5PrintEPKcj>
    1229:	48 8b 45 d8          	mov    -0x28(%rbp),%rax
    122d:	48 8b 58 10          	mov    0x10(%rax),%rbx
    1231:	48 8b 45 e8          	mov    -0x18(%rbp),%rax
    1235:	0f b6 40 0f          	movzbl 0xf(%rax),%eax
    1239:	0f b6 c0             	movzbl %al,%eax
    123c:	89 c7                	mov    %eax,%edi
    123e:	e8 54 95 00 00       	call   a797 <_Z10to_hstringh>
    1243:	ba ff ff ff ff       	mov    $0xffffffff,%edx
    1248:	48 89 c6             	mov    %rax,%rsi
    124b:	48 89 df             	mov    %rbx,%rdi
    124e:	e8 e7 13 00 00       	call   263a <_ZN12BasicConsole7PrintlnEPKcj>
    1253:	48 8b 45 e8          	mov    -0x18(%rbp),%rax
    1257:	0f b6 40 0f          	movzbl 0xf(%rax),%eax
    125b:	84 c0                	test   %al,%al
    125d:	75 43                	jne    12a2 <_ZN4ACPI10InitializeEP12BasicConsolePv+0x182>
    125f:	48 8b 45 d8          	mov    -0x28(%rbp),%rax
    1263:	c6 40 18 01          	movb   $0x1,0x18(%rax)
    1267:	48 8b 45 d8          	mov    -0x28(%rbp),%rax
    126b:	48 8b 55 e8          	mov    -0x18(%rbp),%rdx
    126f:	48 89 10             	mov    %rdx,(%rax)
    1272:	48 8b 45 d8          	mov    -0x28(%rbp),%rax
    1276:	48 c7 40 08 00 00 00 	movq   $0x0,0x8(%rax)
    127d:	00 
    127e:	48 8b 45 d8          	mov    -0x28(%rbp),%rax
    1282:	48 8b 40 10          	mov    0x10(%rax),%rax
    1286:	ba ff ff ff ff       	mov    $0xffffffff,%edx
    128b:	48 8d 0d ae bd 00 00 	lea    0xbdae(%rip),%rcx        # d040 <_ZL4font+0x1040>
    1292:	48 89 ce             	mov    %rcx,%rsi
    1295:	48 89 c7             	mov    %rax,%rdi
    1298:	e8 9d 13 00 00       	call   263a <_ZN12BasicConsole7PrintlnEPKcj>
    129d:	e9 9c 02 00 00       	jmp    153e <_ZN4ACPI10InitializeEP12BasicConsolePv+0x41e>
    12a2:	48 8b 45 e8          	mov    -0x18(%rbp),%rax
    12a6:	0f b6 40 0f          	movzbl 0xf(%rax),%eax
    12aa:	3c 01                	cmp    $0x1,%al
    12ac:	0f 86 4d 02 00 00    	jbe    14ff <_ZN4ACPI10InitializeEP12BasicConsolePv+0x3df>
    12b2:	48 8b 45 d8          	mov    -0x28(%rbp),%rax
    12b6:	c6 40 18 00          	movb   $0x0,0x18(%rax)
    12ba:	48 8b 45 d8          	mov    -0x28(%rbp),%rax
    12be:	48 8b 55 c8          	mov    -0x38(%rbp),%rdx
    12c2:	48 89 50 08          	mov    %rdx,0x8(%rax)
    12c6:	48 8b 45 d8          	mov    -0x28(%rbp),%rax
    12ca:	48 8b 55 e8          	mov    -0x18(%rbp),%rdx
    12ce:	48 89 10             	mov    %rdx,(%rax)
    12d1:	48 8b 45 d8          	mov    -0x28(%rbp),%rax
    12d5:	48 8b 40 10          	mov    0x10(%rax),%rax
    12d9:	ba ff ff ff ff       	mov    $0xffffffff,%edx
    12de:	48 8d 0d 98 bd 00 00 	lea    0xbd98(%rip),%rcx        # d07d <_ZL4font+0x107d>
    12e5:	48 89 ce             	mov    %rcx,%rsi
    12e8:	48 89 c7             	mov    %rax,%rdi
    12eb:	e8 7e 12 00 00       	call   256e <_ZN12BasicConsole5PrintEPKcj>
    12f0:	48 8b 45 d8          	mov    -0x28(%rbp),%rax
    12f4:	48 8b 58 10          	mov    0x10(%rax),%rbx
    12f8:	48 8b 45 d8          	mov    -0x28(%rbp),%rax
    12fc:	48 8b 40 08          	mov    0x8(%rax),%rax
    1300:	48 8b 40 18          	mov    0x18(%rax),%rax
    1304:	48 ba 00 00 00 00 ff 	movabs $0xffffffff00000000,%rdx
    130b:	ff ff ff 
    130e:	48 01 d0             	add    %rdx,%rax
    1311:	48 89 c7             	mov    %rax,%rdi
    1314:	e8 1b 93 00 00       	call   a634 <_Z10to_hstringm>
    1319:	ba ff ff ff ff       	mov    $0xffffffff,%edx
    131e:	48 89 c6             	mov    %rax,%rsi
    1321:	48 89 df             	mov    %rbx,%rdi
    1324:	e8 11 13 00 00       	call   263a <_ZN12BasicConsole7PrintlnEPKcj>
    1329:	48 8b 05 d0 55 02 00 	mov    0x255d0(%rip),%rax        # 26900 <ks>
    1330:	48 83 e8 80          	sub    $0xffffffffffffff80,%rax
    1334:	48 8b 55 d8          	mov    -0x28(%rbp),%rdx
    1338:	48 8b 52 08          	mov    0x8(%rdx),%rdx
    133c:	48 8b 52 18          	mov    0x18(%rdx),%rdx
    1340:	48 89 d7             	mov    %rdx,%rdi
    1343:	48 8b 55 d8          	mov    -0x28(%rbp),%rdx
    1347:	48 8b 52 08          	mov    0x8(%rdx),%rdx
    134b:	48 8b 52 18          	mov    0x18(%rdx),%rdx
    134f:	48 b9 00 00 00 00 ff 	movabs $0xffffffff00000000,%rcx
    1356:	ff ff ff 
    1359:	48 01 ca             	add    %rcx,%rdx
    135c:	48 89 d6             	mov    %rdx,%rsi
    135f:	b9 00 00 00 00       	mov    $0x0,%ecx
    1364:	48 89 fa             	mov    %rdi,%rdx
    1367:	48 89 c7             	mov    %rax,%rdi
    136a:	e8 f9 7f 00 00       	call   9368 <_ZN16PageTableManager9MapMemoryEPvS0_b>
    136f:	48 8b 45 d8          	mov    -0x28(%rbp),%rax
    1373:	48 8b 40 08          	mov    0x8(%rax),%rax
    1377:	48 8b 40 18          	mov    0x18(%rax),%rax
    137b:	48 ba 00 00 00 00 ff 	movabs $0xffffffff00000000,%rdx
    1382:	ff ff ff 
    1385:	48 01 d0             	add    %rdx,%rax
    1388:	48 89 c2             	mov    %rax,%rdx
    138b:	48 8b 45 d8          	mov    -0x28(%rbp),%rax
    138f:	48 89 50 20          	mov    %rdx,0x20(%rax)
    1393:	48 8b 45 d8          	mov    -0x28(%rbp),%rax
    1397:	48 8b 40 10          	mov    0x10(%rax),%rax
    139b:	ba ff ff ff ff       	mov    $0xffffffff,%edx
    13a0:	48 8d 0d e7 bc 00 00 	lea    0xbce7(%rip),%rcx        # d08e <_ZL4font+0x108e>
    13a7:	48 89 ce             	mov    %rcx,%rsi
    13aa:	48 89 c7             	mov    %rax,%rdi
    13ad:	e8 bc 11 00 00       	call   256e <_ZN12BasicConsole5PrintEPKcj>
    13b2:	48 8b 45 d8          	mov    -0x28(%rbp),%rax
    13b6:	48 8b 58 10          	mov    0x10(%rax),%rbx
    13ba:	48 8b 45 d8          	mov    -0x28(%rbp),%rax
    13be:	48 8b 40 20          	mov    0x20(%rax),%rax
    13c2:	8b 40 04             	mov    0x4(%rax),%eax
    13c5:	89 c7                	mov    %eax,%edi
    13c7:	e8 df 92 00 00       	call   a6ab <_Z10to_hstringj>
    13cc:	ba ff ff ff ff       	mov    $0xffffffff,%edx
    13d1:	48 89 c6             	mov    %rax,%rsi
    13d4:	48 89 df             	mov    %rbx,%rdi
    13d7:	e8 5e 12 00 00       	call   263a <_ZN12BasicConsole7PrintlnEPKcj>
    13dc:	48 8b 45 d8          	mov    -0x28(%rbp),%rax
    13e0:	48 8b 40 10          	mov    0x10(%rax),%rax
    13e4:	ba ff ff ff ff       	mov    $0xffffffff,%edx
    13e9:	48 8d 0d ac bc 00 00 	lea    0xbcac(%rip),%rcx        # d09c <_ZL4font+0x109c>
    13f0:	48 89 ce             	mov    %rcx,%rsi
    13f3:	48 89 c7             	mov    %rax,%rdi
    13f6:	e8 73 11 00 00       	call   256e <_ZN12BasicConsole5PrintEPKcj>
    13fb:	48 8b 45 d8          	mov    -0x28(%rbp),%rax
    13ff:	48 8b 40 10          	mov    0x10(%rax),%rax
    1403:	48 8b 55 d8          	mov    -0x28(%rbp),%rdx
    1407:	48 8b 52 20          	mov    0x20(%rdx),%rdx
    140b:	48 89 d1             	mov    %rdx,%rcx
    140e:	ba ff ff ff ff       	mov    $0xffffffff,%edx
    1413:	48 89 ce             	mov    %rcx,%rsi
    1416:	48 89 c7             	mov    %rax,%rdi
    1419:	e8 1c 12 00 00       	call   263a <_ZN12BasicConsole7PrintlnEPKcj>
    141e:	48 8b 45 d8          	mov    -0x28(%rbp),%rax
    1422:	48 8b 40 10          	mov    0x10(%rax),%rax
    1426:	ba ff ff ff ff       	mov    $0xffffffff,%edx
    142b:	48 8d 0d 7b bc 00 00 	lea    0xbc7b(%rip),%rcx        # d0ad <_ZL4font+0x10ad>
    1432:	48 89 ce             	mov    %rcx,%rsi
    1435:	48 89 c7             	mov    %rax,%rdi
    1438:	e8 31 11 00 00       	call   256e <_ZN12BasicConsole5PrintEPKcj>
    143d:	48 8b 45 d8          	mov    -0x28(%rbp),%rax
    1441:	48 8b 40 10          	mov    0x10(%rax),%rax
    1445:	48 8b 55 d8          	mov    -0x28(%rbp),%rdx
    1449:	48 8b 52 20          	mov    0x20(%rdx),%rdx
    144d:	48 8d 4a 0a          	lea    0xa(%rdx),%rcx
    1451:	ba ff ff ff ff       	mov    $0xffffffff,%edx
    1456:	48 89 ce             	mov    %rcx,%rsi
    1459:	48 89 c7             	mov    %rax,%rdi
    145c:	e8 d9 11 00 00       	call   263a <_ZN12BasicConsole7PrintlnEPKcj>
    1461:	48 8b 45 d8          	mov    -0x28(%rbp),%rax
    1465:	48 8b 40 20          	mov    0x20(%rax),%rax
    1469:	8b 40 04             	mov    0x4(%rax),%eax
    146c:	89 c0                	mov    %eax,%eax
    146e:	48 83 e8 24          	sub    $0x24,%rax
    1472:	48 c1 e8 03          	shr    $0x3,%rax
    1476:	89 45 e4             	mov    %eax,-0x1c(%rbp)
    1479:	48 8b 45 d8          	mov    -0x28(%rbp),%rax
    147d:	48 8b 40 10          	mov    0x10(%rax),%rax
    1481:	ba ff ff ff ff       	mov    $0xffffffff,%edx
    1486:	48 8d 0d 2e bc 00 00 	lea    0xbc2e(%rip),%rcx        # d0bb <_ZL4font+0x10bb>
    148d:	48 89 ce             	mov    %rcx,%rsi
    1490:	48 89 c7             	mov    %rax,%rdi
    1493:	e8 d6 10 00 00       	call   256e <_ZN12BasicConsole5PrintEPKcj>
    1498:	48 8b 45 d8          	mov    -0x28(%rbp),%rax
    149c:	48 8b 58 10          	mov    0x10(%rax),%rbx
    14a0:	8b 45 e4             	mov    -0x1c(%rbp),%eax
    14a3:	48 98                	cltq
    14a5:	48 89 c7             	mov    %rax,%rdi
    14a8:	e8 87 91 00 00       	call   a634 <_Z10to_hstringm>
    14ad:	ba ff ff ff ff       	mov    $0xffffffff,%edx
    14b2:	48 89 c6             	mov    %rax,%rsi
    14b5:	48 89 df             	mov    %rbx,%rdi
    14b8:	e8 7d 11 00 00       	call   263a <_ZN12BasicConsole7PrintlnEPKcj>
    14bd:	48 8b 45 d8          	mov    -0x28(%rbp),%rax
    14c1:	48 8b 40 20          	mov    0x20(%rax),%rax
    14c5:	48 89 c2             	mov    %rax,%rdx
    14c8:	48 8b 45 d8          	mov    -0x28(%rbp),%rax
    14cc:	48 89 d6             	mov    %rdx,%rsi
    14cf:	48 89 c7             	mov    %rax,%rdi
    14d2:	e8 6d 00 00 00       	call   1544 <_ZN4ACPI10doChecksumEP13ACPISDTHeader>
    14d7:	83 f0 01             	xor    $0x1,%eax
    14da:	84 c0                	test   %al,%al
    14dc:	74 60                	je     153e <_ZN4ACPI10InitializeEP12BasicConsolePv+0x41e>
    14de:	48 8b 45 d8          	mov    -0x28(%rbp),%rax
    14e2:	48 8b 40 10          	mov    0x10(%rax),%rax
    14e6:	ba ff ff ff ff       	mov    $0xffffffff,%edx
    14eb:	48 8d 0d d8 bb 00 00 	lea    0xbbd8(%rip),%rcx        # d0ca <_ZL4font+0x10ca>
    14f2:	48 89 ce             	mov    %rcx,%rsi
    14f5:	48 89 c7             	mov    %rax,%rdi
    14f8:	e8 3d 11 00 00       	call   263a <_ZN12BasicConsole7PrintlnEPKcj>
    14fd:	eb 3f                	jmp    153e <_ZN4ACPI10InitializeEP12BasicConsolePv+0x41e>
    14ff:	48 8b 45 d8          	mov    -0x28(%rbp),%rax
    1503:	48 8b 40 10          	mov    0x10(%rax),%rax
    1507:	ba ff ff ff ff       	mov    $0xffffffff,%edx
    150c:	48 8d 0d cd bb 00 00 	lea    0xbbcd(%rip),%rcx        # d0e0 <_ZL4font+0x10e0>
    1513:	48 89 ce             	mov    %rcx,%rsi
    1516:	48 89 c7             	mov    %rax,%rdi
    1519:	e8 1c 11 00 00       	call   263a <_ZN12BasicConsole7PrintlnEPKcj>
    151e:	48 8b 45 d8          	mov    -0x28(%rbp),%rax
    1522:	48 8b 40 10          	mov    0x10(%rax),%rax
    1526:	ba ff ff ff ff       	mov    $0xffffffff,%edx
    152b:	48 8d 0d ce bb 00 00 	lea    0xbbce(%rip),%rcx        # d100 <_ZL4font+0x1100>
    1532:	48 89 ce             	mov    %rcx,%rsi
    1535:	48 89 c7             	mov    %rax,%rdi
    1538:	e8 fd 10 00 00       	call   263a <_ZN12BasicConsole7PrintlnEPKcj>
    153d:	90                   	nop
    153e:	48 8b 5d f8          	mov    -0x8(%rbp),%rbx
    1542:	c9                   	leave
    1543:	c3                   	ret

0000000000001544 <_ZN4ACPI10doChecksumEP13ACPISDTHeader>:
    1544:	f3 0f 1e fa          	endbr64
    1548:	55                   	push   %rbp
    1549:	48 89 e5             	mov    %rsp,%rbp
    154c:	48 89 7d e8          	mov    %rdi,-0x18(%rbp)
    1550:	48 89 75 e0          	mov    %rsi,-0x20(%rbp)
    1554:	c6 45 ff 00          	movb   $0x0,-0x1(%rbp)
    1558:	c7 45 f8 00 00 00 00 	movl   $0x0,-0x8(%rbp)
    155f:	eb 17                	jmp    1578 <_ZN4ACPI10doChecksumEP13ACPISDTHeader+0x34>
    1561:	8b 45 f8             	mov    -0x8(%rbp),%eax
    1564:	48 63 d0             	movslq %eax,%rdx
    1567:	48 8b 45 e0          	mov    -0x20(%rbp),%rax
    156b:	48 01 d0             	add    %rdx,%rax
    156e:	0f b6 00             	movzbl (%rax),%eax
    1571:	00 45 ff             	add    %al,-0x1(%rbp)
    1574:	83 45 f8 01          	addl   $0x1,-0x8(%rbp)
    1578:	48 8b 45 e0          	mov    -0x20(%rbp),%rax
    157c:	8b 40 04             	mov    0x4(%rax),%eax
    157f:	8b 55 f8             	mov    -0x8(%rbp),%edx
    1582:	39 c2                	cmp    %eax,%edx
    1584:	72 db                	jb     1561 <_ZN4ACPI10doChecksumEP13ACPISDTHeader+0x1d>
    1586:	80 7d ff 00          	cmpb   $0x0,-0x1(%rbp)
    158a:	0f 94 c0             	sete   %al
    158d:	5d                   	pop    %rbp
    158e:	c3                   	ret
    158f:	90                   	nop

0000000000001590 <_ZN4ACPI7GetFADTEv>:
    1590:	f3 0f 1e fa          	endbr64
    1594:	55                   	push   %rbp
    1595:	48 89 e5             	mov    %rsp,%rbp
    1598:	48 83 ec 30          	sub    $0x30,%rsp
    159c:	48 89 7d d8          	mov    %rdi,-0x28(%rbp)
    15a0:	48 8b 45 d8          	mov    -0x28(%rbp),%rax
    15a4:	48 8b 40 20          	mov    0x20(%rax),%rax
    15a8:	8b 40 04             	mov    0x4(%rax),%eax
    15ab:	89 c0                	mov    %eax,%eax
    15ad:	48 83 e8 24          	sub    $0x24,%rax
    15b1:	48 c1 e8 03          	shr    $0x3,%rax
    15b5:	89 45 f8             	mov    %eax,-0x8(%rbp)
    15b8:	48 8b 45 d8          	mov    -0x28(%rbp),%rax
    15bc:	48 8b 40 20          	mov    0x20(%rax),%rax
    15c0:	48 83 c0 24          	add    $0x24,%rax
    15c4:	48 89 45 f0          	mov    %rax,-0x10(%rbp)
    15c8:	c7 45 fc 00 00 00 00 	movl   $0x0,-0x4(%rbp)
    15cf:	e9 91 00 00 00       	jmp    1665 <_ZN4ACPI7GetFADTEv+0xd5>
    15d4:	8b 45 fc             	mov    -0x4(%rbp),%eax
    15d7:	48 98                	cltq
    15d9:	48 8d 14 c5 00 00 00 	lea    0x0(,%rax,8),%rdx
    15e0:	00 
    15e1:	48 8b 45 f0          	mov    -0x10(%rbp),%rax
    15e5:	48 01 d0             	add    %rdx,%rax
    15e8:	48 89 c7             	mov    %rax,%rdi
    15eb:	e8 01 fb ff ff       	call   10f1 <_Z15ReadUnaligned64Ph>
    15f0:	48 89 45 e8          	mov    %rax,-0x18(%rbp)
    15f4:	48 8b 05 05 53 02 00 	mov    0x25305(%rip),%rax        # 26900 <ks>
    15fb:	48 8d b8 80 00 00 00 	lea    0x80(%rax),%rdi
    1602:	48 8b 45 e8          	mov    -0x18(%rbp),%rax
    1606:	48 b9 00 00 00 00 ff 	movabs $0xffffffff00000000,%rcx
    160d:	ff ff ff 
    1610:	48 8b 55 e8          	mov    -0x18(%rbp),%rdx
    1614:	48 01 ca             	add    %rcx,%rdx
    1617:	48 89 d6             	mov    %rdx,%rsi
    161a:	b9 00 00 00 00       	mov    $0x0,%ecx
    161f:	48 89 c2             	mov    %rax,%rdx
    1622:	e8 41 7d 00 00       	call   9368 <_ZN16PageTableManager9MapMemoryEPvS0_b>
    1627:	48 ba 00 00 00 00 ff 	movabs $0xffffffff00000000,%rdx
    162e:	ff ff ff 
    1631:	48 8b 45 e8          	mov    -0x18(%rbp),%rax
    1635:	48 01 d0             	add    %rdx,%rax
    1638:	48 89 45 e0          	mov    %rax,-0x20(%rbp)
    163c:	48 8b 45 e0          	mov    -0x20(%rbp),%rax
    1640:	ba 04 00 00 00       	mov    $0x4,%edx
    1645:	48 8d 0d cd ba 00 00 	lea    0xbacd(%rip),%rcx        # d119 <_ZL4font+0x1119>
    164c:	48 89 ce             	mov    %rcx,%rsi
    164f:	48 89 c7             	mov    %rax,%rdi
    1652:	e8 a9 f9 ff ff       	call   1000 <strncmp>
    1657:	85 c0                	test   %eax,%eax
    1659:	75 06                	jne    1661 <_ZN4ACPI7GetFADTEv+0xd1>
    165b:	48 8b 45 e0          	mov    -0x20(%rbp),%rax
    165f:	eb 34                	jmp    1695 <_ZN4ACPI7GetFADTEv+0x105>
    1661:	83 45 fc 01          	addl   $0x1,-0x4(%rbp)
    1665:	8b 45 fc             	mov    -0x4(%rbp),%eax
    1668:	3b 45 f8             	cmp    -0x8(%rbp),%eax
    166b:	0f 8c 63 ff ff ff    	jl     15d4 <_ZN4ACPI7GetFADTEv+0x44>
    1671:	48 8b 45 d8          	mov    -0x28(%rbp),%rax
    1675:	48 8b 40 10          	mov    0x10(%rax),%rax
    1679:	ba ff ff ff ff       	mov    $0xffffffff,%edx
    167e:	48 8d 0d 99 ba 00 00 	lea    0xba99(%rip),%rcx        # d11e <_ZL4font+0x111e>
    1685:	48 89 ce             	mov    %rcx,%rsi
    1688:	48 89 c7             	mov    %rax,%rdi
    168b:	e8 aa 0f 00 00       	call   263a <_ZN12BasicConsole7PrintlnEPKcj>
    1690:	b8 00 00 00 00       	mov    $0x0,%eax
    1695:	c9                   	leave
    1696:	c3                   	ret
    1697:	90                   	nop

0000000000001698 <_ZN4ACPI7GetMADTEv>:
    1698:	f3 0f 1e fa          	endbr64
    169c:	55                   	push   %rbp
    169d:	48 89 e5             	mov    %rsp,%rbp
    16a0:	48 83 ec 30          	sub    $0x30,%rsp
    16a4:	48 89 7d d8          	mov    %rdi,-0x28(%rbp)
    16a8:	48 8b 45 d8          	mov    -0x28(%rbp),%rax
    16ac:	48 8b 40 20          	mov    0x20(%rax),%rax
    16b0:	8b 40 04             	mov    0x4(%rax),%eax
    16b3:	89 c0                	mov    %eax,%eax
    16b5:	48 83 e8 24          	sub    $0x24,%rax
    16b9:	48 c1 e8 03          	shr    $0x3,%rax
    16bd:	89 45 f8             	mov    %eax,-0x8(%rbp)
    16c0:	48 8b 45 d8          	mov    -0x28(%rbp),%rax
    16c4:	48 8b 40 20          	mov    0x20(%rax),%rax
    16c8:	48 83 c0 24          	add    $0x24,%rax
    16cc:	48 89 45 f0          	mov    %rax,-0x10(%rbp)
    16d0:	c7 45 fc 00 00 00 00 	movl   $0x0,-0x4(%rbp)
    16d7:	e9 91 00 00 00       	jmp    176d <_ZN4ACPI7GetMADTEv+0xd5>
    16dc:	8b 45 fc             	mov    -0x4(%rbp),%eax
    16df:	48 98                	cltq
    16e1:	48 8d 14 c5 00 00 00 	lea    0x0(,%rax,8),%rdx
    16e8:	00 
    16e9:	48 8b 45 f0          	mov    -0x10(%rbp),%rax
    16ed:	48 01 d0             	add    %rdx,%rax
    16f0:	48 89 c7             	mov    %rax,%rdi
    16f3:	e8 f9 f9 ff ff       	call   10f1 <_Z15ReadUnaligned64Ph>
    16f8:	48 89 45 e8          	mov    %rax,-0x18(%rbp)
    16fc:	48 8b 05 fd 51 02 00 	mov    0x251fd(%rip),%rax        # 26900 <ks>
    1703:	48 8d b8 80 00 00 00 	lea    0x80(%rax),%rdi
    170a:	48 8b 45 e8          	mov    -0x18(%rbp),%rax
    170e:	48 b9 00 00 00 00 ff 	movabs $0xffffffff00000000,%rcx
    1715:	ff ff ff 
    1718:	48 8b 55 e8          	mov    -0x18(%rbp),%rdx
    171c:	48 01 ca             	add    %rcx,%rdx
    171f:	48 89 d6             	mov    %rdx,%rsi
    1722:	b9 00 00 00 00       	mov    $0x0,%ecx
    1727:	48 89 c2             	mov    %rax,%rdx
    172a:	e8 39 7c 00 00       	call   9368 <_ZN16PageTableManager9MapMemoryEPvS0_b>
    172f:	48 ba 00 00 00 00 ff 	movabs $0xffffffff00000000,%rdx
    1736:	ff ff ff 
    1739:	48 8b 45 e8          	mov    -0x18(%rbp),%rax
    173d:	48 01 d0             	add    %rdx,%rax
    1740:	48 89 45 e0          	mov    %rax,-0x20(%rbp)
    1744:	48 8b 45 e0          	mov    -0x20(%rbp),%rax
    1748:	ba 04 00 00 00       	mov    $0x4,%edx
    174d:	48 8d 0d e2 b9 00 00 	lea    0xb9e2(%rip),%rcx        # d136 <_ZL4font+0x1136>
    1754:	48 89 ce             	mov    %rcx,%rsi
    1757:	48 89 c7             	mov    %rax,%rdi
    175a:	e8 a1 f8 ff ff       	call   1000 <strncmp>
    175f:	85 c0                	test   %eax,%eax
    1761:	75 06                	jne    1769 <_ZN4ACPI7GetMADTEv+0xd1>
    1763:	48 8b 45 e0          	mov    -0x20(%rbp),%rax
    1767:	eb 34                	jmp    179d <_ZN4ACPI7GetMADTEv+0x105>
    1769:	83 45 fc 01          	addl   $0x1,-0x4(%rbp)
    176d:	8b 45 fc             	mov    -0x4(%rbp),%eax
    1770:	3b 45 f8             	cmp    -0x8(%rbp),%eax
    1773:	0f 8c 63 ff ff ff    	jl     16dc <_ZN4ACPI7GetMADTEv+0x44>
    1779:	48 8b 45 d8          	mov    -0x28(%rbp),%rax
    177d:	48 8b 40 10          	mov    0x10(%rax),%rax
    1781:	ba ff ff ff ff       	mov    $0xffffffff,%edx
    1786:	48 8d 0d ae b9 00 00 	lea    0xb9ae(%rip),%rcx        # d13b <_ZL4font+0x113b>
    178d:	48 89 ce             	mov    %rcx,%rsi
    1790:	48 89 c7             	mov    %rax,%rdi
    1793:	e8 a2 0e 00 00       	call   263a <_ZN12BasicConsole7PrintlnEPKcj>
    1798:	b8 00 00 00 00       	mov    $0x0,%eax
    179d:	c9                   	leave
    179e:	c3                   	ret
    179f:	90                   	nop

00000000000017a0 <_ZN4ACPI7GetBGRTEv>:
    17a0:	f3 0f 1e fa          	endbr64
    17a4:	55                   	push   %rbp
    17a5:	48 89 e5             	mov    %rsp,%rbp
    17a8:	48 83 ec 30          	sub    $0x30,%rsp
    17ac:	48 89 7d d8          	mov    %rdi,-0x28(%rbp)
    17b0:	48 8b 45 d8          	mov    -0x28(%rbp),%rax
    17b4:	48 8b 40 20          	mov    0x20(%rax),%rax
    17b8:	8b 40 04             	mov    0x4(%rax),%eax
    17bb:	89 c0                	mov    %eax,%eax
    17bd:	48 83 e8 24          	sub    $0x24,%rax
    17c1:	48 c1 e8 03          	shr    $0x3,%rax
    17c5:	89 45 f8             	mov    %eax,-0x8(%rbp)
    17c8:	48 8b 45 d8          	mov    -0x28(%rbp),%rax
    17cc:	48 8b 40 20          	mov    0x20(%rax),%rax
    17d0:	48 83 c0 24          	add    $0x24,%rax
    17d4:	48 89 45 f0          	mov    %rax,-0x10(%rbp)
    17d8:	c7 45 fc 00 00 00 00 	movl   $0x0,-0x4(%rbp)
    17df:	e9 91 00 00 00       	jmp    1875 <_ZN4ACPI7GetBGRTEv+0xd5>
    17e4:	8b 45 fc             	mov    -0x4(%rbp),%eax
    17e7:	48 98                	cltq
    17e9:	48 8d 14 c5 00 00 00 	lea    0x0(,%rax,8),%rdx
    17f0:	00 
    17f1:	48 8b 45 f0          	mov    -0x10(%rbp),%rax
    17f5:	48 01 d0             	add    %rdx,%rax
    17f8:	48 89 c7             	mov    %rax,%rdi
    17fb:	e8 f1 f8 ff ff       	call   10f1 <_Z15ReadUnaligned64Ph>
    1800:	48 89 45 e8          	mov    %rax,-0x18(%rbp)
    1804:	48 8b 05 f5 50 02 00 	mov    0x250f5(%rip),%rax        # 26900 <ks>
    180b:	48 8d b8 80 00 00 00 	lea    0x80(%rax),%rdi
    1812:	48 8b 45 e8          	mov    -0x18(%rbp),%rax
    1816:	48 b9 00 00 00 00 ff 	movabs $0xffffffff00000000,%rcx
    181d:	ff ff ff 
    1820:	48 8b 55 e8          	mov    -0x18(%rbp),%rdx
    1824:	48 01 ca             	add    %rcx,%rdx
    1827:	48 89 d6             	mov    %rdx,%rsi
    182a:	b9 00 00 00 00       	mov    $0x0,%ecx
    182f:	48 89 c2             	mov    %rax,%rdx
    1832:	e8 31 7b 00 00       	call   9368 <_ZN16PageTableManager9MapMemoryEPvS0_b>
    1837:	48 ba 00 00 00 00 ff 	movabs $0xffffffff00000000,%rdx
    183e:	ff ff ff 
    1841:	48 8b 45 e8          	mov    -0x18(%rbp),%rax
    1845:	48 01 d0             	add    %rdx,%rax
    1848:	48 89 45 e0          	mov    %rax,-0x20(%rbp)
    184c:	48 8b 45 e0          	mov    -0x20(%rbp),%rax
    1850:	ba 04 00 00 00       	mov    $0x4,%edx
    1855:	48 8d 0d f7 b8 00 00 	lea    0xb8f7(%rip),%rcx        # d153 <_ZL4font+0x1153>
    185c:	48 89 ce             	mov    %rcx,%rsi
    185f:	48 89 c7             	mov    %rax,%rdi
    1862:	e8 99 f7 ff ff       	call   1000 <strncmp>
    1867:	85 c0                	test   %eax,%eax
    1869:	75 06                	jne    1871 <_ZN4ACPI7GetBGRTEv+0xd1>
    186b:	48 8b 45 e0          	mov    -0x20(%rbp),%rax
    186f:	eb 34                	jmp    18a5 <_ZN4ACPI7GetBGRTEv+0x105>
    1871:	83 45 fc 01          	addl   $0x1,-0x4(%rbp)
    1875:	8b 45 fc             	mov    -0x4(%rbp),%eax
    1878:	3b 45 f8             	cmp    -0x8(%rbp),%eax
    187b:	0f 8c 63 ff ff ff    	jl     17e4 <_ZN4ACPI7GetBGRTEv+0x44>
    1881:	48 8b 45 d8          	mov    -0x28(%rbp),%rax
    1885:	48 8b 40 10          	mov    0x10(%rax),%rax
    1889:	ba ff ff ff ff       	mov    $0xffffffff,%edx
    188e:	48 8d 0d c3 b8 00 00 	lea    0xb8c3(%rip),%rcx        # d158 <_ZL4font+0x1158>
    1895:	48 89 ce             	mov    %rcx,%rsi
    1898:	48 89 c7             	mov    %rax,%rdi
    189b:	e8 9a 0d 00 00       	call   263a <_ZN12BasicConsole7PrintlnEPKcj>
    18a0:	b8 00 00 00 00       	mov    $0x0,%eax
    18a5:	c9                   	leave
    18a6:	c3                   	ret
    18a7:	90                   	nop

00000000000018a8 <_ZN4ACPI7GetRSDTEv>:
    18a8:	f3 0f 1e fa          	endbr64
    18ac:	55                   	push   %rbp
    18ad:	48 89 e5             	mov    %rsp,%rbp
    18b0:	48 83 ec 30          	sub    $0x30,%rsp
    18b4:	48 89 7d d8          	mov    %rdi,-0x28(%rbp)
    18b8:	48 8b 45 d8          	mov    -0x28(%rbp),%rax
    18bc:	48 8b 40 20          	mov    0x20(%rax),%rax
    18c0:	8b 40 04             	mov    0x4(%rax),%eax
    18c3:	89 c0                	mov    %eax,%eax
    18c5:	48 83 e8 24          	sub    $0x24,%rax
    18c9:	48 c1 e8 03          	shr    $0x3,%rax
    18cd:	89 45 f8             	mov    %eax,-0x8(%rbp)
    18d0:	48 8b 45 d8          	mov    -0x28(%rbp),%rax
    18d4:	48 8b 40 20          	mov    0x20(%rax),%rax
    18d8:	48 83 c0 24          	add    $0x24,%rax
    18dc:	48 89 45 f0          	mov    %rax,-0x10(%rbp)
    18e0:	c7 45 fc 00 00 00 00 	movl   $0x0,-0x4(%rbp)
    18e7:	e9 91 00 00 00       	jmp    197d <_ZN4ACPI7GetRSDTEv+0xd5>
    18ec:	8b 45 fc             	mov    -0x4(%rbp),%eax
    18ef:	48 98                	cltq
    18f1:	48 8d 14 c5 00 00 00 	lea    0x0(,%rax,8),%rdx
    18f8:	00 
    18f9:	48 8b 45 f0          	mov    -0x10(%rbp),%rax
    18fd:	48 01 d0             	add    %rdx,%rax
    1900:	48 89 c7             	mov    %rax,%rdi
    1903:	e8 e9 f7 ff ff       	call   10f1 <_Z15ReadUnaligned64Ph>
    1908:	48 89 45 e8          	mov    %rax,-0x18(%rbp)
    190c:	48 8b 05 ed 4f 02 00 	mov    0x24fed(%rip),%rax        # 26900 <ks>
    1913:	48 8d b8 80 00 00 00 	lea    0x80(%rax),%rdi
    191a:	48 8b 45 e8          	mov    -0x18(%rbp),%rax
    191e:	48 b9 00 00 00 00 ff 	movabs $0xffffffff00000000,%rcx
    1925:	ff ff ff 
    1928:	48 8b 55 e8          	mov    -0x18(%rbp),%rdx
    192c:	48 01 ca             	add    %rcx,%rdx
    192f:	48 89 d6             	mov    %rdx,%rsi
    1932:	b9 00 00 00 00       	mov    $0x0,%ecx
    1937:	48 89 c2             	mov    %rax,%rdx
    193a:	e8 29 7a 00 00       	call   9368 <_ZN16PageTableManager9MapMemoryEPvS0_b>
    193f:	48 ba 00 00 00 00 ff 	movabs $0xffffffff00000000,%rdx
    1946:	ff ff ff 
    1949:	48 8b 45 e8          	mov    -0x18(%rbp),%rax
    194d:	48 01 d0             	add    %rdx,%rax
    1950:	48 89 45 e0          	mov    %rax,-0x20(%rbp)
    1954:	48 8b 45 e0          	mov    -0x20(%rbp),%rax
    1958:	ba 04 00 00 00       	mov    $0x4,%edx
    195d:	48 8d 0d 0c b8 00 00 	lea    0xb80c(%rip),%rcx        # d170 <_ZL4font+0x1170>
    1964:	48 89 ce             	mov    %rcx,%rsi
    1967:	48 89 c7             	mov    %rax,%rdi
    196a:	e8 91 f6 ff ff       	call   1000 <strncmp>
    196f:	85 c0                	test   %eax,%eax
    1971:	75 06                	jne    1979 <_ZN4ACPI7GetRSDTEv+0xd1>
    1973:	48 8b 45 e0          	mov    -0x20(%rbp),%rax
    1977:	eb 34                	jmp    19ad <_ZN4ACPI7GetRSDTEv+0x105>
    1979:	83 45 fc 01          	addl   $0x1,-0x4(%rbp)
    197d:	8b 45 fc             	mov    -0x4(%rbp),%eax
    1980:	3b 45 f8             	cmp    -0x8(%rbp),%eax
    1983:	0f 8c 63 ff ff ff    	jl     18ec <_ZN4ACPI7GetRSDTEv+0x44>
    1989:	48 8b 45 d8          	mov    -0x28(%rbp),%rax
    198d:	48 8b 40 10          	mov    0x10(%rax),%rax
    1991:	ba ff ff ff ff       	mov    $0xffffffff,%edx
    1996:	48 8d 0d d8 b7 00 00 	lea    0xb7d8(%rip),%rcx        # d175 <_ZL4font+0x1175>
    199d:	48 89 ce             	mov    %rcx,%rsi
    19a0:	48 89 c7             	mov    %rax,%rdi
    19a3:	e8 92 0c 00 00       	call   263a <_ZN12BasicConsole7PrintlnEPKcj>
    19a8:	b8 00 00 00 00       	mov    $0x0,%eax
    19ad:	c9                   	leave
    19ae:	c3                   	ret
    19af:	90                   	nop

00000000000019b0 <_ZN4ACPI7GetSRATEv>:
    19b0:	f3 0f 1e fa          	endbr64
    19b4:	55                   	push   %rbp
    19b5:	48 89 e5             	mov    %rsp,%rbp
    19b8:	48 83 ec 30          	sub    $0x30,%rsp
    19bc:	48 89 7d d8          	mov    %rdi,-0x28(%rbp)
    19c0:	48 8b 45 d8          	mov    -0x28(%rbp),%rax
    19c4:	48 8b 40 20          	mov    0x20(%rax),%rax
    19c8:	8b 40 04             	mov    0x4(%rax),%eax
    19cb:	89 c0                	mov    %eax,%eax
    19cd:	48 83 e8 24          	sub    $0x24,%rax
    19d1:	48 c1 e8 03          	shr    $0x3,%rax
    19d5:	89 45 f8             	mov    %eax,-0x8(%rbp)
    19d8:	48 8b 45 d8          	mov    -0x28(%rbp),%rax
    19dc:	48 8b 40 20          	mov    0x20(%rax),%rax
    19e0:	48 83 c0 24          	add    $0x24,%rax
    19e4:	48 89 45 f0          	mov    %rax,-0x10(%rbp)
    19e8:	c7 45 fc 00 00 00 00 	movl   $0x0,-0x4(%rbp)
    19ef:	e9 91 00 00 00       	jmp    1a85 <_ZN4ACPI7GetSRATEv+0xd5>
    19f4:	8b 45 fc             	mov    -0x4(%rbp),%eax
    19f7:	48 98                	cltq
    19f9:	48 8d 14 c5 00 00 00 	lea    0x0(,%rax,8),%rdx
    1a00:	00 
    1a01:	48 8b 45 f0          	mov    -0x10(%rbp),%rax
    1a05:	48 01 d0             	add    %rdx,%rax
    1a08:	48 89 c7             	mov    %rax,%rdi
    1a0b:	e8 e1 f6 ff ff       	call   10f1 <_Z15ReadUnaligned64Ph>
    1a10:	48 89 45 e8          	mov    %rax,-0x18(%rbp)
    1a14:	48 8b 05 e5 4e 02 00 	mov    0x24ee5(%rip),%rax        # 26900 <ks>
    1a1b:	48 8d b8 80 00 00 00 	lea    0x80(%rax),%rdi
    1a22:	48 8b 45 e8          	mov    -0x18(%rbp),%rax
    1a26:	48 b9 00 00 00 00 ff 	movabs $0xffffffff00000000,%rcx
    1a2d:	ff ff ff 
    1a30:	48 8b 55 e8          	mov    -0x18(%rbp),%rdx
    1a34:	48 01 ca             	add    %rcx,%rdx
    1a37:	48 89 d6             	mov    %rdx,%rsi
    1a3a:	b9 00 00 00 00       	mov    $0x0,%ecx
    1a3f:	48 89 c2             	mov    %rax,%rdx
    1a42:	e8 21 79 00 00       	call   9368 <_ZN16PageTableManager9MapMemoryEPvS0_b>
    1a47:	48 ba 00 00 00 00 ff 	movabs $0xffffffff00000000,%rdx
    1a4e:	ff ff ff 
    1a51:	48 8b 45 e8          	mov    -0x18(%rbp),%rax
    1a55:	48 01 d0             	add    %rdx,%rax
    1a58:	48 89 45 e0          	mov    %rax,-0x20(%rbp)
    1a5c:	48 8b 45 e0          	mov    -0x20(%rbp),%rax
    1a60:	ba 04 00 00 00       	mov    $0x4,%edx
    1a65:	48 8d 0d 21 b7 00 00 	lea    0xb721(%rip),%rcx        # d18d <_ZL4font+0x118d>
    1a6c:	48 89 ce             	mov    %rcx,%rsi
    1a6f:	48 89 c7             	mov    %rax,%rdi
    1a72:	e8 89 f5 ff ff       	call   1000 <strncmp>
    1a77:	85 c0                	test   %eax,%eax
    1a79:	75 06                	jne    1a81 <_ZN4ACPI7GetSRATEv+0xd1>
    1a7b:	48 8b 45 e0          	mov    -0x20(%rbp),%rax
    1a7f:	eb 34                	jmp    1ab5 <_ZN4ACPI7GetSRATEv+0x105>
    1a81:	83 45 fc 01          	addl   $0x1,-0x4(%rbp)
    1a85:	8b 45 fc             	mov    -0x4(%rbp),%eax
    1a88:	3b 45 f8             	cmp    -0x8(%rbp),%eax
    1a8b:	0f 8c 63 ff ff ff    	jl     19f4 <_ZN4ACPI7GetSRATEv+0x44>
    1a91:	48 8b 45 d8          	mov    -0x28(%rbp),%rax
    1a95:	48 8b 40 10          	mov    0x10(%rax),%rax
    1a99:	ba ff ff ff ff       	mov    $0xffffffff,%edx
    1a9e:	48 8d 0d ed b6 00 00 	lea    0xb6ed(%rip),%rcx        # d192 <_ZL4font+0x1192>
    1aa5:	48 89 ce             	mov    %rcx,%rsi
    1aa8:	48 89 c7             	mov    %rax,%rdi
    1aab:	e8 8a 0b 00 00       	call   263a <_ZN12BasicConsole7PrintlnEPKcj>
    1ab0:	b8 00 00 00 00       	mov    $0x0,%eax
    1ab5:	c9                   	leave
    1ab6:	c3                   	ret
    1ab7:	90                   	nop

0000000000001ab8 <_ZN4ACPI7GetMCFGEv>:
    1ab8:	f3 0f 1e fa          	endbr64
    1abc:	55                   	push   %rbp
    1abd:	48 89 e5             	mov    %rsp,%rbp
    1ac0:	48 83 ec 30          	sub    $0x30,%rsp
    1ac4:	48 89 7d d8          	mov    %rdi,-0x28(%rbp)
    1ac8:	48 8b 45 d8          	mov    -0x28(%rbp),%rax
    1acc:	48 8b 40 20          	mov    0x20(%rax),%rax
    1ad0:	8b 40 04             	mov    0x4(%rax),%eax
    1ad3:	89 c0                	mov    %eax,%eax
    1ad5:	48 83 e8 24          	sub    $0x24,%rax
    1ad9:	48 c1 e8 03          	shr    $0x3,%rax
    1add:	89 45 f8             	mov    %eax,-0x8(%rbp)
    1ae0:	48 8b 45 d8          	mov    -0x28(%rbp),%rax
    1ae4:	48 8b 40 20          	mov    0x20(%rax),%rax
    1ae8:	48 83 c0 24          	add    $0x24,%rax
    1aec:	48 89 45 f0          	mov    %rax,-0x10(%rbp)
    1af0:	c7 45 fc 00 00 00 00 	movl   $0x0,-0x4(%rbp)
    1af7:	e9 91 00 00 00       	jmp    1b8d <_ZN4ACPI7GetMCFGEv+0xd5>
    1afc:	8b 45 fc             	mov    -0x4(%rbp),%eax
    1aff:	48 98                	cltq
    1b01:	48 8d 14 c5 00 00 00 	lea    0x0(,%rax,8),%rdx
    1b08:	00 
    1b09:	48 8b 45 f0          	mov    -0x10(%rbp),%rax
    1b0d:	48 01 d0             	add    %rdx,%rax
    1b10:	48 89 c7             	mov    %rax,%rdi
    1b13:	e8 d9 f5 ff ff       	call   10f1 <_Z15ReadUnaligned64Ph>
    1b18:	48 89 45 e8          	mov    %rax,-0x18(%rbp)
    1b1c:	48 8b 05 dd 4d 02 00 	mov    0x24ddd(%rip),%rax        # 26900 <ks>
    1b23:	48 8d b8 80 00 00 00 	lea    0x80(%rax),%rdi
    1b2a:	48 8b 45 e8          	mov    -0x18(%rbp),%rax
    1b2e:	48 b9 00 00 00 00 ff 	movabs $0xffffffff00000000,%rcx
    1b35:	ff ff ff 
    1b38:	48 8b 55 e8          	mov    -0x18(%rbp),%rdx
    1b3c:	48 01 ca             	add    %rcx,%rdx
    1b3f:	48 89 d6             	mov    %rdx,%rsi
    1b42:	b9 00 00 00 00       	mov    $0x0,%ecx
    1b47:	48 89 c2             	mov    %rax,%rdx
    1b4a:	e8 19 78 00 00       	call   9368 <_ZN16PageTableManager9MapMemoryEPvS0_b>
    1b4f:	48 ba 00 00 00 00 ff 	movabs $0xffffffff00000000,%rdx
    1b56:	ff ff ff 
    1b59:	48 8b 45 e8          	mov    -0x18(%rbp),%rax
    1b5d:	48 01 d0             	add    %rdx,%rax
    1b60:	48 89 45 e0          	mov    %rax,-0x20(%rbp)
    1b64:	48 8b 45 e0          	mov    -0x20(%rbp),%rax
    1b68:	ba 04 00 00 00       	mov    $0x4,%edx
    1b6d:	48 8d 0d 36 b6 00 00 	lea    0xb636(%rip),%rcx        # d1aa <_ZL4font+0x11aa>
    1b74:	48 89 ce             	mov    %rcx,%rsi
    1b77:	48 89 c7             	mov    %rax,%rdi
    1b7a:	e8 81 f4 ff ff       	call   1000 <strncmp>
    1b7f:	85 c0                	test   %eax,%eax
    1b81:	75 06                	jne    1b89 <_ZN4ACPI7GetMCFGEv+0xd1>
    1b83:	48 8b 45 e0          	mov    -0x20(%rbp),%rax
    1b87:	eb 34                	jmp    1bbd <_ZN4ACPI7GetMCFGEv+0x105>
    1b89:	83 45 fc 01          	addl   $0x1,-0x4(%rbp)
    1b8d:	8b 45 fc             	mov    -0x4(%rbp),%eax
    1b90:	3b 45 f8             	cmp    -0x8(%rbp),%eax
    1b93:	0f 8c 63 ff ff ff    	jl     1afc <_ZN4ACPI7GetMCFGEv+0x44>
    1b99:	48 8b 45 d8          	mov    -0x28(%rbp),%rax
    1b9d:	48 8b 40 10          	mov    0x10(%rax),%rax
    1ba1:	ba ff ff ff ff       	mov    $0xffffffff,%edx
    1ba6:	48 8d 0d 02 b6 00 00 	lea    0xb602(%rip),%rcx        # d1af <_ZL4font+0x11af>
    1bad:	48 89 ce             	mov    %rcx,%rsi
    1bb0:	48 89 c7             	mov    %rax,%rdi
    1bb3:	e8 82 0a 00 00       	call   263a <_ZN12BasicConsole7PrintlnEPKcj>
    1bb8:	b8 00 00 00 00       	mov    $0x0,%eax
    1bbd:	c9                   	leave
    1bbe:	c3                   	ret
    1bbf:	90                   	nop

0000000000001bc0 <_ZN4ACPI21GetProcessorLocalAPICEv>:
    1bc0:	f3 0f 1e fa          	endbr64
    1bc4:	55                   	push   %rbp
    1bc5:	48 89 e5             	mov    %rsp,%rbp
    1bc8:	48 83 ec 40          	sub    $0x40,%rsp
    1bcc:	48 89 7d c8          	mov    %rdi,-0x38(%rbp)
    1bd0:	48 8b 45 c8          	mov    -0x38(%rbp),%rax
    1bd4:	48 89 c7             	mov    %rax,%rdi
    1bd7:	e8 bc fa ff ff       	call   1698 <_ZN4ACPI7GetMADTEv>
    1bdc:	48 89 45 f0          	mov    %rax,-0x10(%rbp)
    1be0:	48 83 7d f0 00       	cmpq   $0x0,-0x10(%rbp)
    1be5:	75 29                	jne    1c10 <_ZN4ACPI21GetProcessorLocalAPICEv+0x50>
    1be7:	48 8b 45 c8          	mov    -0x38(%rbp),%rax
    1beb:	48 8b 40 10          	mov    0x10(%rax),%rax
    1bef:	ba ff ff ff ff       	mov    $0xffffffff,%edx
    1bf4:	48 8d 0d cd b5 00 00 	lea    0xb5cd(%rip),%rcx        # d1c8 <_ZL4font+0x11c8>
    1bfb:	48 89 ce             	mov    %rcx,%rsi
    1bfe:	48 89 c7             	mov    %rax,%rdi
    1c01:	e8 34 0a 00 00       	call   263a <_ZN12BasicConsole7PrintlnEPKcj>
    1c06:	b8 00 00 00 00       	mov    $0x0,%eax
    1c0b:	e9 80 00 00 00       	jmp    1c90 <_ZN4ACPI21GetProcessorLocalAPICEv+0xd0>
    1c10:	48 8b 45 f0          	mov    -0x10(%rbp),%rax
    1c14:	48 83 c0 2c          	add    $0x2c,%rax
    1c18:	48 89 45 e8          	mov    %rax,-0x18(%rbp)
    1c1c:	48 8b 45 f0          	mov    -0x10(%rbp),%rax
    1c20:	8b 40 04             	mov    0x4(%rax),%eax
    1c23:	89 c2                	mov    %eax,%edx
    1c25:	48 8b 45 f0          	mov    -0x10(%rbp),%rax
    1c29:	48 01 d0             	add    %rdx,%rax
    1c2c:	48 89 45 e0          	mov    %rax,-0x20(%rbp)
    1c30:	48 8b 45 e8          	mov    -0x18(%rbp),%rax
    1c34:	48 89 45 f8          	mov    %rax,-0x8(%rbp)
    1c38:	eb 28                	jmp    1c62 <_ZN4ACPI21GetProcessorLocalAPICEv+0xa2>
    1c3a:	48 8b 45 f8          	mov    -0x8(%rbp),%rax
    1c3e:	48 89 45 d8          	mov    %rax,-0x28(%rbp)
    1c42:	48 8b 45 d8          	mov    -0x28(%rbp),%rax
    1c46:	0f b6 00             	movzbl (%rax),%eax
    1c49:	84 c0                	test   %al,%al
    1c4b:	75 06                	jne    1c53 <_ZN4ACPI21GetProcessorLocalAPICEv+0x93>
    1c4d:	48 8b 45 d8          	mov    -0x28(%rbp),%rax
    1c51:	eb 3d                	jmp    1c90 <_ZN4ACPI21GetProcessorLocalAPICEv+0xd0>
    1c53:	48 8b 45 d8          	mov    -0x28(%rbp),%rax
    1c57:	0f b6 40 01          	movzbl 0x1(%rax),%eax
    1c5b:	0f b6 c0             	movzbl %al,%eax
    1c5e:	48 01 45 f8          	add    %rax,-0x8(%rbp)
    1c62:	48 8b 45 f8          	mov    -0x8(%rbp),%rax
    1c66:	48 3b 45 e0          	cmp    -0x20(%rbp),%rax
    1c6a:	72 ce                	jb     1c3a <_ZN4ACPI21GetProcessorLocalAPICEv+0x7a>
    1c6c:	48 8b 45 c8          	mov    -0x38(%rbp),%rax
    1c70:	48 8b 40 10          	mov    0x10(%rax),%rax
    1c74:	ba ff ff ff ff       	mov    $0xffffffff,%edx
    1c79:	48 8d 0d 80 b5 00 00 	lea    0xb580(%rip),%rcx        # d200 <_ZL4font+0x1200>
    1c80:	48 89 ce             	mov    %rcx,%rsi
    1c83:	48 89 c7             	mov    %rax,%rdi
    1c86:	e8 af 09 00 00       	call   263a <_ZN12BasicConsole7PrintlnEPKcj>
    1c8b:	b8 00 00 00 00       	mov    $0x0,%eax
    1c90:	c9                   	leave
    1c91:	c3                   	ret

0000000000001c92 <_ZN4ACPI9GetIOAPICEv>:
    1c92:	f3 0f 1e fa          	endbr64
    1c96:	55                   	push   %rbp
    1c97:	48 89 e5             	mov    %rsp,%rbp
    1c9a:	48 83 ec 40          	sub    $0x40,%rsp
    1c9e:	48 89 7d c8          	mov    %rdi,-0x38(%rbp)
    1ca2:	48 8b 45 c8          	mov    -0x38(%rbp),%rax
    1ca6:	48 89 c7             	mov    %rax,%rdi
    1ca9:	e8 ea f9 ff ff       	call   1698 <_ZN4ACPI7GetMADTEv>
    1cae:	48 89 45 f0          	mov    %rax,-0x10(%rbp)
    1cb2:	48 83 7d f0 00       	cmpq   $0x0,-0x10(%rbp)
    1cb7:	75 29                	jne    1ce2 <_ZN4ACPI9GetIOAPICEv+0x50>
    1cb9:	48 8b 45 c8          	mov    -0x38(%rbp),%rax
    1cbd:	48 8b 40 10          	mov    0x10(%rax),%rax
    1cc1:	ba ff ff ff ff       	mov    $0xffffffff,%edx
    1cc6:	48 8d 0d 5b b5 00 00 	lea    0xb55b(%rip),%rcx        # d228 <_ZL4font+0x1228>
    1ccd:	48 89 ce             	mov    %rcx,%rsi
    1cd0:	48 89 c7             	mov    %rax,%rdi
    1cd3:	e8 62 09 00 00       	call   263a <_ZN12BasicConsole7PrintlnEPKcj>
    1cd8:	b8 00 00 00 00       	mov    $0x0,%eax
    1cdd:	e9 80 00 00 00       	jmp    1d62 <_ZN4ACPI9GetIOAPICEv+0xd0>
    1ce2:	48 8b 45 f0          	mov    -0x10(%rbp),%rax
    1ce6:	48 83 c0 2c          	add    $0x2c,%rax
    1cea:	48 89 45 e8          	mov    %rax,-0x18(%rbp)
    1cee:	48 8b 45 f0          	mov    -0x10(%rbp),%rax
    1cf2:	8b 40 04             	mov    0x4(%rax),%eax
    1cf5:	89 c2                	mov    %eax,%edx
    1cf7:	48 8b 45 f0          	mov    -0x10(%rbp),%rax
    1cfb:	48 01 d0             	add    %rdx,%rax
    1cfe:	48 89 45 e0          	mov    %rax,-0x20(%rbp)
    1d02:	48 8b 45 e8          	mov    -0x18(%rbp),%rax
    1d06:	48 89 45 f8          	mov    %rax,-0x8(%rbp)
    1d0a:	eb 28                	jmp    1d34 <_ZN4ACPI9GetIOAPICEv+0xa2>
    1d0c:	48 8b 45 f8          	mov    -0x8(%rbp),%rax
    1d10:	48 89 45 d8          	mov    %rax,-0x28(%rbp)
    1d14:	48 8b 45 d8          	mov    -0x28(%rbp),%rax
    1d18:	0f b6 00             	movzbl (%rax),%eax
    1d1b:	3c 01                	cmp    $0x1,%al
    1d1d:	75 06                	jne    1d25 <_ZN4ACPI9GetIOAPICEv+0x93>
    1d1f:	48 8b 45 d8          	mov    -0x28(%rbp),%rax
    1d23:	eb 3d                	jmp    1d62 <_ZN4ACPI9GetIOAPICEv+0xd0>
    1d25:	48 8b 45 d8          	mov    -0x28(%rbp),%rax
    1d29:	0f b6 40 01          	movzbl 0x1(%rax),%eax
    1d2d:	0f b6 c0             	movzbl %al,%eax
    1d30:	48 01 45 f8          	add    %rax,-0x8(%rbp)
    1d34:	48 8b 45 f8          	mov    -0x8(%rbp),%rax
    1d38:	48 3b 45 e0          	cmp    -0x20(%rbp),%rax
    1d3c:	72 ce                	jb     1d0c <_ZN4ACPI9GetIOAPICEv+0x7a>
    1d3e:	48 8b 45 c8          	mov    -0x38(%rbp),%rax
    1d42:	48 8b 40 10          	mov    0x10(%rax),%rax
    1d46:	ba ff ff ff ff       	mov    $0xffffffff,%edx
    1d4b:	48 8d 0d fb b4 00 00 	lea    0xb4fb(%rip),%rcx        # d24d <_ZL4font+0x124d>
    1d52:	48 89 ce             	mov    %rcx,%rsi
    1d55:	48 89 c7             	mov    %rax,%rdi
    1d58:	e8 dd 08 00 00       	call   263a <_ZN12BasicConsole7PrintlnEPKcj>
    1d5d:	b8 00 00 00 00       	mov    $0x0,%eax
    1d62:	c9                   	leave
    1d63:	c3                   	ret

0000000000001d64 <_ZN4APIC9CheckAPICEv>:
    1d64:	f3 0f 1e fa          	endbr64
    1d68:	55                   	push   %rbp
    1d69:	48 89 e5             	mov    %rsp,%rbp
    1d6c:	48 83 ec 20          	sub    $0x20,%rsp
    1d70:	48 89 7d e8          	mov    %rdi,-0x18(%rbp)
    1d74:	48 8d 55 f8          	lea    -0x8(%rbp),%rdx
    1d78:	48 8d 45 fc          	lea    -0x4(%rbp),%rax
    1d7c:	48 89 c6             	mov    %rax,%rsi
    1d7f:	bf 01 00 00 00       	mov    $0x1,%edi
    1d84:	e8 96 09 00 00       	call   271f <_Z5cpuidjPjS_>
    1d89:	8b 45 f8             	mov    -0x8(%rbp),%eax
    1d8c:	25 00 02 00 00       	and    $0x200,%eax
    1d91:	85 c0                	test   %eax,%eax
    1d93:	0f 95 c0             	setne  %al
    1d96:	c9                   	leave
    1d97:	c3                   	ret

0000000000001d98 <_ZN4APIC11SetAPICBaseEm>:
    1d98:	f3 0f 1e fa          	endbr64
    1d9c:	55                   	push   %rbp
    1d9d:	48 89 e5             	mov    %rsp,%rbp
    1da0:	48 83 ec 20          	sub    $0x20,%rsp
    1da4:	48 89 7d e8          	mov    %rdi,-0x18(%rbp)
    1da8:	48 89 75 e0          	mov    %rsi,-0x20(%rbp)
    1dac:	c7 45 fc 00 00 00 00 	movl   $0x0,-0x4(%rbp)
    1db3:	48 8b 45 e0          	mov    -0x20(%rbp),%rax
    1db7:	66 b8 00 00          	mov    $0x0,%ax
    1dbb:	80 cc 08             	or     $0x8,%ah
    1dbe:	89 45 f8             	mov    %eax,-0x8(%rbp)
    1dc1:	8b 4d fc             	mov    -0x4(%rbp),%ecx
    1dc4:	8b 55 f8             	mov    -0x8(%rbp),%edx
    1dc7:	48 8b 45 e8          	mov    -0x18(%rbp),%rax
    1dcb:	be 1b 00 00 00       	mov    $0x1b,%esi
    1dd0:	48 89 c7             	mov    %rax,%rdi
    1dd3:	e8 5a 01 00 00       	call   1f32 <_ZN4APIC8WriteMSREjjj>
    1dd8:	90                   	nop
    1dd9:	c9                   	leave
    1dda:	c3                   	ret
    1ddb:	90                   	nop

0000000000001ddc <_ZN4APIC11GetAPICBaseEv>:
    1ddc:	f3 0f 1e fa          	endbr64
    1de0:	55                   	push   %rbp
    1de1:	48 89 e5             	mov    %rsp,%rbp
    1de4:	48 83 ec 20          	sub    $0x20,%rsp
    1de8:	48 89 7d e8          	mov    %rdi,-0x18(%rbp)
    1dec:	48 8d 4d f8          	lea    -0x8(%rbp),%rcx
    1df0:	48 8d 55 fc          	lea    -0x4(%rbp),%rdx
    1df4:	48 8b 45 e8          	mov    -0x18(%rbp),%rax
    1df8:	be 1b 00 00 00       	mov    $0x1b,%esi
    1dfd:	48 89 c7             	mov    %rax,%rdi
    1e00:	e8 fd 00 00 00       	call   1f02 <_ZN4APIC7ReadMSREjPjS0_>
    1e05:	8b 45 fc             	mov    -0x4(%rbp),%eax
    1e08:	89 c0                	mov    %eax,%eax
    1e0a:	25 00 f0 ff ff       	and    $0xfffff000,%eax
    1e0f:	c9                   	leave
    1e10:	c3                   	ret
    1e11:	90                   	nop

0000000000001e12 <_ZN4APIC10EnableAPICEv>:
    1e12:	f3 0f 1e fa          	endbr64
    1e16:	55                   	push   %rbp
    1e17:	48 89 e5             	mov    %rsp,%rbp
    1e1a:	48 83 ec 20          	sub    $0x20,%rsp
    1e1e:	48 89 7d e8          	mov    %rdi,-0x18(%rbp)
    1e22:	48 8d 45 ff          	lea    -0x1(%rbp),%rax
    1e26:	48 89 c7             	mov    %rax,%rdi
    1e29:	e8 b0 05 00 00       	call   23de <_ZN3PICC1Ev>
    1e2e:	48 8d 45 ff          	lea    -0x1(%rbp),%rax
    1e32:	ba 28 00 00 00       	mov    $0x28,%edx
    1e37:	be 20 00 00 00       	mov    $0x20,%esi
    1e3c:	48 89 c7             	mov    %rax,%rdi
    1e3f:	e8 ec 61 00 00       	call   8030 <_ZN3PIC8RemapPICEii>
    1e44:	48 8d 45 ff          	lea    -0x1(%rbp),%rax
    1e48:	48 89 c7             	mov    %rax,%rdi
    1e4b:	e8 fa 62 00 00       	call   814a <_ZN3PIC7DisableEv>
    1e50:	48 8b 45 e8          	mov    -0x18(%rbp),%rax
    1e54:	ba 00 00 00 00       	mov    $0x0,%edx
    1e59:	be 80 00 00 00       	mov    $0x80,%esi
    1e5e:	48 89 c7             	mov    %rax,%rdi
    1e61:	e8 26 01 00 00       	call   1f8c <_ZN4APIC9WriteAPICE8APICRegsj>
    1e66:	48 8b 45 e8          	mov    -0x18(%rbp),%rax
    1e6a:	ba ff ff ff ff       	mov    $0xffffffff,%edx
    1e6f:	be e0 00 00 00       	mov    $0xe0,%esi
    1e74:	48 89 c7             	mov    %rax,%rdi
    1e77:	e8 10 01 00 00       	call   1f8c <_ZN4APIC9WriteAPICE8APICRegsj>
    1e7c:	48 8b 45 e8          	mov    -0x18(%rbp),%rax
    1e80:	ba 00 00 00 01       	mov    $0x1000000,%edx
    1e85:	be d0 00 00 00       	mov    $0xd0,%esi
    1e8a:	48 89 c7             	mov    %rax,%rdi
    1e8d:	e8 fa 00 00 00       	call   1f8c <_ZN4APIC9WriteAPICE8APICRegsj>
    1e92:	48 8b 45 e8          	mov    -0x18(%rbp),%rax
    1e96:	ba ff 01 00 00       	mov    $0x1ff,%edx
    1e9b:	be f0 00 00 00       	mov    $0xf0,%esi
    1ea0:	48 89 c7             	mov    %rax,%rdi
    1ea3:	e8 e4 00 00 00       	call   1f8c <_ZN4APIC9WriteAPICE8APICRegsj>
    1ea8:	90                   	nop
    1ea9:	c9                   	leave
    1eaa:	c3                   	ret
    1eab:	90                   	nop

0000000000001eac <_ZN4APIC18IsInterruptPendingEv>:
    1eac:	f3 0f 1e fa          	endbr64
    1eb0:	55                   	push   %rbp
    1eb1:	48 89 e5             	mov    %rsp,%rbp
    1eb4:	48 83 ec 20          	sub    $0x20,%rsp
    1eb8:	48 89 7d e8          	mov    %rdi,-0x18(%rbp)
    1ebc:	c7 45 fc 00 00 00 00 	movl   $0x0,-0x4(%rbp)
    1ec3:	eb 2f                	jmp    1ef4 <_ZN4APIC18IsInterruptPendingEv+0x48>
    1ec5:	8b 45 fc             	mov    -0x4(%rbp),%eax
    1ec8:	c1 e0 04             	shl    $0x4,%eax
    1ecb:	05 00 02 00 00       	add    $0x200,%eax
    1ed0:	89 c2                	mov    %eax,%edx
    1ed2:	48 8b 45 e8          	mov    -0x18(%rbp),%rax
    1ed6:	89 d6                	mov    %edx,%esi
    1ed8:	48 89 c7             	mov    %rax,%rdi
    1edb:	e8 78 00 00 00       	call   1f58 <_ZN4APIC8ReadAPICE8APICRegs>
    1ee0:	89 45 f8             	mov    %eax,-0x8(%rbp)
    1ee3:	83 7d f8 00          	cmpl   $0x0,-0x8(%rbp)
    1ee7:	74 07                	je     1ef0 <_ZN4APIC18IsInterruptPendingEv+0x44>
    1ee9:	b8 01 00 00 00       	mov    $0x1,%eax
    1eee:	eb 0f                	jmp    1eff <_ZN4APIC18IsInterruptPendingEv+0x53>
    1ef0:	83 45 fc 01          	addl   $0x1,-0x4(%rbp)
    1ef4:	83 7d fc 07          	cmpl   $0x7,-0x4(%rbp)
    1ef8:	7e cb                	jle    1ec5 <_ZN4APIC18IsInterruptPendingEv+0x19>
    1efa:	b8 00 00 00 00       	mov    $0x0,%eax
    1eff:	c9                   	leave
    1f00:	c3                   	ret
    1f01:	90                   	nop

0000000000001f02 <_ZN4APIC7ReadMSREjPjS0_>:
    1f02:	f3 0f 1e fa          	endbr64
    1f06:	55                   	push   %rbp
    1f07:	48 89 e5             	mov    %rsp,%rbp
    1f0a:	48 89 7d f8          	mov    %rdi,-0x8(%rbp)
    1f0e:	89 75 f4             	mov    %esi,-0xc(%rbp)
    1f11:	48 89 55 e8          	mov    %rdx,-0x18(%rbp)
    1f15:	48 89 4d e0          	mov    %rcx,-0x20(%rbp)
    1f19:	8b 45 f4             	mov    -0xc(%rbp),%eax
    1f1c:	89 c1                	mov    %eax,%ecx
    1f1e:	0f 32                	rdmsr
    1f20:	89 c1                	mov    %eax,%ecx
    1f22:	48 8b 45 e8          	mov    -0x18(%rbp),%rax
    1f26:	89 08                	mov    %ecx,(%rax)
    1f28:	48 8b 45 e0          	mov    -0x20(%rbp),%rax
    1f2c:	89 10                	mov    %edx,(%rax)
    1f2e:	90                   	nop
    1f2f:	5d                   	pop    %rbp
    1f30:	c3                   	ret
    1f31:	90                   	nop

0000000000001f32 <_ZN4APIC8WriteMSREjjj>:
    1f32:	f3 0f 1e fa          	endbr64
    1f36:	55                   	push   %rbp
    1f37:	48 89 e5             	mov    %rsp,%rbp
    1f3a:	48 89 7d f8          	mov    %rdi,-0x8(%rbp)
    1f3e:	89 75 f4             	mov    %esi,-0xc(%rbp)
    1f41:	89 55 f0             	mov    %edx,-0x10(%rbp)
    1f44:	89 4d ec             	mov    %ecx,-0x14(%rbp)
    1f47:	8b 4d f4             	mov    -0xc(%rbp),%ecx
    1f4a:	8b 45 f0             	mov    -0x10(%rbp),%eax
    1f4d:	8b 55 ec             	mov    -0x14(%rbp),%edx
    1f50:	0f 30                	wrmsr
    1f52:	0f ae f0             	mfence
    1f55:	90                   	nop
    1f56:	5d                   	pop    %rbp
    1f57:	c3                   	ret

0000000000001f58 <_ZN4APIC8ReadAPICE8APICRegs>:
    1f58:	f3 0f 1e fa          	endbr64
    1f5c:	55                   	push   %rbp
    1f5d:	48 89 e5             	mov    %rsp,%rbp
    1f60:	48 83 ec 20          	sub    $0x20,%rsp
    1f64:	48 89 7d e8          	mov    %rdi,-0x18(%rbp)
    1f68:	89 75 e4             	mov    %esi,-0x1c(%rbp)
    1f6b:	48 8b 45 e8          	mov    -0x18(%rbp),%rax
    1f6f:	48 89 c7             	mov    %rax,%rdi
    1f72:	e8 65 fe ff ff       	call   1ddc <_ZN4APIC11GetAPICBaseEv>
    1f77:	8b 55 e4             	mov    -0x1c(%rbp),%edx
    1f7a:	48 63 d2             	movslq %edx,%rdx
    1f7d:	48 01 d0             	add    %rdx,%rax
    1f80:	48 89 45 f8          	mov    %rax,-0x8(%rbp)
    1f84:	48 8b 45 f8          	mov    -0x8(%rbp),%rax
    1f88:	8b 00                	mov    (%rax),%eax
    1f8a:	c9                   	leave
    1f8b:	c3                   	ret

0000000000001f8c <_ZN4APIC9WriteAPICE8APICRegsj>:
    1f8c:	f3 0f 1e fa          	endbr64
    1f90:	55                   	push   %rbp
    1f91:	48 89 e5             	mov    %rsp,%rbp
    1f94:	48 83 ec 20          	sub    $0x20,%rsp
    1f98:	48 89 7d e8          	mov    %rdi,-0x18(%rbp)
    1f9c:	89 75 e4             	mov    %esi,-0x1c(%rbp)
    1f9f:	89 55 e0             	mov    %edx,-0x20(%rbp)
    1fa2:	48 8b 45 e8          	mov    -0x18(%rbp),%rax
    1fa6:	48 89 c7             	mov    %rax,%rdi
    1fa9:	e8 2e fe ff ff       	call   1ddc <_ZN4APIC11GetAPICBaseEv>
    1fae:	8b 55 e4             	mov    -0x1c(%rbp),%edx
    1fb1:	48 63 d2             	movslq %edx,%rdx
    1fb4:	48 01 d0             	add    %rdx,%rax
    1fb7:	48 89 45 f8          	mov    %rax,-0x8(%rbp)
    1fbb:	48 8b 45 f8          	mov    -0x8(%rbp),%rax
    1fbf:	8b 55 e0             	mov    -0x20(%rbp),%edx
    1fc2:	89 10                	mov    %edx,(%rax)
    1fc4:	90                   	nop
    1fc5:	c9                   	leave
    1fc6:	c3                   	ret
    1fc7:	90                   	nop

0000000000001fc8 <_ZN16LocalVectorTable9GetVectorEv>:
    1fc8:	f3 0f 1e fa          	endbr64
    1fcc:	55                   	push   %rbp
    1fcd:	48 89 e5             	mov    %rsp,%rbp
    1fd0:	48 89 7d f8          	mov    %rdi,-0x8(%rbp)
    1fd4:	48 8b 45 f8          	mov    -0x8(%rbp),%rax
    1fd8:	8b 00                	mov    (%rax),%eax
    1fda:	5d                   	pop    %rbp
    1fdb:	c3                   	ret

0000000000001fdc <_ZN16LocalVectorTable15GetDeliveryModeEv>:
    1fdc:	f3 0f 1e fa          	endbr64
    1fe0:	55                   	push   %rbp
    1fe1:	48 89 e5             	mov    %rsp,%rbp
    1fe4:	48 89 7d f8          	mov    %rdi,-0x8(%rbp)
    1fe8:	48 8b 45 f8          	mov    -0x8(%rbp),%rax
    1fec:	8b 00                	mov    (%rax),%eax
    1fee:	c1 e8 08             	shr    $0x8,%eax
    1ff1:	83 e0 07             	and    $0x7,%eax
    1ff4:	5d                   	pop    %rbp
    1ff5:	c3                   	ret

0000000000001ff6 <_ZN16LocalVectorTable19GetInterruptPendingEv>:
    1ff6:	f3 0f 1e fa          	endbr64
    1ffa:	55                   	push   %rbp
    1ffb:	48 89 e5             	mov    %rsp,%rbp
    1ffe:	48 89 7d f8          	mov    %rdi,-0x8(%rbp)
    2002:	48 8b 45 f8          	mov    -0x8(%rbp),%rax
    2006:	8b 00                	mov    (%rax),%eax
    2008:	25 00 10 00 00       	and    $0x1000,%eax
    200d:	85 c0                	test   %eax,%eax
    200f:	0f 95 c0             	setne  %al
    2012:	5d                   	pop    %rbp
    2013:	c3                   	ret

0000000000002014 <_ZN16LocalVectorTable11GetPolarityEv>:
    2014:	f3 0f 1e fa          	endbr64
    2018:	55                   	push   %rbp
    2019:	48 89 e5             	mov    %rsp,%rbp
    201c:	48 89 7d f8          	mov    %rdi,-0x8(%rbp)
    2020:	48 8b 45 f8          	mov    -0x8(%rbp),%rax
    2024:	8b 00                	mov    (%rax),%eax
    2026:	25 00 20 00 00       	and    $0x2000,%eax
    202b:	85 c0                	test   %eax,%eax
    202d:	0f 95 c0             	setne  %al
    2030:	5d                   	pop    %rbp
    2031:	c3                   	ret

0000000000002032 <_ZN16LocalVectorTable12GetRemoteIRREv>:
    2032:	f3 0f 1e fa          	endbr64
    2036:	55                   	push   %rbp
    2037:	48 89 e5             	mov    %rsp,%rbp
    203a:	48 89 7d f8          	mov    %rdi,-0x8(%rbp)
    203e:	48 8b 45 f8          	mov    -0x8(%rbp),%rax
    2042:	8b 00                	mov    (%rax),%eax
    2044:	25 00 40 00 00       	and    $0x4000,%eax
    2049:	85 c0                	test   %eax,%eax
    204b:	0f 95 c0             	setne  %al
    204e:	5d                   	pop    %rbp
    204f:	c3                   	ret

0000000000002050 <_ZN16LocalVectorTable14GetTriggerModeEv>:
    2050:	f3 0f 1e fa          	endbr64
    2054:	55                   	push   %rbp
    2055:	48 89 e5             	mov    %rsp,%rbp
    2058:	48 89 7d f8          	mov    %rdi,-0x8(%rbp)
    205c:	48 8b 45 f8          	mov    -0x8(%rbp),%rax
    2060:	8b 00                	mov    (%rax),%eax
    2062:	25 00 80 00 00       	and    $0x8000,%eax
    2067:	85 c0                	test   %eax,%eax
    2069:	0f 95 c0             	setne  %al
    206c:	5d                   	pop    %rbp
    206d:	c3                   	ret

000000000000206e <_ZN16LocalVectorTable9GetMaskedEv>:
    206e:	f3 0f 1e fa          	endbr64
    2072:	55                   	push   %rbp
    2073:	48 89 e5             	mov    %rsp,%rbp
    2076:	48 89 7d f8          	mov    %rdi,-0x8(%rbp)
    207a:	48 8b 45 f8          	mov    -0x8(%rbp),%rax
    207e:	8b 00                	mov    (%rax),%eax
    2080:	25 00 00 01 00       	and    $0x10000,%eax
    2085:	85 c0                	test   %eax,%eax
    2087:	0f 95 c0             	setne  %al
    208a:	5d                   	pop    %rbp
    208b:	c3                   	ret

000000000000208c <_ZN16LocalVectorTable9SetVectorEh>:
    208c:	f3 0f 1e fa          	endbr64
    2090:	55                   	push   %rbp
    2091:	48 89 e5             	mov    %rsp,%rbp
    2094:	48 89 7d f8          	mov    %rdi,-0x8(%rbp)
    2098:	89 f0                	mov    %esi,%eax
    209a:	88 45 f4             	mov    %al,-0xc(%rbp)
    209d:	48 8b 45 f8          	mov    -0x8(%rbp),%rax
    20a1:	8b 00                	mov    (%rax),%eax
    20a3:	b0 00                	mov    $0x0,%al
    20a5:	89 c2                	mov    %eax,%edx
    20a7:	0f b6 45 f4          	movzbl -0xc(%rbp),%eax
    20ab:	09 c2                	or     %eax,%edx
    20ad:	48 8b 45 f8          	mov    -0x8(%rbp),%rax
    20b1:	89 10                	mov    %edx,(%rax)
    20b3:	90                   	nop
    20b4:	5d                   	pop    %rbp
    20b5:	c3                   	ret

00000000000020b6 <_ZN16LocalVectorTable15SetDeliveryModeEh>:
    20b6:	f3 0f 1e fa          	endbr64
    20ba:	55                   	push   %rbp
    20bb:	48 89 e5             	mov    %rsp,%rbp
    20be:	48 89 7d f8          	mov    %rdi,-0x8(%rbp)
    20c2:	89 f0                	mov    %esi,%eax
    20c4:	88 45 f4             	mov    %al,-0xc(%rbp)
    20c7:	48 8b 45 f8          	mov    -0x8(%rbp),%rax
    20cb:	8b 00                	mov    (%rax),%eax
    20cd:	80 e4 f8             	and    $0xf8,%ah
    20d0:	89 c2                	mov    %eax,%edx
    20d2:	0f b6 45 f4          	movzbl -0xc(%rbp),%eax
    20d6:	c1 e0 08             	shl    $0x8,%eax
    20d9:	25 00 07 00 00       	and    $0x700,%eax
    20de:	09 c2                	or     %eax,%edx
    20e0:	48 8b 45 f8          	mov    -0x8(%rbp),%rax
    20e4:	89 10                	mov    %edx,(%rax)
    20e6:	90                   	nop
    20e7:	5d                   	pop    %rbp
    20e8:	c3                   	ret
    20e9:	90                   	nop

00000000000020ea <_ZN16LocalVectorTable19SetInterruptPendingEb>:
    20ea:	f3 0f 1e fa          	endbr64
    20ee:	55                   	push   %rbp
    20ef:	48 89 e5             	mov    %rsp,%rbp
    20f2:	48 89 7d f8          	mov    %rdi,-0x8(%rbp)
    20f6:	89 f0                	mov    %esi,%eax
    20f8:	88 45 f4             	mov    %al,-0xc(%rbp)
    20fb:	48 8b 45 f8          	mov    -0x8(%rbp),%rax
    20ff:	8b 00                	mov    (%rax),%eax
    2101:	80 e4 ef             	and    $0xef,%ah
    2104:	89 c2                	mov    %eax,%edx
    2106:	0f b6 45 f4          	movzbl -0xc(%rbp),%eax
    210a:	c1 e0 0c             	shl    $0xc,%eax
    210d:	09 c2                	or     %eax,%edx
    210f:	48 8b 45 f8          	mov    -0x8(%rbp),%rax
    2113:	89 10                	mov    %edx,(%rax)
    2115:	90                   	nop
    2116:	5d                   	pop    %rbp
    2117:	c3                   	ret

0000000000002118 <_ZN16LocalVectorTable11SetPolarityEb>:
    2118:	f3 0f 1e fa          	endbr64
    211c:	55                   	push   %rbp
    211d:	48 89 e5             	mov    %rsp,%rbp
    2120:	48 89 7d f8          	mov    %rdi,-0x8(%rbp)
    2124:	89 f0                	mov    %esi,%eax
    2126:	88 45 f4             	mov    %al,-0xc(%rbp)
    2129:	48 8b 45 f8          	mov    -0x8(%rbp),%rax
    212d:	8b 00                	mov    (%rax),%eax
    212f:	80 e4 df             	and    $0xdf,%ah
    2132:	89 c2                	mov    %eax,%edx
    2134:	0f b6 45 f4          	movzbl -0xc(%rbp),%eax
    2138:	c1 e0 0d             	shl    $0xd,%eax
    213b:	09 c2                	or     %eax,%edx
    213d:	48 8b 45 f8          	mov    -0x8(%rbp),%rax
    2141:	89 10                	mov    %edx,(%rax)
    2143:	90                   	nop
    2144:	5d                   	pop    %rbp
    2145:	c3                   	ret

0000000000002146 <_ZN16LocalVectorTable12SetRemoteIRREb>:
    2146:	f3 0f 1e fa          	endbr64
    214a:	55                   	push   %rbp
    214b:	48 89 e5             	mov    %rsp,%rbp
    214e:	48 89 7d f8          	mov    %rdi,-0x8(%rbp)
    2152:	89 f0                	mov    %esi,%eax
    2154:	88 45 f4             	mov    %al,-0xc(%rbp)
    2157:	48 8b 45 f8          	mov    -0x8(%rbp),%rax
    215b:	8b 00                	mov    (%rax),%eax
    215d:	80 e4 bf             	and    $0xbf,%ah
    2160:	89 c2                	mov    %eax,%edx
    2162:	0f b6 45 f4          	movzbl -0xc(%rbp),%eax
    2166:	c1 e0 0e             	shl    $0xe,%eax
    2169:	09 c2                	or     %eax,%edx
    216b:	48 8b 45 f8          	mov    -0x8(%rbp),%rax
    216f:	89 10                	mov    %edx,(%rax)
    2171:	90                   	nop
    2172:	5d                   	pop    %rbp
    2173:	c3                   	ret

0000000000002174 <_ZN16LocalVectorTable14SetTriggerModeEb>:
    2174:	f3 0f 1e fa          	endbr64
    2178:	55                   	push   %rbp
    2179:	48 89 e5             	mov    %rsp,%rbp
    217c:	48 89 7d f8          	mov    %rdi,-0x8(%rbp)
    2180:	89 f0                	mov    %esi,%eax
    2182:	88 45 f4             	mov    %al,-0xc(%rbp)
    2185:	48 8b 45 f8          	mov    -0x8(%rbp),%rax
    2189:	8b 00                	mov    (%rax),%eax
    218b:	80 e4 7f             	and    $0x7f,%ah
    218e:	89 c2                	mov    %eax,%edx
    2190:	0f b6 45 f4          	movzbl -0xc(%rbp),%eax
    2194:	c1 e0 0f             	shl    $0xf,%eax
    2197:	09 c2                	or     %eax,%edx
    2199:	48 8b 45 f8          	mov    -0x8(%rbp),%rax
    219d:	89 10                	mov    %edx,(%rax)
    219f:	90                   	nop
    21a0:	5d                   	pop    %rbp
    21a1:	c3                   	ret

00000000000021a2 <_ZN16LocalVectorTable9SetMaskedEb>:
    21a2:	f3 0f 1e fa          	endbr64
    21a6:	55                   	push   %rbp
    21a7:	48 89 e5             	mov    %rsp,%rbp
    21aa:	48 89 7d f8          	mov    %rdi,-0x8(%rbp)
    21ae:	89 f0                	mov    %esi,%eax
    21b0:	88 45 f4             	mov    %al,-0xc(%rbp)
    21b3:	48 8b 45 f8          	mov    -0x8(%rbp),%rax
    21b7:	8b 00                	mov    (%rax),%eax
    21b9:	25 ff ff fe ff       	and    $0xfffeffff,%eax
    21be:	89 c2                	mov    %eax,%edx
    21c0:	0f b6 45 f4          	movzbl -0xc(%rbp),%eax
    21c4:	c1 e0 10             	shl    $0x10,%eax
    21c7:	09 c2                	or     %eax,%edx
    21c9:	48 8b 45 f8          	mov    -0x8(%rbp),%rax
    21cd:	89 10                	mov    %edx,(%rax)
    21cf:	90                   	nop
    21d0:	5d                   	pop    %rbp
    21d1:	c3                   	ret

00000000000021d2 <_ZN24InterruptCommandRegister9GetVectorEv>:
    21d2:	f3 0f 1e fa          	endbr64
    21d6:	55                   	push   %rbp
    21d7:	48 89 e5             	mov    %rsp,%rbp
    21da:	48 89 7d f8          	mov    %rdi,-0x8(%rbp)
    21de:	48 8b 45 f8          	mov    -0x8(%rbp),%rax
    21e2:	8b 00                	mov    (%rax),%eax
    21e4:	5d                   	pop    %rbp
    21e5:	c3                   	ret

00000000000021e6 <_ZN24InterruptCommandRegister15GetDeliveryModeEv>:
    21e6:	f3 0f 1e fa          	endbr64
    21ea:	55                   	push   %rbp
    21eb:	48 89 e5             	mov    %rsp,%rbp
    21ee:	48 89 7d f8          	mov    %rdi,-0x8(%rbp)
    21f2:	48 8b 45 f8          	mov    -0x8(%rbp),%rax
    21f6:	8b 00                	mov    (%rax),%eax
    21f8:	c1 e8 08             	shr    $0x8,%eax
    21fb:	83 e0 07             	and    $0x7,%eax
    21fe:	5d                   	pop    %rbp
    21ff:	c3                   	ret

0000000000002200 <_ZN24InterruptCommandRegister18GetDestinationModeEv>:
    2200:	f3 0f 1e fa          	endbr64
    2204:	55                   	push   %rbp
    2205:	48 89 e5             	mov    %rsp,%rbp
    2208:	48 89 7d f8          	mov    %rdi,-0x8(%rbp)
    220c:	48 8b 45 f8          	mov    -0x8(%rbp),%rax
    2210:	8b 00                	mov    (%rax),%eax
    2212:	25 00 08 00 00       	and    $0x800,%eax
    2217:	85 c0                	test   %eax,%eax
    2219:	0f 95 c0             	setne  %al
    221c:	5d                   	pop    %rbp
    221d:	c3                   	ret

000000000000221e <_ZN24InterruptCommandRegister17GetDeliveryStatusEv>:
    221e:	f3 0f 1e fa          	endbr64
    2222:	55                   	push   %rbp
    2223:	48 89 e5             	mov    %rsp,%rbp
    2226:	48 89 7d f8          	mov    %rdi,-0x8(%rbp)
    222a:	48 8b 45 f8          	mov    -0x8(%rbp),%rax
    222e:	8b 00                	mov    (%rax),%eax
    2230:	25 00 10 00 00       	and    $0x1000,%eax
    2235:	85 c0                	test   %eax,%eax
    2237:	0f 95 c0             	setne  %al
    223a:	5d                   	pop    %rbp
    223b:	c3                   	ret

000000000000223c <_ZN24InterruptCommandRegister12GetInitClearEv>:
    223c:	f3 0f 1e fa          	endbr64
    2240:	55                   	push   %rbp
    2241:	48 89 e5             	mov    %rsp,%rbp
    2244:	48 89 7d f8          	mov    %rdi,-0x8(%rbp)
    2248:	48 8b 45 f8          	mov    -0x8(%rbp),%rax
    224c:	8b 00                	mov    (%rax),%eax
    224e:	25 00 40 00 00       	and    $0x4000,%eax
    2253:	85 c0                	test   %eax,%eax
    2255:	0f 95 c0             	setne  %al
    2258:	5d                   	pop    %rbp
    2259:	c3                   	ret

000000000000225a <_ZN24InterruptCommandRegister10GetInitSetEv>:
    225a:	f3 0f 1e fa          	endbr64
    225e:	55                   	push   %rbp
    225f:	48 89 e5             	mov    %rsp,%rbp
    2262:	48 89 7d f8          	mov    %rdi,-0x8(%rbp)
    2266:	48 8b 45 f8          	mov    -0x8(%rbp),%rax
    226a:	8b 00                	mov    (%rax),%eax
    226c:	25 00 80 00 00       	and    $0x8000,%eax
    2271:	85 c0                	test   %eax,%eax
    2273:	0f 95 c0             	setne  %al
    2276:	5d                   	pop    %rbp
    2277:	c3                   	ret

0000000000002278 <_ZN24InterruptCommandRegister18GetDestinationTypeEv>:
    2278:	f3 0f 1e fa          	endbr64
    227c:	55                   	push   %rbp
    227d:	48 89 e5             	mov    %rsp,%rbp
    2280:	48 89 7d f8          	mov    %rdi,-0x8(%rbp)
    2284:	48 8b 45 f8          	mov    -0x8(%rbp),%rax
    2288:	8b 00                	mov    (%rax),%eax
    228a:	c1 e8 12             	shr    $0x12,%eax
    228d:	83 e0 03             	and    $0x3,%eax
    2290:	5d                   	pop    %rbp
    2291:	c3                   	ret

0000000000002292 <_ZN24InterruptCommandRegister9SetVectorEh>:
    2292:	f3 0f 1e fa          	endbr64
    2296:	55                   	push   %rbp
    2297:	48 89 e5             	mov    %rsp,%rbp
    229a:	48 89 7d f8          	mov    %rdi,-0x8(%rbp)
    229e:	89 f0                	mov    %esi,%eax
    22a0:	88 45 f4             	mov    %al,-0xc(%rbp)
    22a3:	48 8b 45 f8          	mov    -0x8(%rbp),%rax
    22a7:	8b 00                	mov    (%rax),%eax
    22a9:	b0 00                	mov    $0x0,%al
    22ab:	89 c2                	mov    %eax,%edx
    22ad:	0f b6 45 f4          	movzbl -0xc(%rbp),%eax
    22b1:	09 c2                	or     %eax,%edx
    22b3:	48 8b 45 f8          	mov    -0x8(%rbp),%rax
    22b7:	89 10                	mov    %edx,(%rax)
    22b9:	90                   	nop
    22ba:	5d                   	pop    %rbp
    22bb:	c3                   	ret

00000000000022bc <_ZN24InterruptCommandRegister15SetDeliveryModeEh>:
    22bc:	f3 0f 1e fa          	endbr64
    22c0:	55                   	push   %rbp
    22c1:	48 89 e5             	mov    %rsp,%rbp
    22c4:	48 89 7d f8          	mov    %rdi,-0x8(%rbp)
    22c8:	89 f0                	mov    %esi,%eax
    22ca:	88 45 f4             	mov    %al,-0xc(%rbp)
    22cd:	48 8b 45 f8          	mov    -0x8(%rbp),%rax
    22d1:	8b 00                	mov    (%rax),%eax
    22d3:	80 e4 f8             	and    $0xf8,%ah
    22d6:	89 c2                	mov    %eax,%edx
    22d8:	0f b6 45 f4          	movzbl -0xc(%rbp),%eax
    22dc:	c1 e0 08             	shl    $0x8,%eax
    22df:	25 00 07 00 00       	and    $0x700,%eax
    22e4:	09 c2                	or     %eax,%edx
    22e6:	48 8b 45 f8          	mov    -0x8(%rbp),%rax
    22ea:	89 10                	mov    %edx,(%rax)
    22ec:	90                   	nop
    22ed:	5d                   	pop    %rbp
    22ee:	c3                   	ret
    22ef:	90                   	nop

00000000000022f0 <_ZN24InterruptCommandRegister18SetDestinationModeEb>:
    22f0:	f3 0f 1e fa          	endbr64
    22f4:	55                   	push   %rbp
    22f5:	48 89 e5             	mov    %rsp,%rbp
    22f8:	48 89 7d f8          	mov    %rdi,-0x8(%rbp)
    22fc:	89 f0                	mov    %esi,%eax
    22fe:	88 45 f4             	mov    %al,-0xc(%rbp)
    2301:	48 8b 45 f8          	mov    -0x8(%rbp),%rax
    2305:	8b 00                	mov    (%rax),%eax
    2307:	80 e4 f7             	and    $0xf7,%ah
    230a:	89 c2                	mov    %eax,%edx
    230c:	0f b6 45 f4          	movzbl -0xc(%rbp),%eax
    2310:	c1 e0 0b             	shl    $0xb,%eax
    2313:	09 c2                	or     %eax,%edx
    2315:	48 8b 45 f8          	mov    -0x8(%rbp),%rax
    2319:	89 10                	mov    %edx,(%rax)
    231b:	90                   	nop
    231c:	5d                   	pop    %rbp
    231d:	c3                   	ret

000000000000231e <_ZN24InterruptCommandRegister17SetDeliveryStatusEb>:
    231e:	f3 0f 1e fa          	endbr64
    2322:	55                   	push   %rbp
    2323:	48 89 e5             	mov    %rsp,%rbp
    2326:	48 89 7d f8          	mov    %rdi,-0x8(%rbp)
    232a:	89 f0                	mov    %esi,%eax
    232c:	88 45 f4             	mov    %al,-0xc(%rbp)
    232f:	48 8b 45 f8          	mov    -0x8(%rbp),%rax
    2333:	8b 00                	mov    (%rax),%eax
    2335:	80 e4 ef             	and    $0xef,%ah
    2338:	89 c2                	mov    %eax,%edx
    233a:	0f b6 45 f4          	movzbl -0xc(%rbp),%eax
    233e:	c1 e0 0c             	shl    $0xc,%eax
    2341:	09 c2                	or     %eax,%edx
    2343:	48 8b 45 f8          	mov    -0x8(%rbp),%rax
    2347:	89 10                	mov    %edx,(%rax)
    2349:	90                   	nop
    234a:	5d                   	pop    %rbp
    234b:	c3                   	ret

000000000000234c <_ZN24InterruptCommandRegister12SetInitClearEb>:
    234c:	f3 0f 1e fa          	endbr64
    2350:	55                   	push   %rbp
    2351:	48 89 e5             	mov    %rsp,%rbp
    2354:	48 89 7d f8          	mov    %rdi,-0x8(%rbp)
    2358:	89 f0                	mov    %esi,%eax
    235a:	88 45 f4             	mov    %al,-0xc(%rbp)
    235d:	48 8b 45 f8          	mov    -0x8(%rbp),%rax
    2361:	8b 00                	mov    (%rax),%eax
    2363:	80 e4 bf             	and    $0xbf,%ah
    2366:	89 c2                	mov    %eax,%edx
    2368:	0f b6 45 f4          	movzbl -0xc(%rbp),%eax
    236c:	c1 e0 0e             	shl    $0xe,%eax
    236f:	09 c2                	or     %eax,%edx
    2371:	48 8b 45 f8          	mov    -0x8(%rbp),%rax
    2375:	89 10                	mov    %edx,(%rax)
    2377:	90                   	nop
    2378:	5d                   	pop    %rbp
    2379:	c3                   	ret

000000000000237a <_ZN24InterruptCommandRegister10SetInitSetEb>:
    237a:	f3 0f 1e fa          	endbr64
    237e:	55                   	push   %rbp
    237f:	48 89 e5             	mov    %rsp,%rbp
    2382:	48 89 7d f8          	mov    %rdi,-0x8(%rbp)
    2386:	89 f0                	mov    %esi,%eax
    2388:	88 45 f4             	mov    %al,-0xc(%rbp)
    238b:	48 8b 45 f8          	mov    -0x8(%rbp),%rax
    238f:	8b 00                	mov    (%rax),%eax
    2391:	80 e4 7f             	and    $0x7f,%ah
    2394:	89 c2                	mov    %eax,%edx
    2396:	0f b6 45 f4          	movzbl -0xc(%rbp),%eax
    239a:	c1 e0 0f             	shl    $0xf,%eax
    239d:	09 c2                	or     %eax,%edx
    239f:	48 8b 45 f8          	mov    -0x8(%rbp),%rax
    23a3:	89 10                	mov    %edx,(%rax)
    23a5:	90                   	nop
    23a6:	5d                   	pop    %rbp
    23a7:	c3                   	ret

00000000000023a8 <_ZN24InterruptCommandRegister18SetDestinationTypeEh>:
    23a8:	f3 0f 1e fa          	endbr64
    23ac:	55                   	push   %rbp
    23ad:	48 89 e5             	mov    %rsp,%rbp
    23b0:	48 89 7d f8          	mov    %rdi,-0x8(%rbp)
    23b4:	89 f0                	mov    %esi,%eax
    23b6:	88 45 f4             	mov    %al,-0xc(%rbp)
    23b9:	48 8b 45 f8          	mov    -0x8(%rbp),%rax
    23bd:	8b 00                	mov    (%rax),%eax
    23bf:	25 ff ff f3 ff       	and    $0xfff3ffff,%eax
    23c4:	89 c2                	mov    %eax,%edx
    23c6:	0f b6 45 f4          	movzbl -0xc(%rbp),%eax
    23ca:	c1 e0 12             	shl    $0x12,%eax
    23cd:	25 00 00 0c 00       	and    $0xc0000,%eax
    23d2:	09 c2                	or     %eax,%edx
    23d4:	48 8b 45 f8          	mov    -0x8(%rbp),%rax
    23d8:	89 10                	mov    %edx,(%rax)
    23da:	90                   	nop
    23db:	5d                   	pop    %rbp
    23dc:	c3                   	ret
    23dd:	90                   	nop

00000000000023de <_ZN3PICC1Ev>:
    23de:	f3 0f 1e fa          	endbr64
    23e2:	55                   	push   %rbp
    23e3:	48 89 e5             	mov    %rsp,%rbp
    23e6:	48 89 7d f8          	mov    %rdi,-0x8(%rbp)
    23ea:	90                   	nop
    23eb:	5d                   	pop    %rbp
    23ec:	c3                   	ret

00000000000023ed <_Z5PrintPKc>:
    23ed:	f3 0f 1e fa          	endbr64
    23f1:	55                   	push   %rbp
    23f2:	48 89 e5             	mov    %rsp,%rbp
    23f5:	48 83 ec 10          	sub    $0x10,%rsp
    23f9:	48 89 7d f8          	mov    %rdi,-0x8(%rbp)
    23fd:	48 8b 05 fc 44 02 00 	mov    0x244fc(%rip),%rax        # 26900 <ks>
    2404:	48 89 c1             	mov    %rax,%rcx
    2407:	48 8b 45 f8          	mov    -0x8(%rbp),%rax
    240b:	ba ff ff ff ff       	mov    $0xffffffff,%edx
    2410:	48 89 c6             	mov    %rax,%rsi
    2413:	48 89 cf             	mov    %rcx,%rdi
    2416:	e8 1f 02 00 00       	call   263a <_ZN12BasicConsole7PrintlnEPKcj>
    241b:	90                   	nop
    241c:	c9                   	leave
    241d:	c3                   	ret

000000000000241e <_ZN12BasicConsoleC1E11FrameBuffer>:
    241e:	f3 0f 1e fa          	endbr64
    2422:	55                   	push   %rbp
    2423:	48 89 e5             	mov    %rsp,%rbp
    2426:	48 89 7d f8          	mov    %rdi,-0x8(%rbp)
    242a:	48 8b 4d f8          	mov    -0x8(%rbp),%rcx
    242e:	48 8b 45 10          	mov    0x10(%rbp),%rax
    2432:	48 8b 55 18          	mov    0x18(%rbp),%rdx
    2436:	48 89 41 08          	mov    %rax,0x8(%rcx)
    243a:	48 89 51 10          	mov    %rdx,0x10(%rcx)
    243e:	48 8b 45 20          	mov    0x20(%rbp),%rax
    2442:	48 8b 55 28          	mov    0x28(%rbp),%rdx
    2446:	48 89 41 18          	mov    %rax,0x18(%rcx)
    244a:	48 89 51 20          	mov    %rdx,0x20(%rcx)
    244e:	48 8b 45 f8          	mov    -0x8(%rbp),%rax
    2452:	c7 00 0a 00 00 00    	movl   $0xa,(%rax)
    2458:	48 8b 45 f8          	mov    -0x8(%rbp),%rax
    245c:	c7 40 04 0a 00 00 00 	movl   $0xa,0x4(%rax)
    2463:	90                   	nop
    2464:	5d                   	pop    %rbp
    2465:	c3                   	ret

0000000000002466 <_ZN12BasicConsole7putCharEjcjj>:
    2466:	f3 0f 1e fa          	endbr64
    246a:	55                   	push   %rbp
    246b:	48 89 e5             	mov    %rsp,%rbp
    246e:	48 89 7d c8          	mov    %rdi,-0x38(%rbp)
    2472:	89 75 c4             	mov    %esi,-0x3c(%rbp)
    2475:	89 d0                	mov    %edx,%eax
    2477:	89 4d bc             	mov    %ecx,-0x44(%rbp)
    247a:	44 89 45 b8          	mov    %r8d,-0x48(%rbp)
    247e:	88 45 c0             	mov    %al,-0x40(%rbp)
    2481:	48 8b 45 c8          	mov    -0x38(%rbp),%rax
    2485:	48 8b 40 08          	mov    0x8(%rax),%rax
    2489:	48 89 45 e8          	mov    %rax,-0x18(%rbp)
    248d:	80 7d c0 00          	cmpb   $0x0,-0x40(%rbp)
    2491:	0f 88 d3 00 00 00    	js     256a <_ZN12BasicConsole7putCharEjcjj+0x104>
    2497:	0f be 45 c0          	movsbl -0x40(%rbp),%eax
    249b:	c1 e0 04             	shl    $0x4,%eax
    249e:	48 98                	cltq
    24a0:	48 8d 15 d9 cd 00 00 	lea    0xcdd9(%rip),%rdx        # f280 <_ZL4font>
    24a7:	48 01 d0             	add    %rdx,%rax
    24aa:	48 89 45 e0          	mov    %rax,-0x20(%rbp)
    24ae:	48 c7 45 f8 00 00 00 	movq   $0x0,-0x8(%rbp)
    24b5:	00 
    24b6:	e9 a2 00 00 00       	jmp    255d <_ZN12BasicConsole7putCharEjcjj+0xf7>
    24bb:	48 c7 45 f0 00 00 00 	movq   $0x0,-0x10(%rbp)
    24c2:	00 
    24c3:	e9 85 00 00 00       	jmp    254d <_ZN12BasicConsole7putCharEjcjj+0xe7>
    24c8:	48 8b 55 e0          	mov    -0x20(%rbp),%rdx
    24cc:	48 8b 45 f8          	mov    -0x8(%rbp),%rax
    24d0:	48 01 d0             	add    %rdx,%rax
    24d3:	0f b6 00             	movzbl (%rax),%eax
    24d6:	0f b6 c0             	movzbl %al,%eax
    24d9:	48 8b 55 f0          	mov    -0x10(%rbp),%rdx
    24dd:	be 80 00 00 00       	mov    $0x80,%esi
    24e2:	89 d1                	mov    %edx,%ecx
    24e4:	d3 fe                	sar    %cl,%esi
    24e6:	89 f2                	mov    %esi,%edx
    24e8:	21 d0                	and    %edx,%eax
    24ea:	85 c0                	test   %eax,%eax
    24ec:	74 5a                	je     2548 <_ZN12BasicConsole7putCharEjcjj+0xe2>
    24ee:	8b 55 bc             	mov    -0x44(%rbp),%edx
    24f1:	48 8b 45 f0          	mov    -0x10(%rbp),%rax
    24f5:	48 8d 0c 02          	lea    (%rdx,%rax,1),%rcx
    24f9:	8b 55 b8             	mov    -0x48(%rbp),%edx
    24fc:	48 8b 45 f8          	mov    -0x8(%rbp),%rax
    2500:	48 01 c2             	add    %rax,%rdx
    2503:	48 8b 45 c8          	mov    -0x38(%rbp),%rax
    2507:	8b 40 20             	mov    0x20(%rax),%eax
    250a:	89 c0                	mov    %eax,%eax
    250c:	48 0f af c2          	imul   %rdx,%rax
    2510:	48 01 c8             	add    %rcx,%rax
    2513:	48 89 45 d8          	mov    %rax,-0x28(%rbp)
    2517:	48 8b 45 c8          	mov    -0x38(%rbp),%rax
    251b:	8b 50 18             	mov    0x18(%rax),%edx
    251e:	48 8b 45 c8          	mov    -0x38(%rbp),%rax
    2522:	8b 40 1c             	mov    0x1c(%rax),%eax
    2525:	0f af c2             	imul   %edx,%eax
    2528:	89 c0                	mov    %eax,%eax
    252a:	48 39 45 d8          	cmp    %rax,-0x28(%rbp)
    252e:	73 18                	jae    2548 <_ZN12BasicConsole7putCharEjcjj+0xe2>
    2530:	48 8b 45 d8          	mov    -0x28(%rbp),%rax
    2534:	48 8d 14 85 00 00 00 	lea    0x0(,%rax,4),%rdx
    253b:	00 
    253c:	48 8b 45 e8          	mov    -0x18(%rbp),%rax
    2540:	48 01 c2             	add    %rax,%rdx
    2543:	8b 45 c4             	mov    -0x3c(%rbp),%eax
    2546:	89 02                	mov    %eax,(%rdx)
    2548:	48 83 45 f0 01       	addq   $0x1,-0x10(%rbp)
    254d:	48 83 7d f0 07       	cmpq   $0x7,-0x10(%rbp)
    2552:	0f 86 70 ff ff ff    	jbe    24c8 <_ZN12BasicConsole7putCharEjcjj+0x62>
    2558:	48 83 45 f8 01       	addq   $0x1,-0x8(%rbp)
    255d:	48 83 7d f8 0f       	cmpq   $0xf,-0x8(%rbp)
    2562:	0f 86 53 ff ff ff    	jbe    24bb <_ZN12BasicConsole7putCharEjcjj+0x55>
    2568:	eb 01                	jmp    256b <_ZN12BasicConsole7putCharEjcjj+0x105>
    256a:	90                   	nop
    256b:	5d                   	pop    %rbp
    256c:	c3                   	ret
    256d:	90                   	nop

000000000000256e <_ZN12BasicConsole5PrintEPKcj>:
    256e:	f3 0f 1e fa          	endbr64
    2572:	55                   	push   %rbp
    2573:	48 89 e5             	mov    %rsp,%rbp
    2576:	48 83 ec 28          	sub    $0x28,%rsp
    257a:	48 89 7d e8          	mov    %rdi,-0x18(%rbp)
    257e:	48 89 75 e0          	mov    %rsi,-0x20(%rbp)
    2582:	89 55 dc             	mov    %edx,-0x24(%rbp)
    2585:	48 8b 45 e0          	mov    -0x20(%rbp),%rax
    2589:	48 89 45 f8          	mov    %rax,-0x8(%rbp)
    258d:	e9 94 00 00 00       	jmp    2626 <_ZN12BasicConsole5PrintEPKcj+0xb8>
    2592:	48 8b 45 f8          	mov    -0x8(%rbp),%rax
    2596:	0f b6 00             	movzbl (%rax),%eax
    2599:	3c 0a                	cmp    $0xa,%al
    259b:	75 1d                	jne    25ba <_ZN12BasicConsole5PrintEPKcj+0x4c>
    259d:	48 8b 45 e8          	mov    -0x18(%rbp),%rax
    25a1:	c7 00 0a 00 00 00    	movl   $0xa,(%rax)
    25a7:	48 8b 45 e8          	mov    -0x18(%rbp),%rax
    25ab:	8b 40 04             	mov    0x4(%rax),%eax
    25ae:	8d 50 10             	lea    0x10(%rax),%edx
    25b1:	48 8b 45 e8          	mov    -0x18(%rbp),%rax
    25b5:	89 50 04             	mov    %edx,0x4(%rax)
    25b8:	eb 67                	jmp    2621 <_ZN12BasicConsole5PrintEPKcj+0xb3>
    25ba:	48 8b 45 e8          	mov    -0x18(%rbp),%rax
    25be:	8b 78 04             	mov    0x4(%rax),%edi
    25c1:	48 8b 45 e8          	mov    -0x18(%rbp),%rax
    25c5:	8b 08                	mov    (%rax),%ecx
    25c7:	48 8b 45 f8          	mov    -0x8(%rbp),%rax
    25cb:	0f b6 00             	movzbl (%rax),%eax
    25ce:	0f be d0             	movsbl %al,%edx
    25d1:	8b 75 dc             	mov    -0x24(%rbp),%esi
    25d4:	48 8b 45 e8          	mov    -0x18(%rbp),%rax
    25d8:	41 89 f8             	mov    %edi,%r8d
    25db:	48 89 c7             	mov    %rax,%rdi
    25de:	e8 83 fe ff ff       	call   2466 <_ZN12BasicConsole7putCharEjcjj>
    25e3:	48 8b 45 e8          	mov    -0x18(%rbp),%rax
    25e7:	8b 00                	mov    (%rax),%eax
    25e9:	8d 50 08             	lea    0x8(%rax),%edx
    25ec:	48 8b 45 e8          	mov    -0x18(%rbp),%rax
    25f0:	89 10                	mov    %edx,(%rax)
    25f2:	48 8b 45 e8          	mov    -0x18(%rbp),%rax
    25f6:	8b 00                	mov    (%rax),%eax
    25f8:	8d 50 0a             	lea    0xa(%rax),%edx
    25fb:	48 8b 45 e8          	mov    -0x18(%rbp),%rax
    25ff:	8b 40 18             	mov    0x18(%rax),%eax
    2602:	39 d0                	cmp    %edx,%eax
    2604:	73 1b                	jae    2621 <_ZN12BasicConsole5PrintEPKcj+0xb3>
    2606:	48 8b 45 e8          	mov    -0x18(%rbp),%rax
    260a:	c7 00 0a 00 00 00    	movl   $0xa,(%rax)
    2610:	48 8b 45 e8          	mov    -0x18(%rbp),%rax
    2614:	8b 40 04             	mov    0x4(%rax),%eax
    2617:	8d 50 10             	lea    0x10(%rax),%edx
    261a:	48 8b 45 e8          	mov    -0x18(%rbp),%rax
    261e:	89 50 04             	mov    %edx,0x4(%rax)
    2621:	48 83 45 f8 01       	addq   $0x1,-0x8(%rbp)
    2626:	48 8b 45 f8          	mov    -0x8(%rbp),%rax
    262a:	0f b6 00             	movzbl (%rax),%eax
    262d:	84 c0                	test   %al,%al
    262f:	0f 85 5d ff ff ff    	jne    2592 <_ZN12BasicConsole5PrintEPKcj+0x24>
    2635:	90                   	nop
    2636:	90                   	nop
    2637:	c9                   	leave
    2638:	c3                   	ret
    2639:	90                   	nop

000000000000263a <_ZN12BasicConsole7PrintlnEPKcj>:
    263a:	f3 0f 1e fa          	endbr64
    263e:	55                   	push   %rbp
    263f:	48 89 e5             	mov    %rsp,%rbp
    2642:	48 83 ec 28          	sub    $0x28,%rsp
    2646:	48 89 7d e8          	mov    %rdi,-0x18(%rbp)
    264a:	48 89 75 e0          	mov    %rsi,-0x20(%rbp)
    264e:	89 55 dc             	mov    %edx,-0x24(%rbp)
    2651:	48 8b 45 e0          	mov    -0x20(%rbp),%rax
    2655:	48 89 45 f8          	mov    %rax,-0x8(%rbp)
    2659:	e9 94 00 00 00       	jmp    26f2 <_ZN12BasicConsole7PrintlnEPKcj+0xb8>
    265e:	48 8b 45 f8          	mov    -0x8(%rbp),%rax
    2662:	0f b6 00             	movzbl (%rax),%eax
    2665:	3c 0a                	cmp    $0xa,%al
    2667:	75 1d                	jne    2686 <_ZN12BasicConsole7PrintlnEPKcj+0x4c>
    2669:	48 8b 45 e8          	mov    -0x18(%rbp),%rax
    266d:	c7 00 0a 00 00 00    	movl   $0xa,(%rax)
    2673:	48 8b 45 e8          	mov    -0x18(%rbp),%rax
    2677:	8b 40 04             	mov    0x4(%rax),%eax
    267a:	8d 50 10             	lea    0x10(%rax),%edx
    267d:	48 8b 45 e8          	mov    -0x18(%rbp),%rax
    2681:	89 50 04             	mov    %edx,0x4(%rax)
    2684:	eb 67                	jmp    26ed <_ZN12BasicConsole7PrintlnEPKcj+0xb3>
    2686:	48 8b 45 e8          	mov    -0x18(%rbp),%rax
    268a:	8b 78 04             	mov    0x4(%rax),%edi
    268d:	48 8b 45 e8          	mov    -0x18(%rbp),%rax
    2691:	8b 08                	mov    (%rax),%ecx
    2693:	48 8b 45 f8          	mov    -0x8(%rbp),%rax
    2697:	0f b6 00             	movzbl (%rax),%eax
    269a:	0f be d0             	movsbl %al,%edx
    269d:	8b 75 dc             	mov    -0x24(%rbp),%esi
    26a0:	48 8b 45 e8          	mov    -0x18(%rbp),%rax
    26a4:	41 89 f8             	mov    %edi,%r8d
    26a7:	48 89 c7             	mov    %rax,%rdi
    26aa:	e8 b7 fd ff ff       	call   2466 <_ZN12BasicConsole7putCharEjcjj>
    26af:	48 8b 45 e8          	mov    -0x18(%rbp),%rax
    26b3:	8b 00                	mov    (%rax),%eax
    26b5:	8d 50 08             	lea    0x8(%rax),%edx
    26b8:	48 8b 45 e8          	mov    -0x18(%rbp),%rax
    26bc:	89 10                	mov    %edx,(%rax)
    26be:	48 8b 45 e8          	mov    -0x18(%rbp),%rax
    26c2:	8b 00                	mov    (%rax),%eax
    26c4:	8d 50 0a             	lea    0xa(%rax),%edx
    26c7:	48 8b 45 e8          	mov    -0x18(%rbp),%rax
    26cb:	8b 40 18             	mov    0x18(%rax),%eax
    26ce:	39 d0                	cmp    %edx,%eax
    26d0:	73 1b                	jae    26ed <_ZN12BasicConsole7PrintlnEPKcj+0xb3>
    26d2:	48 8b 45 e8          	mov    -0x18(%rbp),%rax
    26d6:	c7 00 0a 00 00 00    	movl   $0xa,(%rax)
    26dc:	48 8b 45 e8          	mov    -0x18(%rbp),%rax
    26e0:	8b 40 04             	mov    0x4(%rax),%eax
    26e3:	8d 50 10             	lea    0x10(%rax),%edx
    26e6:	48 8b 45 e8          	mov    -0x18(%rbp),%rax
    26ea:	89 50 04             	mov    %edx,0x4(%rax)
    26ed:	48 83 45 f8 01       	addq   $0x1,-0x8(%rbp)
    26f2:	48 8b 45 f8          	mov    -0x8(%rbp),%rax
    26f6:	0f b6 00             	movzbl (%rax),%eax
    26f9:	84 c0                	test   %al,%al
    26fb:	0f 85 5d ff ff ff    	jne    265e <_ZN12BasicConsole7PrintlnEPKcj+0x24>
    2701:	48 8b 45 e8          	mov    -0x18(%rbp),%rax
    2705:	c7 00 0a 00 00 00    	movl   $0xa,(%rax)
    270b:	48 8b 45 e8          	mov    -0x18(%rbp),%rax
    270f:	8b 40 04             	mov    0x4(%rax),%eax
    2712:	8d 50 10             	lea    0x10(%rax),%edx
    2715:	48 8b 45 e8          	mov    -0x18(%rbp),%rax
    2719:	89 50 04             	mov    %edx,0x4(%rax)
    271c:	90                   	nop
    271d:	c9                   	leave
    271e:	c3                   	ret

000000000000271f <_Z5cpuidjPjS_>:
    271f:	f3 0f 1e fa          	endbr64
    2723:	55                   	push   %rbp
    2724:	48 89 e5             	mov    %rsp,%rbp
    2727:	53                   	push   %rbx
    2728:	89 7d e4             	mov    %edi,-0x1c(%rbp)
    272b:	48 89 75 d8          	mov    %rsi,-0x28(%rbp)
    272f:	48 89 55 d0          	mov    %rdx,-0x30(%rbp)
    2733:	8b 45 e4             	mov    -0x1c(%rbp),%eax
    2736:	0f a2                	cpuid
    2738:	89 de                	mov    %ebx,%esi
    273a:	89 c7                	mov    %eax,%edi
    273c:	48 8b 45 d8          	mov    -0x28(%rbp),%rax
    2740:	89 38                	mov    %edi,(%rax)
    2742:	48 8b 45 d0          	mov    -0x30(%rbp),%rax
    2746:	89 10                	mov    %edx,(%rax)
    2748:	89 75 f4             	mov    %esi,-0xc(%rbp)
    274b:	89 4d f0             	mov    %ecx,-0x10(%rbp)
    274e:	90                   	nop
    274f:	48 8b 5d f8          	mov    -0x8(%rbp),%rbx
    2753:	c9                   	leave
    2754:	c3                   	ret

0000000000002755 <_Z4outbth>:
    2755:	f3 0f 1e fa          	endbr64
    2759:	55                   	push   %rbp
    275a:	48 89 e5             	mov    %rsp,%rbp
    275d:	89 fa                	mov    %edi,%edx
    275f:	89 f0                	mov    %esi,%eax
    2761:	66 89 55 fc          	mov    %dx,-0x4(%rbp)
    2765:	88 45 f8             	mov    %al,-0x8(%rbp)
    2768:	0f b6 45 f8          	movzbl -0x8(%rbp),%eax
    276c:	0f b7 55 fc          	movzwl -0x4(%rbp),%edx
    2770:	ee                   	out    %al,(%dx)
    2771:	90                   	nop
    2772:	5d                   	pop    %rbp
    2773:	c3                   	ret

0000000000002774 <_Z3inbt>:
    2774:	f3 0f 1e fa          	endbr64
    2778:	55                   	push   %rbp
    2779:	48 89 e5             	mov    %rsp,%rbp
    277c:	89 f8                	mov    %edi,%eax
    277e:	66 89 45 ec          	mov    %ax,-0x14(%rbp)
    2782:	0f b7 45 ec          	movzwl -0x14(%rbp),%eax
    2786:	89 c2                	mov    %eax,%edx
    2788:	ec                   	in     (%dx),%al
    2789:	88 45 ff             	mov    %al,-0x1(%rbp)
    278c:	0f b6 45 ff          	movzbl -0x1(%rbp),%eax
    2790:	5d                   	pop    %rbp
    2791:	c3                   	ret

0000000000002792 <_Z4outltj>:
    2792:	f3 0f 1e fa          	endbr64
    2796:	55                   	push   %rbp
    2797:	48 89 e5             	mov    %rsp,%rbp
    279a:	89 f8                	mov    %edi,%eax
    279c:	89 75 f8             	mov    %esi,-0x8(%rbp)
    279f:	66 89 45 fc          	mov    %ax,-0x4(%rbp)
    27a3:	8b 45 f8             	mov    -0x8(%rbp),%eax
    27a6:	0f b7 55 fc          	movzwl -0x4(%rbp),%edx
    27aa:	ef                   	out    %eax,(%dx)
    27ab:	90                   	nop
    27ac:	5d                   	pop    %rbp
    27ad:	c3                   	ret

00000000000027ae <_Z3inlt>:
    27ae:	f3 0f 1e fa          	endbr64
    27b2:	55                   	push   %rbp
    27b3:	48 89 e5             	mov    %rsp,%rbp
    27b6:	89 f8                	mov    %edi,%eax
    27b8:	66 89 45 ec          	mov    %ax,-0x14(%rbp)
    27bc:	0f b7 45 ec          	movzwl -0x14(%rbp),%eax
    27c0:	89 c2                	mov    %eax,%edx
    27c2:	ed                   	in     (%dx),%eax
    27c3:	89 45 fc             	mov    %eax,-0x4(%rbp)
    27c6:	8b 45 fc             	mov    -0x4(%rbp),%eax
    27c9:	5d                   	pop    %rbp
    27ca:	c3                   	ret
    27cb:	90                   	nop

00000000000027cc <_ZN10AccessByte14setAccessedBitEb>:
    27cc:	f3 0f 1e fa          	endbr64
    27d0:	55                   	push   %rbp
    27d1:	48 89 e5             	mov    %rsp,%rbp
    27d4:	48 89 7d f8          	mov    %rdi,-0x8(%rbp)
    27d8:	89 f0                	mov    %esi,%eax
    27da:	88 45 f4             	mov    %al,-0xc(%rbp)
    27dd:	80 7d f4 00          	cmpb   $0x0,-0xc(%rbp)
    27e1:	74 14                	je     27f7 <_ZN10AccessByte14setAccessedBitEb+0x2b>
    27e3:	48 8b 45 f8          	mov    -0x8(%rbp),%rax
    27e7:	0f b6 00             	movzbl (%rax),%eax
    27ea:	83 c8 01             	or     $0x1,%eax
    27ed:	89 c2                	mov    %eax,%edx
    27ef:	48 8b 45 f8          	mov    -0x8(%rbp),%rax
    27f3:	88 10                	mov    %dl,(%rax)
    27f5:	eb 12                	jmp    2809 <_ZN10AccessByte14setAccessedBitEb+0x3d>
    27f7:	48 8b 45 f8          	mov    -0x8(%rbp),%rax
    27fb:	0f b6 00             	movzbl (%rax),%eax
    27fe:	83 e0 fe             	and    $0xfffffffe,%eax
    2801:	89 c2                	mov    %eax,%edx
    2803:	48 8b 45 f8          	mov    -0x8(%rbp),%rax
    2807:	88 10                	mov    %dl,(%rax)
    2809:	90                   	nop
    280a:	5d                   	pop    %rbp
    280b:	c3                   	ret

000000000000280c <_ZN10AccessByte5setRWEb>:
    280c:	f3 0f 1e fa          	endbr64
    2810:	55                   	push   %rbp
    2811:	48 89 e5             	mov    %rsp,%rbp
    2814:	48 89 7d f8          	mov    %rdi,-0x8(%rbp)
    2818:	89 f0                	mov    %esi,%eax
    281a:	88 45 f4             	mov    %al,-0xc(%rbp)
    281d:	80 7d f4 00          	cmpb   $0x0,-0xc(%rbp)
    2821:	74 14                	je     2837 <_ZN10AccessByte5setRWEb+0x2b>
    2823:	48 8b 45 f8          	mov    -0x8(%rbp),%rax
    2827:	0f b6 00             	movzbl (%rax),%eax
    282a:	83 c8 02             	or     $0x2,%eax
    282d:	89 c2                	mov    %eax,%edx
    282f:	48 8b 45 f8          	mov    -0x8(%rbp),%rax
    2833:	88 10                	mov    %dl,(%rax)
    2835:	eb 12                	jmp    2849 <_ZN10AccessByte5setRWEb+0x3d>
    2837:	48 8b 45 f8          	mov    -0x8(%rbp),%rax
    283b:	0f b6 00             	movzbl (%rax),%eax
    283e:	83 e0 fd             	and    $0xfffffffd,%eax
    2841:	89 c2                	mov    %eax,%edx
    2843:	48 8b 45 f8          	mov    -0x8(%rbp),%rax
    2847:	88 10                	mov    %dl,(%rax)
    2849:	90                   	nop
    284a:	5d                   	pop    %rbp
    284b:	c3                   	ret

000000000000284c <_ZN10AccessByte5setDCEb>:
    284c:	f3 0f 1e fa          	endbr64
    2850:	55                   	push   %rbp
    2851:	48 89 e5             	mov    %rsp,%rbp
    2854:	48 89 7d f8          	mov    %rdi,-0x8(%rbp)
    2858:	89 f0                	mov    %esi,%eax
    285a:	88 45 f4             	mov    %al,-0xc(%rbp)
    285d:	80 7d f4 00          	cmpb   $0x0,-0xc(%rbp)
    2861:	74 14                	je     2877 <_ZN10AccessByte5setDCEb+0x2b>
    2863:	48 8b 45 f8          	mov    -0x8(%rbp),%rax
    2867:	0f b6 00             	movzbl (%rax),%eax
    286a:	83 c8 04             	or     $0x4,%eax
    286d:	89 c2                	mov    %eax,%edx
    286f:	48 8b 45 f8          	mov    -0x8(%rbp),%rax
    2873:	88 10                	mov    %dl,(%rax)
    2875:	eb 12                	jmp    2889 <_ZN10AccessByte5setDCEb+0x3d>
    2877:	48 8b 45 f8          	mov    -0x8(%rbp),%rax
    287b:	0f b6 00             	movzbl (%rax),%eax
    287e:	83 e0 fb             	and    $0xfffffffb,%eax
    2881:	89 c2                	mov    %eax,%edx
    2883:	48 8b 45 f8          	mov    -0x8(%rbp),%rax
    2887:	88 10                	mov    %dl,(%rax)
    2889:	90                   	nop
    288a:	5d                   	pop    %rbp
    288b:	c3                   	ret

000000000000288c <_ZN10AccessByte4setEEb>:
    288c:	f3 0f 1e fa          	endbr64
    2890:	55                   	push   %rbp
    2891:	48 89 e5             	mov    %rsp,%rbp
    2894:	48 89 7d f8          	mov    %rdi,-0x8(%rbp)
    2898:	89 f0                	mov    %esi,%eax
    289a:	88 45 f4             	mov    %al,-0xc(%rbp)
    289d:	80 7d f4 00          	cmpb   $0x0,-0xc(%rbp)
    28a1:	74 14                	je     28b7 <_ZN10AccessByte4setEEb+0x2b>
    28a3:	48 8b 45 f8          	mov    -0x8(%rbp),%rax
    28a7:	0f b6 00             	movzbl (%rax),%eax
    28aa:	83 c8 08             	or     $0x8,%eax
    28ad:	89 c2                	mov    %eax,%edx
    28af:	48 8b 45 f8          	mov    -0x8(%rbp),%rax
    28b3:	88 10                	mov    %dl,(%rax)
    28b5:	eb 12                	jmp    28c9 <_ZN10AccessByte4setEEb+0x3d>
    28b7:	48 8b 45 f8          	mov    -0x8(%rbp),%rax
    28bb:	0f b6 00             	movzbl (%rax),%eax
    28be:	83 e0 f7             	and    $0xfffffff7,%eax
    28c1:	89 c2                	mov    %eax,%edx
    28c3:	48 8b 45 f8          	mov    -0x8(%rbp),%rax
    28c7:	88 10                	mov    %dl,(%rax)
    28c9:	90                   	nop
    28ca:	5d                   	pop    %rbp
    28cb:	c3                   	ret

00000000000028cc <_ZN10AccessByte4setSEb>:
    28cc:	f3 0f 1e fa          	endbr64
    28d0:	55                   	push   %rbp
    28d1:	48 89 e5             	mov    %rsp,%rbp
    28d4:	48 89 7d f8          	mov    %rdi,-0x8(%rbp)
    28d8:	89 f0                	mov    %esi,%eax
    28da:	88 45 f4             	mov    %al,-0xc(%rbp)
    28dd:	80 7d f4 00          	cmpb   $0x0,-0xc(%rbp)
    28e1:	74 14                	je     28f7 <_ZN10AccessByte4setSEb+0x2b>
    28e3:	48 8b 45 f8          	mov    -0x8(%rbp),%rax
    28e7:	0f b6 00             	movzbl (%rax),%eax
    28ea:	83 c8 10             	or     $0x10,%eax
    28ed:	89 c2                	mov    %eax,%edx
    28ef:	48 8b 45 f8          	mov    -0x8(%rbp),%rax
    28f3:	88 10                	mov    %dl,(%rax)
    28f5:	eb 12                	jmp    2909 <_ZN10AccessByte4setSEb+0x3d>
    28f7:	48 8b 45 f8          	mov    -0x8(%rbp),%rax
    28fb:	0f b6 00             	movzbl (%rax),%eax
    28fe:	83 e0 ef             	and    $0xffffffef,%eax
    2901:	89 c2                	mov    %eax,%edx
    2903:	48 8b 45 f8          	mov    -0x8(%rbp),%rax
    2907:	88 10                	mov    %dl,(%rax)
    2909:	90                   	nop
    290a:	5d                   	pop    %rbp
    290b:	c3                   	ret

000000000000290c <_ZN10AccessByte6setDPLEh>:
    290c:	f3 0f 1e fa          	endbr64
    2910:	55                   	push   %rbp
    2911:	48 89 e5             	mov    %rsp,%rbp
    2914:	48 89 7d f8          	mov    %rdi,-0x8(%rbp)
    2918:	89 f0                	mov    %esi,%eax
    291a:	88 45 f4             	mov    %al,-0xc(%rbp)
    291d:	48 8b 45 f8          	mov    -0x8(%rbp),%rax
    2921:	0f b6 00             	movzbl (%rax),%eax
    2924:	83 e0 9f             	and    $0xffffff9f,%eax
    2927:	89 c2                	mov    %eax,%edx
    2929:	48 8b 45 f8          	mov    -0x8(%rbp),%rax
    292d:	88 10                	mov    %dl,(%rax)
    292f:	48 8b 45 f8          	mov    -0x8(%rbp),%rax
    2933:	0f b6 00             	movzbl (%rax),%eax
    2936:	89 c2                	mov    %eax,%edx
    2938:	0f b6 45 f4          	movzbl -0xc(%rbp),%eax
    293c:	c1 e0 05             	shl    $0x5,%eax
    293f:	83 e0 60             	and    $0x60,%eax
    2942:	09 d0                	or     %edx,%eax
    2944:	89 c2                	mov    %eax,%edx
    2946:	48 8b 45 f8          	mov    -0x8(%rbp),%rax
    294a:	88 10                	mov    %dl,(%rax)
    294c:	90                   	nop
    294d:	5d                   	pop    %rbp
    294e:	c3                   	ret
    294f:	90                   	nop

0000000000002950 <_ZN10AccessByte4setPEb>:
    2950:	f3 0f 1e fa          	endbr64
    2954:	55                   	push   %rbp
    2955:	48 89 e5             	mov    %rsp,%rbp
    2958:	48 89 7d f8          	mov    %rdi,-0x8(%rbp)
    295c:	89 f0                	mov    %esi,%eax
    295e:	88 45 f4             	mov    %al,-0xc(%rbp)
    2961:	80 7d f4 00          	cmpb   $0x0,-0xc(%rbp)
    2965:	74 14                	je     297b <_ZN10AccessByte4setPEb+0x2b>
    2967:	48 8b 45 f8          	mov    -0x8(%rbp),%rax
    296b:	0f b6 00             	movzbl (%rax),%eax
    296e:	83 c8 80             	or     $0xffffff80,%eax
    2971:	89 c2                	mov    %eax,%edx
    2973:	48 8b 45 f8          	mov    -0x8(%rbp),%rax
    2977:	88 10                	mov    %dl,(%rax)
    2979:	eb 12                	jmp    298d <_ZN10AccessByte4setPEb+0x3d>
    297b:	48 8b 45 f8          	mov    -0x8(%rbp),%rax
    297f:	0f b6 00             	movzbl (%rax),%eax
    2982:	83 e0 7f             	and    $0x7f,%eax
    2985:	89 c2                	mov    %eax,%edx
    2987:	48 8b 45 f8          	mov    -0x8(%rbp),%rax
    298b:	88 10                	mov    %dl,(%rax)
    298d:	90                   	nop
    298e:	5d                   	pop    %rbp
    298f:	c3                   	ret

0000000000002990 <_ZN16SystemAccessByte7setTypeEh>:
    2990:	f3 0f 1e fa          	endbr64
    2994:	55                   	push   %rbp
    2995:	48 89 e5             	mov    %rsp,%rbp
    2998:	48 89 7d f8          	mov    %rdi,-0x8(%rbp)
    299c:	89 f0                	mov    %esi,%eax
    299e:	88 45 f4             	mov    %al,-0xc(%rbp)
    29a1:	48 8b 45 f8          	mov    -0x8(%rbp),%rax
    29a5:	0f b6 00             	movzbl (%rax),%eax
    29a8:	83 e0 f0             	and    $0xfffffff0,%eax
    29ab:	89 c2                	mov    %eax,%edx
    29ad:	48 8b 45 f8          	mov    -0x8(%rbp),%rax
    29b1:	88 10                	mov    %dl,(%rax)
    29b3:	48 8b 45 f8          	mov    -0x8(%rbp),%rax
    29b7:	0f b6 10             	movzbl (%rax),%edx
    29ba:	0f b6 45 f4          	movzbl -0xc(%rbp),%eax
    29be:	83 e0 0f             	and    $0xf,%eax
    29c1:	09 c2                	or     %eax,%edx
    29c3:	48 8b 45 f8          	mov    -0x8(%rbp),%rax
    29c7:	88 10                	mov    %dl,(%rax)
    29c9:	90                   	nop
    29ca:	5d                   	pop    %rbp
    29cb:	c3                   	ret

00000000000029cc <_ZN16SystemAccessByte4setSEb>:
    29cc:	f3 0f 1e fa          	endbr64
    29d0:	55                   	push   %rbp
    29d1:	48 89 e5             	mov    %rsp,%rbp
    29d4:	48 89 7d f8          	mov    %rdi,-0x8(%rbp)
    29d8:	89 f0                	mov    %esi,%eax
    29da:	88 45 f4             	mov    %al,-0xc(%rbp)
    29dd:	80 7d f4 00          	cmpb   $0x0,-0xc(%rbp)
    29e1:	74 14                	je     29f7 <_ZN16SystemAccessByte4setSEb+0x2b>
    29e3:	48 8b 45 f8          	mov    -0x8(%rbp),%rax
    29e7:	0f b6 00             	movzbl (%rax),%eax
    29ea:	83 c8 10             	or     $0x10,%eax
    29ed:	89 c2                	mov    %eax,%edx
    29ef:	48 8b 45 f8          	mov    -0x8(%rbp),%rax
    29f3:	88 10                	mov    %dl,(%rax)
    29f5:	eb 12                	jmp    2a09 <_ZN16SystemAccessByte4setSEb+0x3d>
    29f7:	48 8b 45 f8          	mov    -0x8(%rbp),%rax
    29fb:	0f b6 00             	movzbl (%rax),%eax
    29fe:	83 e0 ef             	and    $0xffffffef,%eax
    2a01:	89 c2                	mov    %eax,%edx
    2a03:	48 8b 45 f8          	mov    -0x8(%rbp),%rax
    2a07:	88 10                	mov    %dl,(%rax)
    2a09:	90                   	nop
    2a0a:	5d                   	pop    %rbp
    2a0b:	c3                   	ret

0000000000002a0c <_ZN16SystemAccessByte6setDPLEh>:
    2a0c:	f3 0f 1e fa          	endbr64
    2a10:	55                   	push   %rbp
    2a11:	48 89 e5             	mov    %rsp,%rbp
    2a14:	48 89 7d f8          	mov    %rdi,-0x8(%rbp)
    2a18:	89 f0                	mov    %esi,%eax
    2a1a:	88 45 f4             	mov    %al,-0xc(%rbp)
    2a1d:	48 8b 45 f8          	mov    -0x8(%rbp),%rax
    2a21:	0f b6 00             	movzbl (%rax),%eax
    2a24:	83 e0 9f             	and    $0xffffff9f,%eax
    2a27:	89 c2                	mov    %eax,%edx
    2a29:	48 8b 45 f8          	mov    -0x8(%rbp),%rax
    2a2d:	88 10                	mov    %dl,(%rax)
    2a2f:	48 8b 45 f8          	mov    -0x8(%rbp),%rax
    2a33:	0f b6 00             	movzbl (%rax),%eax
    2a36:	89 c2                	mov    %eax,%edx
    2a38:	0f b6 45 f4          	movzbl -0xc(%rbp),%eax
    2a3c:	c1 e0 05             	shl    $0x5,%eax
    2a3f:	83 e0 60             	and    $0x60,%eax
    2a42:	09 d0                	or     %edx,%eax
    2a44:	89 c2                	mov    %eax,%edx
    2a46:	48 8b 45 f8          	mov    -0x8(%rbp),%rax
    2a4a:	88 10                	mov    %dl,(%rax)
    2a4c:	90                   	nop
    2a4d:	5d                   	pop    %rbp
    2a4e:	c3                   	ret
    2a4f:	90                   	nop

0000000000002a50 <_ZN16SystemAccessByte4setPEb>:
    2a50:	f3 0f 1e fa          	endbr64
    2a54:	55                   	push   %rbp
    2a55:	48 89 e5             	mov    %rsp,%rbp
    2a58:	48 89 7d f8          	mov    %rdi,-0x8(%rbp)
    2a5c:	89 f0                	mov    %esi,%eax
    2a5e:	88 45 f4             	mov    %al,-0xc(%rbp)
    2a61:	80 7d f4 00          	cmpb   $0x0,-0xc(%rbp)
    2a65:	74 14                	je     2a7b <_ZN16SystemAccessByte4setPEb+0x2b>
    2a67:	48 8b 45 f8          	mov    -0x8(%rbp),%rax
    2a6b:	0f b6 00             	movzbl (%rax),%eax
    2a6e:	83 c8 80             	or     $0xffffff80,%eax
    2a71:	89 c2                	mov    %eax,%edx
    2a73:	48 8b 45 f8          	mov    -0x8(%rbp),%rax
    2a77:	88 10                	mov    %dl,(%rax)
    2a79:	eb 12                	jmp    2a8d <_ZN16SystemAccessByte4setPEb+0x3d>
    2a7b:	48 8b 45 f8          	mov    -0x8(%rbp),%rax
    2a7f:	0f b6 00             	movzbl (%rax),%eax
    2a82:	83 e0 7f             	and    $0x7f,%eax
    2a85:	89 c2                	mov    %eax,%edx
    2a87:	48 8b 45 f8          	mov    -0x8(%rbp),%rax
    2a8b:	88 10                	mov    %dl,(%rax)
    2a8d:	90                   	nop
    2a8e:	5d                   	pop    %rbp
    2a8f:	c3                   	ret

0000000000002a90 <_ZN3GDT10InitializeEP12BasicConsole>:
    2a90:	f3 0f 1e fa          	endbr64
    2a94:	55                   	push   %rbp
    2a95:	48 89 e5             	mov    %rsp,%rbp
    2a98:	48 89 7d f8          	mov    %rdi,-0x8(%rbp)
    2a9c:	48 89 75 f0          	mov    %rsi,-0x10(%rbp)
    2aa0:	48 8b 45 f8          	mov    -0x8(%rbp),%rax
    2aa4:	48 8b 55 f0          	mov    -0x10(%rbp),%rdx
    2aa8:	48 89 10             	mov    %rdx,(%rax)
    2aab:	90                   	nop
    2aac:	5d                   	pop    %rbp
    2aad:	c3                   	ret

0000000000002aae <_ZN3GDT14Create64BitGDTEv>:
    2aae:	f3 0f 1e fa          	endbr64
    2ab2:	55                   	push   %rbp
    2ab3:	48 89 e5             	mov    %rsp,%rbp
    2ab6:	48 83 ec 20          	sub    $0x20,%rsp
    2aba:	48 89 7d e8          	mov    %rdi,-0x18(%rbp)
    2abe:	48 8b 45 e8          	mov    -0x18(%rbp),%rax
    2ac2:	48 83 c0 08          	add    $0x8,%rax
    2ac6:	41 b8 00 00 00 00    	mov    $0x0,%r8d
    2acc:	b9 00 00 00 00       	mov    $0x0,%ecx
    2ad1:	ba 00 00 00 00       	mov    $0x0,%edx
    2ad6:	be 00 00 00 00       	mov    $0x0,%esi
    2adb:	48 89 c7             	mov    %rax,%rdi
    2ade:	e8 1b 01 00 00       	call   2bfe <_ZN17SegmentDescriptor3setEjjhh>
    2ae3:	48 8b 45 e8          	mov    -0x18(%rbp),%rax
    2ae7:	48 83 c0 10          	add    $0x10,%rax
    2aeb:	41 b8 0a 00 00 00    	mov    $0xa,%r8d
    2af1:	b9 9a 00 00 00       	mov    $0x9a,%ecx
    2af6:	ba ff ff 0f 00       	mov    $0xfffff,%edx
    2afb:	be 00 00 00 00       	mov    $0x0,%esi
    2b00:	48 89 c7             	mov    %rax,%rdi
    2b03:	e8 f6 00 00 00       	call   2bfe <_ZN17SegmentDescriptor3setEjjhh>
    2b08:	48 8b 45 e8          	mov    -0x18(%rbp),%rax
    2b0c:	48 83 c0 18          	add    $0x18,%rax
    2b10:	41 b8 0c 00 00 00    	mov    $0xc,%r8d
    2b16:	b9 92 00 00 00       	mov    $0x92,%ecx
    2b1b:	ba ff ff 0f 00       	mov    $0xfffff,%edx
    2b20:	be 00 00 00 00       	mov    $0x0,%esi
    2b25:	48 89 c7             	mov    %rax,%rdi
    2b28:	e8 d1 00 00 00       	call   2bfe <_ZN17SegmentDescriptor3setEjjhh>
    2b2d:	48 8b 45 e8          	mov    -0x18(%rbp),%rax
    2b31:	48 83 c0 20          	add    $0x20,%rax
    2b35:	41 b8 0a 00 00 00    	mov    $0xa,%r8d
    2b3b:	b9 fa 00 00 00       	mov    $0xfa,%ecx
    2b40:	ba ff ff 0f 00       	mov    $0xfffff,%edx
    2b45:	be 00 00 00 00       	mov    $0x0,%esi
    2b4a:	48 89 c7             	mov    %rax,%rdi
    2b4d:	e8 ac 00 00 00       	call   2bfe <_ZN17SegmentDescriptor3setEjjhh>
    2b52:	48 8b 45 e8          	mov    -0x18(%rbp),%rax
    2b56:	48 83 c0 28          	add    $0x28,%rax
    2b5a:	41 b8 0c 00 00 00    	mov    $0xc,%r8d
    2b60:	b9 f2 00 00 00       	mov    $0xf2,%ecx
    2b65:	ba ff ff 0f 00       	mov    $0xfffff,%edx
    2b6a:	be 00 00 00 00       	mov    $0x0,%esi
    2b6f:	48 89 c7             	mov    %rax,%rdi
    2b72:	e8 87 00 00 00       	call   2bfe <_ZN17SegmentDescriptor3setEjjhh>
    2b77:	48 c7 45 f6 00 00 00 	movq   $0x0,-0xa(%rbp)
    2b7e:	00 
    2b7f:	66 c7 45 fe 00 00    	movw   $0x0,-0x2(%rbp)
    2b85:	66 c7 45 f6 27 00    	movw   $0x27,-0xa(%rbp)
    2b8b:	48 8b 45 e8          	mov    -0x18(%rbp),%rax
    2b8f:	48 83 c0 08          	add    $0x8,%rax
    2b93:	48 89 45 f8          	mov    %rax,-0x8(%rbp)
    2b97:	48 8d 55 f6          	lea    -0xa(%rbp),%rdx
    2b9b:	48 8b 45 e8          	mov    -0x18(%rbp),%rax
    2b9f:	48 89 d6             	mov    %rdx,%rsi
    2ba2:	48 89 c7             	mov    %rax,%rdi
    2ba5:	e8 10 00 00 00       	call   2bba <_ZN3GDT8load_gdtEPv>
    2baa:	48 8b 45 e8          	mov    -0x18(%rbp),%rax
    2bae:	48 89 c7             	mov    %rax,%rdi
    2bb1:	e8 1e 00 00 00       	call   2bd4 <_ZN3GDT15reload_segmentsEv>
    2bb6:	90                   	nop
    2bb7:	c9                   	leave
    2bb8:	c3                   	ret
    2bb9:	90                   	nop

0000000000002bba <_ZN3GDT8load_gdtEPv>:
    2bba:	f3 0f 1e fa          	endbr64
    2bbe:	55                   	push   %rbp
    2bbf:	48 89 e5             	mov    %rsp,%rbp
    2bc2:	48 89 7d f8          	mov    %rdi,-0x8(%rbp)
    2bc6:	48 89 75 f0          	mov    %rsi,-0x10(%rbp)
    2bca:	48 8b 45 f0          	mov    -0x10(%rbp),%rax
    2bce:	0f 01 10             	lgdt   (%rax)
    2bd1:	90                   	nop
    2bd2:	5d                   	pop    %rbp
    2bd3:	c3                   	ret

0000000000002bd4 <_ZN3GDT15reload_segmentsEv>:
    2bd4:	f3 0f 1e fa          	endbr64
    2bd8:	55                   	push   %rbp
    2bd9:	48 89 e5             	mov    %rsp,%rbp
    2bdc:	48 89 7d f8          	mov    %rdi,-0x8(%rbp)
    2be0:	66 b8 10 00          	mov    $0x10,%ax
    2be4:	8e d8                	mov    %eax,%ds
    2be6:	8e c0                	mov    %eax,%es
    2be8:	8e d0                	mov    %eax,%ss
    2bea:	8e e0                	mov    %eax,%fs
    2bec:	8e e8                	mov    %eax,%gs
    2bee:	6a 08                	push   $0x8
    2bf0:	48 8d 05 03 00 00 00 	lea    0x3(%rip),%rax        # 2bfa <_ZN3GDT15reload_segmentsEv+0x26>
    2bf7:	50                   	push   %rax
    2bf8:	48 cb                	lretq
    2bfa:	90                   	nop
    2bfb:	5d                   	pop    %rbp
    2bfc:	c3                   	ret
    2bfd:	90                   	nop

0000000000002bfe <_ZN17SegmentDescriptor3setEjjhh>:
    2bfe:	f3 0f 1e fa          	endbr64
    2c02:	55                   	push   %rbp
    2c03:	48 89 e5             	mov    %rsp,%rbp
    2c06:	48 89 7d f8          	mov    %rdi,-0x8(%rbp)
    2c0a:	89 75 f4             	mov    %esi,-0xc(%rbp)
    2c0d:	89 55 f0             	mov    %edx,-0x10(%rbp)
    2c10:	89 c8                	mov    %ecx,%eax
    2c12:	44 89 c2             	mov    %r8d,%edx
    2c15:	88 45 ec             	mov    %al,-0x14(%rbp)
    2c18:	89 d0                	mov    %edx,%eax
    2c1a:	88 45 e8             	mov    %al,-0x18(%rbp)
    2c1d:	48 8b 45 f8          	mov    -0x8(%rbp),%rax
    2c21:	48 c7 00 00 00 00 00 	movq   $0x0,(%rax)
    2c28:	48 8b 45 f8          	mov    -0x8(%rbp),%rax
    2c2c:	48 8b 10             	mov    (%rax),%rdx
    2c2f:	8b 45 f0             	mov    -0x10(%rbp),%eax
    2c32:	0f b7 c0             	movzwl %ax,%eax
    2c35:	48 09 c2             	or     %rax,%rdx
    2c38:	48 8b 45 f8          	mov    -0x8(%rbp),%rax
    2c3c:	48 89 10             	mov    %rdx,(%rax)
    2c3f:	48 8b 45 f8          	mov    -0x8(%rbp),%rax
    2c43:	48 8b 10             	mov    (%rax),%rdx
    2c46:	48 8b 45 f8          	mov    -0x8(%rbp),%rax
    2c4a:	48 89 10             	mov    %rdx,(%rax)
    2c4d:	48 8b 45 f8          	mov    -0x8(%rbp),%rax
    2c51:	48 8b 00             	mov    (%rax),%rax
    2c54:	8b 55 f4             	mov    -0xc(%rbp),%edx
    2c57:	c1 e2 10             	shl    $0x10,%edx
    2c5a:	89 d2                	mov    %edx,%edx
    2c5c:	48 09 c2             	or     %rax,%rdx
    2c5f:	48 8b 45 f8          	mov    -0x8(%rbp),%rax
    2c63:	48 89 10             	mov    %rdx,(%rax)
    2c66:	48 8b 45 f8          	mov    -0x8(%rbp),%rax
    2c6a:	48 8b 10             	mov    (%rax),%rdx
    2c6d:	48 8b 45 f8          	mov    -0x8(%rbp),%rax
    2c71:	48 89 10             	mov    %rdx,(%rax)
    2c74:	48 8b 45 f8          	mov    -0x8(%rbp),%rax
    2c78:	48 8b 10             	mov    (%rax),%rdx
    2c7b:	48 8b 45 f8          	mov    -0x8(%rbp),%rax
    2c7f:	48 89 10             	mov    %rdx,(%rax)
    2c82:	48 8b 45 f8          	mov    -0x8(%rbp),%rax
    2c86:	48 8b 00             	mov    (%rax),%rax
    2c89:	0f b6 55 ec          	movzbl -0x14(%rbp),%edx
    2c8d:	48 c1 e2 28          	shl    $0x28,%rdx
    2c91:	48 09 c2             	or     %rax,%rdx
    2c94:	48 8b 45 f8          	mov    -0x8(%rbp),%rax
    2c98:	48 89 10             	mov    %rdx,(%rax)
    2c9b:	48 8b 45 f8          	mov    -0x8(%rbp),%rax
    2c9f:	48 8b 00             	mov    (%rax),%rax
    2ca2:	0f b6 55 e8          	movzbl -0x18(%rbp),%edx
    2ca6:	48 89 d1             	mov    %rdx,%rcx
    2ca9:	48 c1 e1 34          	shl    $0x34,%rcx
    2cad:	48 ba 00 00 00 00 00 	movabs $0xf0000000000000,%rdx
    2cb4:	00 f0 00 
    2cb7:	48 21 ca             	and    %rcx,%rdx
    2cba:	48 09 c2             	or     %rax,%rdx
    2cbd:	48 8b 45 f8          	mov    -0x8(%rbp),%rax
    2cc1:	48 89 10             	mov    %rdx,(%rax)
    2cc4:	90                   	nop
    2cc5:	5d                   	pop    %rbp
    2cc6:	c3                   	ret
    2cc7:	90                   	nop

0000000000002cc8 <exception_handler>:
    2cc8:	f3 0f 1e fa          	endbr64
    2ccc:	55                   	push   %rbp
    2ccd:	48 89 e5             	mov    %rsp,%rbp
    2cd0:	53                   	push   %rbx
    2cd1:	48 83 ec 18          	sub    $0x18,%rsp
    2cd5:	48 89 7d e8          	mov    %rdi,-0x18(%rbp)
    2cd9:	48 89 75 e0          	mov    %rsi,-0x20(%rbp)
    2cdd:	48 8b 05 1c 3c 02 00 	mov    0x23c1c(%rip),%rax        # 26900 <ks>
    2ce4:	48 89 c1             	mov    %rax,%rcx
    2ce7:	ba ff ff ff ff       	mov    $0xffffffff,%edx
    2cec:	48 8d 05 8d f5 00 00 	lea    0xf58d(%rip),%rax        # 12280 <_ZL4font+0x1000>
    2cf3:	48 89 c6             	mov    %rax,%rsi
    2cf6:	48 89 cf             	mov    %rcx,%rdi
    2cf9:	e8 70 f8 ff ff       	call   256e <_ZN12BasicConsole5PrintEPKcj>
    2cfe:	48 8b 05 fb 3b 02 00 	mov    0x23bfb(%rip),%rax        # 26900 <ks>
    2d05:	48 89 c3             	mov    %rax,%rbx
    2d08:	48 8b 45 e8          	mov    -0x18(%rbp),%rax
    2d0c:	48 89 c7             	mov    %rax,%rdi
    2d0f:	e8 20 79 00 00       	call   a634 <_Z10to_hstringm>
    2d14:	ba ff ff ff ff       	mov    $0xffffffff,%edx
    2d19:	48 89 c6             	mov    %rax,%rsi
    2d1c:	48 89 df             	mov    %rbx,%rdi
    2d1f:	e8 4a f8 ff ff       	call   256e <_ZN12BasicConsole5PrintEPKcj>
    2d24:	48 8b 05 d5 3b 02 00 	mov    0x23bd5(%rip),%rax        # 26900 <ks>
    2d2b:	48 89 c1             	mov    %rax,%rcx
    2d2e:	ba ff ff ff ff       	mov    $0xffffffff,%edx
    2d33:	48 8d 05 5c f5 00 00 	lea    0xf55c(%rip),%rax        # 12296 <_ZL4font+0x1016>
    2d3a:	48 89 c6             	mov    %rax,%rsi
    2d3d:	48 89 cf             	mov    %rcx,%rdi
    2d40:	e8 29 f8 ff ff       	call   256e <_ZN12BasicConsole5PrintEPKcj>
    2d45:	48 8b 05 b4 3b 02 00 	mov    0x23bb4(%rip),%rax        # 26900 <ks>
    2d4c:	48 89 c3             	mov    %rax,%rbx
    2d4f:	48 8b 45 e8          	mov    -0x18(%rbp),%rax
    2d53:	48 89 c7             	mov    %rax,%rdi
    2d56:	e8 d9 78 00 00       	call   a634 <_Z10to_hstringm>
    2d5b:	ba ff ff ff ff       	mov    $0xffffffff,%edx
    2d60:	48 89 c6             	mov    %rax,%rsi
    2d63:	48 89 df             	mov    %rbx,%rdi
    2d66:	e8 cf f8 ff ff       	call   263a <_ZN12BasicConsole7PrintlnEPKcj>
    2d6b:	fa                   	cli
    2d6c:	f4                   	hlt
    2d6d:	eb fc                	jmp    2d6b <exception_handler+0xa3>

0000000000002d6f <hardware_handler>:
    2d6f:	f3 0f 1e fa          	endbr64
    2d73:	55                   	push   %rbp
    2d74:	48 89 e5             	mov    %rsp,%rbp
    2d77:	53                   	push   %rbx
    2d78:	48 83 ec 18          	sub    $0x18,%rsp
    2d7c:	48 89 7d e8          	mov    %rdi,-0x18(%rbp)
    2d80:	48 8b 05 79 3b 02 00 	mov    0x23b79(%rip),%rax        # 26900 <ks>
    2d87:	48 89 c1             	mov    %rax,%rcx
    2d8a:	ba ff ff ff ff       	mov    $0xffffffff,%edx
    2d8f:	48 8d 05 12 f5 00 00 	lea    0xf512(%rip),%rax        # 122a8 <_ZL4font+0x1028>
    2d96:	48 89 c6             	mov    %rax,%rsi
    2d99:	48 89 cf             	mov    %rcx,%rdi
    2d9c:	e8 cd f7 ff ff       	call   256e <_ZN12BasicConsole5PrintEPKcj>
    2da1:	48 8b 05 58 3b 02 00 	mov    0x23b58(%rip),%rax        # 26900 <ks>
    2da8:	48 89 c3             	mov    %rax,%rbx
    2dab:	48 8b 45 e8          	mov    -0x18(%rbp),%rax
    2daf:	48 89 c7             	mov    %rax,%rdi
    2db2:	e8 7d 78 00 00       	call   a634 <_Z10to_hstringm>
    2db7:	ba ff ff ff ff       	mov    $0xffffffff,%edx
    2dbc:	48 89 c6             	mov    %rax,%rsi
    2dbf:	48 89 df             	mov    %rbx,%rdi
    2dc2:	e8 73 f8 ff ff       	call   263a <_ZN12BasicConsole7PrintlnEPKcj>
    2dc7:	48 8b 05 32 3b 02 00 	mov    0x23b32(%rip),%rax        # 26900 <ks>
    2dce:	48 05 00 11 00 00    	add    $0x1100,%rax
    2dd4:	ba 00 00 00 00       	mov    $0x0,%edx
    2dd9:	be b0 00 00 00       	mov    $0xb0,%esi
    2dde:	48 89 c7             	mov    %rax,%rdi
    2de1:	e8 a6 f1 ff ff       	call   1f8c <_ZN4APIC9WriteAPICE8APICRegsj>
    2de6:	90                   	nop
    2de7:	48 8b 5d f8          	mov    -0x8(%rbp),%rbx
    2deb:	c9                   	leave
    2dec:	c3                   	ret

0000000000002ded <apic_handler>:
    2ded:	f3 0f 1e fa          	endbr64
    2df1:	55                   	push   %rbp
    2df2:	48 89 e5             	mov    %rsp,%rbp
    2df5:	53                   	push   %rbx
    2df6:	48 83 ec 18          	sub    $0x18,%rsp
    2dfa:	48 89 7d e8          	mov    %rdi,-0x18(%rbp)
    2dfe:	48 8b 05 fb 3a 02 00 	mov    0x23afb(%rip),%rax        # 26900 <ks>
    2e05:	48 89 c1             	mov    %rax,%rcx
    2e08:	ba ff ff ff ff       	mov    $0xffffffff,%edx
    2e0d:	48 8d 05 b3 f4 00 00 	lea    0xf4b3(%rip),%rax        # 122c7 <_ZL4font+0x1047>
    2e14:	48 89 c6             	mov    %rax,%rsi
    2e17:	48 89 cf             	mov    %rcx,%rdi
    2e1a:	e8 4f f7 ff ff       	call   256e <_ZN12BasicConsole5PrintEPKcj>
    2e1f:	48 8b 05 da 3a 02 00 	mov    0x23ada(%rip),%rax        # 26900 <ks>
    2e26:	48 89 c3             	mov    %rax,%rbx
    2e29:	48 8b 45 e8          	mov    -0x18(%rbp),%rax
    2e2d:	48 89 c7             	mov    %rax,%rdi
    2e30:	e8 ff 77 00 00       	call   a634 <_Z10to_hstringm>
    2e35:	ba ff ff ff ff       	mov    $0xffffffff,%edx
    2e3a:	48 89 c6             	mov    %rax,%rsi
    2e3d:	48 89 df             	mov    %rbx,%rdi
    2e40:	e8 f5 f7 ff ff       	call   263a <_ZN12BasicConsole7PrintlnEPKcj>
    2e45:	48 8b 05 b4 3a 02 00 	mov    0x23ab4(%rip),%rax        # 26900 <ks>
    2e4c:	48 05 00 11 00 00    	add    $0x1100,%rax
    2e52:	ba 00 00 00 00       	mov    $0x0,%edx
    2e57:	be b0 00 00 00       	mov    $0xb0,%esi
    2e5c:	48 89 c7             	mov    %rax,%rdi
    2e5f:	e8 28 f1 ff ff       	call   1f8c <_ZN4APIC9WriteAPICE8APICRegsj>
    2e64:	90                   	nop
    2e65:	48 8b 5d f8          	mov    -0x8(%rbp),%rbx
    2e69:	c9                   	leave
    2e6a:	c3                   	ret
    2e6b:	90                   	nop

0000000000002e6c <_ZN3IDT10InitializeEP12BasicConsole>:
    2e6c:	f3 0f 1e fa          	endbr64
    2e70:	55                   	push   %rbp
    2e71:	48 89 e5             	mov    %rsp,%rbp
    2e74:	48 89 7d f8          	mov    %rdi,-0x8(%rbp)
    2e78:	48 89 75 f0          	mov    %rsi,-0x10(%rbp)
    2e7c:	48 8b 45 f8          	mov    -0x8(%rbp),%rax
    2e80:	48 8b 55 f0          	mov    -0x10(%rbp),%rdx
    2e84:	48 89 10             	mov    %rdx,(%rax)
    2e87:	90                   	nop
    2e88:	5d                   	pop    %rbp
    2e89:	c3                   	ret

0000000000002e8a <_ZN3IDT13SetDescriptorEhPvh>:
    2e8a:	f3 0f 1e fa          	endbr64
    2e8e:	55                   	push   %rbp
    2e8f:	48 89 e5             	mov    %rsp,%rbp
    2e92:	48 89 7d e8          	mov    %rdi,-0x18(%rbp)
    2e96:	48 89 55 d8          	mov    %rdx,-0x28(%rbp)
    2e9a:	89 c8                	mov    %ecx,%eax
    2e9c:	89 f2                	mov    %esi,%edx
    2e9e:	88 55 e4             	mov    %dl,-0x1c(%rbp)
    2ea1:	88 45 e0             	mov    %al,-0x20(%rbp)
    2ea4:	0f b6 45 e4          	movzbl -0x1c(%rbp),%eax
    2ea8:	48 98                	cltq
    2eaa:	48 83 c0 02          	add    $0x2,%rax
    2eae:	48 c1 e0 04          	shl    $0x4,%rax
    2eb2:	48 89 c2             	mov    %rax,%rdx
    2eb5:	48 8b 45 e8          	mov    -0x18(%rbp),%rax
    2eb9:	48 01 d0             	add    %rdx,%rax
    2ebc:	48 89 45 f8          	mov    %rax,-0x8(%rbp)
    2ec0:	48 8b 45 d8          	mov    -0x28(%rbp),%rax
    2ec4:	89 c2                	mov    %eax,%edx
    2ec6:	48 8b 45 f8          	mov    -0x8(%rbp),%rax
    2eca:	66 89 10             	mov    %dx,(%rax)
    2ecd:	48 8b 45 f8          	mov    -0x8(%rbp),%rax
    2ed1:	66 c7 40 02 08 00    	movw   $0x8,0x2(%rax)
    2ed7:	48 8b 45 f8          	mov    -0x8(%rbp),%rax
    2edb:	c6 40 04 00          	movb   $0x0,0x4(%rax)
    2edf:	48 8b 45 f8          	mov    -0x8(%rbp),%rax
    2ee3:	0f b6 55 e0          	movzbl -0x20(%rbp),%edx
    2ee7:	88 50 05             	mov    %dl,0x5(%rax)
    2eea:	48 8b 45 d8          	mov    -0x28(%rbp),%rax
    2eee:	48 c1 e8 10          	shr    $0x10,%rax
    2ef2:	89 c2                	mov    %eax,%edx
    2ef4:	48 8b 45 f8          	mov    -0x8(%rbp),%rax
    2ef8:	66 89 50 06          	mov    %dx,0x6(%rax)
    2efc:	48 8b 45 d8          	mov    -0x28(%rbp),%rax
    2f00:	48 c1 e8 20          	shr    $0x20,%rax
    2f04:	89 c2                	mov    %eax,%edx
    2f06:	48 8b 45 f8          	mov    -0x8(%rbp),%rax
    2f0a:	89 50 08             	mov    %edx,0x8(%rax)
    2f0d:	48 8b 45 f8          	mov    -0x8(%rbp),%rax
    2f11:	c7 40 0c 00 00 00 00 	movl   $0x0,0xc(%rax)
    2f18:	90                   	nop
    2f19:	5d                   	pop    %rbp
    2f1a:	c3                   	ret
    2f1b:	90                   	nop

0000000000002f1c <_ZN3IDT9CreateIDTEv>:
    2f1c:	f3 0f 1e fa          	endbr64
    2f20:	55                   	push   %rbp
    2f21:	48 89 e5             	mov    %rsp,%rbp
    2f24:	48 83 ec 18          	sub    $0x18,%rsp
    2f28:	48 89 7d e8          	mov    %rdi,-0x18(%rbp)
    2f2c:	48 8b 45 e8          	mov    -0x18(%rbp),%rax
    2f30:	48 83 c0 20          	add    $0x20,%rax
    2f34:	48 89 c2             	mov    %rax,%rdx
    2f37:	48 8b 45 e8          	mov    -0x18(%rbp),%rax
    2f3b:	48 89 50 0a          	mov    %rdx,0xa(%rax)
    2f3f:	48 8b 45 e8          	mov    -0x18(%rbp),%rax
    2f43:	66 c7 40 08 ff 0f    	movw   $0xfff,0x8(%rax)
    2f49:	c6 45 ff 00          	movb   $0x0,-0x1(%rbp)
    2f4d:	eb 49                	jmp    2f98 <_ZN3IDT9CreateIDTEv+0x7c>
    2f4f:	0f b6 45 ff          	movzbl -0x1(%rbp),%eax
    2f53:	48 98                	cltq
    2f55:	48 8d 14 c5 00 00 00 	lea    0x0(,%rax,8),%rdx
    2f5c:	00 
    2f5d:	48 8d 05 dc 8d 02 00 	lea    0x28ddc(%rip),%rax        # 2bd40 <isr_stub_table>
    2f64:	48 8b 14 02          	mov    (%rdx,%rax,1),%rdx
    2f68:	0f b6 75 ff          	movzbl -0x1(%rbp),%esi
    2f6c:	48 8b 45 e8          	mov    -0x18(%rbp),%rax
    2f70:	b9 8e 00 00 00       	mov    $0x8e,%ecx
    2f75:	48 89 c7             	mov    %rax,%rdi
    2f78:	e8 0d ff ff ff       	call   2e8a <_ZN3IDT13SetDescriptorEhPvh>
    2f7d:	0f b6 45 ff          	movzbl -0x1(%rbp),%eax
    2f81:	48 98                	cltq
    2f83:	48 8d 15 76 30 02 00 	lea    0x23076(%rip),%rdx        # 26000 <_ZL7vectors>
    2f8a:	c6 04 10 01          	movb   $0x1,(%rax,%rdx,1)
    2f8e:	0f b6 45 ff          	movzbl -0x1(%rbp),%eax
    2f92:	83 c0 01             	add    $0x1,%eax
    2f95:	88 45 ff             	mov    %al,-0x1(%rbp)
    2f98:	80 7d ff ff          	cmpb   $0xff,-0x1(%rbp)
    2f9c:	75 b1                	jne    2f4f <_ZN3IDT9CreateIDTEv+0x33>
    2f9e:	48 8b 45 e8          	mov    -0x18(%rbp),%rax
    2fa2:	0f 01 58 08          	lidt   0x8(%rax)
    2fa6:	90                   	nop
    2fa7:	c9                   	leave
    2fa8:	c3                   	ret
    2fa9:	90                   	nop

0000000000002faa <_ZN6IOAPIC4readEh>:
    2faa:	f3 0f 1e fa          	endbr64
    2fae:	55                   	push   %rbp
    2faf:	48 89 e5             	mov    %rsp,%rbp
    2fb2:	48 89 7d f8          	mov    %rdi,-0x8(%rbp)
    2fb6:	89 f0                	mov    %esi,%eax
    2fb8:	88 45 f4             	mov    %al,-0xc(%rbp)
    2fbb:	48 8b 45 f8          	mov    -0x8(%rbp),%rax
    2fbf:	48 8b 40 10          	mov    0x10(%rax),%rax
    2fc3:	48 89 c2             	mov    %rax,%rdx
    2fc6:	0f b6 45 f4          	movzbl -0xc(%rbp),%eax
    2fca:	89 02                	mov    %eax,(%rdx)
    2fcc:	48 8b 45 f8          	mov    -0x8(%rbp),%rax
    2fd0:	48 8b 40 10          	mov    0x10(%rax),%rax
    2fd4:	48 83 c0 10          	add    $0x10,%rax
    2fd8:	8b 00                	mov    (%rax),%eax
    2fda:	5d                   	pop    %rbp
    2fdb:	c3                   	ret

0000000000002fdc <_ZN6IOAPIC5writeEhj>:
    2fdc:	f3 0f 1e fa          	endbr64
    2fe0:	55                   	push   %rbp
    2fe1:	48 89 e5             	mov    %rsp,%rbp
    2fe4:	48 89 7d f8          	mov    %rdi,-0x8(%rbp)
    2fe8:	89 f0                	mov    %esi,%eax
    2fea:	89 55 f0             	mov    %edx,-0x10(%rbp)
    2fed:	88 45 f4             	mov    %al,-0xc(%rbp)
    2ff0:	48 8b 45 f8          	mov    -0x8(%rbp),%rax
    2ff4:	48 8b 40 10          	mov    0x10(%rax),%rax
    2ff8:	48 89 c2             	mov    %rax,%rdx
    2ffb:	0f b6 45 f4          	movzbl -0xc(%rbp),%eax
    2fff:	89 02                	mov    %eax,(%rdx)
    3001:	48 8b 45 f8          	mov    -0x8(%rbp),%rax
    3005:	48 8b 40 10          	mov    0x10(%rax),%rax
    3009:	48 83 c0 10          	add    $0x10,%rax
    300d:	48 89 c2             	mov    %rax,%rdx
    3010:	8b 45 f0             	mov    -0x10(%rbp),%eax
    3013:	89 02                	mov    %eax,(%rdx)
    3015:	90                   	nop
    3016:	5d                   	pop    %rbp
    3017:	c3                   	ret

0000000000003018 <_ZN6IOAPIC10InitializeEP12BasicConsolemmm>:
    3018:	f3 0f 1e fa          	endbr64
    301c:	55                   	push   %rbp
    301d:	48 89 e5             	mov    %rsp,%rbp
    3020:	48 83 ec 40          	sub    $0x40,%rsp
    3024:	48 89 7d e8          	mov    %rdi,-0x18(%rbp)
    3028:	48 89 75 e0          	mov    %rsi,-0x20(%rbp)
    302c:	48 89 55 d8          	mov    %rdx,-0x28(%rbp)
    3030:	48 89 4d d0          	mov    %rcx,-0x30(%rbp)
    3034:	4c 89 45 c8          	mov    %r8,-0x38(%rbp)
    3038:	48 8b 45 e8          	mov    -0x18(%rbp),%rax
    303c:	48 8b 55 e0          	mov    -0x20(%rbp),%rdx
    3040:	48 89 10             	mov    %rdx,(%rax)
    3043:	48 8b 45 e8          	mov    -0x18(%rbp),%rax
    3047:	48 8b 55 d8          	mov    -0x28(%rbp),%rdx
    304b:	48 89 50 10          	mov    %rdx,0x10(%rax)
    304f:	48 8b 45 e8          	mov    -0x18(%rbp),%rax
    3053:	be 00 00 00 00       	mov    $0x0,%esi
    3058:	48 89 c7             	mov    %rax,%rdi
    305b:	e8 4a ff ff ff       	call   2faa <_ZN6IOAPIC4readEh>
    3060:	c1 e8 18             	shr    $0x18,%eax
    3063:	83 e0 f0             	and    $0xfffffff0,%eax
    3066:	89 c2                	mov    %eax,%edx
    3068:	48 8b 45 e8          	mov    -0x18(%rbp),%rax
    306c:	88 50 18             	mov    %dl,0x18(%rax)
    306f:	48 8b 45 e8          	mov    -0x18(%rbp),%rax
    3073:	be 01 00 00 00       	mov    $0x1,%esi
    3078:	48 89 c7             	mov    %rax,%rdi
    307b:	e8 2a ff ff ff       	call   2faa <_ZN6IOAPIC4readEh>
    3080:	89 c2                	mov    %eax,%edx
    3082:	48 8b 45 e8          	mov    -0x18(%rbp),%rax
    3086:	88 50 19             	mov    %dl,0x19(%rax)
    3089:	48 8b 45 e8          	mov    -0x18(%rbp),%rax
    308d:	be 01 00 00 00       	mov    $0x1,%esi
    3092:	48 89 c7             	mov    %rax,%rdi
    3095:	e8 10 ff ff ff       	call   2faa <_ZN6IOAPIC4readEh>
    309a:	c1 e8 10             	shr    $0x10,%eax
    309d:	8d 50 01             	lea    0x1(%rax),%edx
    30a0:	48 8b 45 e8          	mov    -0x18(%rbp),%rax
    30a4:	88 50 1a             	mov    %dl,0x1a(%rax)
    30a7:	48 8b 45 e8          	mov    -0x18(%rbp),%rax
    30ab:	48 8b 55 c8          	mov    -0x38(%rbp),%rdx
    30af:	48 89 50 20          	mov    %rdx,0x20(%rax)
    30b3:	c6 45 ff 00          	movb   $0x0,-0x1(%rbp)
    30b7:	eb 4e                	jmp    3107 <_ZN6IOAPIC10InitializeEP12BasicConsolemmm+0xef>
    30b9:	48 c7 45 f7 00 00 00 	movq   $0x0,-0x9(%rbp)
    30c0:	00 
    30c1:	0f b6 45 ff          	movzbl -0x1(%rbp),%eax
    30c5:	83 c0 20             	add    $0x20,%eax
    30c8:	88 45 f7             	mov    %al,-0x9(%rbp)
    30cb:	0f b6 45 f8          	movzbl -0x8(%rbp),%eax
    30cf:	83 e0 f8             	and    $0xfffffff8,%eax
    30d2:	88 45 f8             	mov    %al,-0x8(%rbp)
    30d5:	0f b6 45 f8          	movzbl -0x8(%rbp),%eax
    30d9:	83 e0 f7             	and    $0xfffffff7,%eax
    30dc:	88 45 f8             	mov    %al,-0x8(%rbp)
    30df:	0f b6 45 f9          	movzbl -0x7(%rbp),%eax
    30e3:	83 c8 01             	or     $0x1,%eax
    30e6:	88 45 f9             	mov    %al,-0x7(%rbp)
    30e9:	c6 45 fe 00          	movb   $0x0,-0x2(%rbp)
    30ed:	0f b6 4d ff          	movzbl -0x1(%rbp),%ecx
    30f1:	48 8d 55 f7          	lea    -0x9(%rbp),%rdx
    30f5:	48 8b 45 e8          	mov    -0x18(%rbp),%rax
    30f9:	89 ce                	mov    %ecx,%esi
    30fb:	48 89 c7             	mov    %rax,%rdi
    30fe:	e8 cf 00 00 00       	call   31d2 <_ZN6IOAPIC15writeRedirEntryEhP16RedirectionEntry>
    3103:	80 45 ff 01          	addb   $0x1,-0x1(%rbp)
    3107:	48 8b 45 e8          	mov    -0x18(%rbp),%rax
    310b:	0f b6 40 1a          	movzbl 0x1a(%rax),%eax
    310f:	38 45 ff             	cmp    %al,-0x1(%rbp)
    3112:	72 a5                	jb     30b9 <_ZN6IOAPIC10InitializeEP12BasicConsolemmm+0xa1>
    3114:	48 8b 45 e8          	mov    -0x18(%rbp),%rax
    3118:	48 8b 00             	mov    (%rax),%rax
    311b:	ba ff ff ff ff       	mov    $0xffffffff,%edx
    3120:	48 8d 0d d9 01 01 00 	lea    0x101d9(%rip),%rcx        # 13300 <_ZL4font+0x1000>
    3127:	48 89 ce             	mov    %rcx,%rsi
    312a:	48 89 c7             	mov    %rax,%rdi
    312d:	e8 08 f5 ff ff       	call   263a <_ZN12BasicConsole7PrintlnEPKcj>
    3132:	90                   	nop
    3133:	c9                   	leave
    3134:	c3                   	ret
    3135:	90                   	nop

0000000000003136 <_ZN6IOAPIC13getRedirEntryEh>:
    3136:	f3 0f 1e fa          	endbr64
    313a:	55                   	push   %rbp
    313b:	48 89 e5             	mov    %rsp,%rbp
    313e:	48 83 ec 20          	sub    $0x20,%rsp
    3142:	48 89 7d e8          	mov    %rdi,-0x18(%rbp)
    3146:	89 f0                	mov    %esi,%eax
    3148:	88 45 e4             	mov    %al,-0x1c(%rbp)
    314b:	48 c7 45 f6 00 00 00 	movq   $0x0,-0xa(%rbp)
    3152:	00 
    3153:	48 8b 45 e8          	mov    -0x18(%rbp),%rax
    3157:	48 89 c7             	mov    %rax,%rdi
    315a:	e8 0b 01 00 00       	call   326a <_ZN6IOAPIC18redirectionEntriesEv>
    315f:	38 45 e4             	cmp    %al,-0x1c(%rbp)
    3162:	0f 93 c0             	setae  %al
    3165:	84 c0                	test   %al,%al
    3167:	74 23                	je     318c <_ZN6IOAPIC13getRedirEntryEh+0x56>
    3169:	48 8b 45 e8          	mov    -0x18(%rbp),%rax
    316d:	48 8b 00             	mov    (%rax),%rax
    3170:	0f b6 55 e4          	movzbl -0x1c(%rbp),%edx
    3174:	48 8d 0d aa 01 01 00 	lea    0x101aa(%rip),%rcx        # 13325 <_ZL4font+0x1025>
    317b:	48 89 ce             	mov    %rcx,%rsi
    317e:	48 89 c7             	mov    %rax,%rdi
    3181:	e8 b4 f4 ff ff       	call   263a <_ZN12BasicConsole7PrintlnEPKcj>
    3186:	48 8b 45 f6          	mov    -0xa(%rbp),%rax
    318a:	eb 44                	jmp    31d0 <_ZN6IOAPIC13getRedirEntryEh+0x9a>
    318c:	0f b6 45 e4          	movzbl -0x1c(%rbp),%eax
    3190:	83 c0 08             	add    $0x8,%eax
    3193:	01 c0                	add    %eax,%eax
    3195:	88 45 ff             	mov    %al,-0x1(%rbp)
    3198:	0f b6 45 ff          	movzbl -0x1(%rbp),%eax
    319c:	83 c0 01             	add    $0x1,%eax
    319f:	88 45 fe             	mov    %al,-0x2(%rbp)
    31a2:	0f b6 55 ff          	movzbl -0x1(%rbp),%edx
    31a6:	48 8b 45 e8          	mov    -0x18(%rbp),%rax
    31aa:	89 d6                	mov    %edx,%esi
    31ac:	48 89 c7             	mov    %rax,%rdi
    31af:	e8 f6 fd ff ff       	call   2faa <_ZN6IOAPIC4readEh>
    31b4:	89 45 f6             	mov    %eax,-0xa(%rbp)
    31b7:	0f b6 55 fe          	movzbl -0x2(%rbp),%edx
    31bb:	48 8b 45 e8          	mov    -0x18(%rbp),%rax
    31bf:	89 d6                	mov    %edx,%esi
    31c1:	48 89 c7             	mov    %rax,%rdi
    31c4:	e8 e1 fd ff ff       	call   2faa <_ZN6IOAPIC4readEh>
    31c9:	89 45 fa             	mov    %eax,-0x6(%rbp)
    31cc:	48 8b 45 f6          	mov    -0xa(%rbp),%rax
    31d0:	c9                   	leave
    31d1:	c3                   	ret

00000000000031d2 <_ZN6IOAPIC15writeRedirEntryEhP16RedirectionEntry>:
    31d2:	f3 0f 1e fa          	endbr64
    31d6:	55                   	push   %rbp
    31d7:	48 89 e5             	mov    %rsp,%rbp
    31da:	48 83 ec 30          	sub    $0x30,%rsp
    31de:	48 89 7d e8          	mov    %rdi,-0x18(%rbp)
    31e2:	89 f0                	mov    %esi,%eax
    31e4:	48 89 55 d8          	mov    %rdx,-0x28(%rbp)
    31e8:	88 45 e4             	mov    %al,-0x1c(%rbp)
    31eb:	48 8b 45 e8          	mov    -0x18(%rbp),%rax
    31ef:	48 89 c7             	mov    %rax,%rdi
    31f2:	e8 73 00 00 00       	call   326a <_ZN6IOAPIC18redirectionEntriesEv>
    31f7:	38 45 e4             	cmp    %al,-0x1c(%rbp)
    31fa:	0f 93 c0             	setae  %al
    31fd:	84 c0                	test   %al,%al
    31ff:	74 1f                	je     3220 <_ZN6IOAPIC15writeRedirEntryEhP16RedirectionEntry+0x4e>
    3201:	48 8b 45 e8          	mov    -0x18(%rbp),%rax
    3205:	48 8b 00             	mov    (%rax),%rax
    3208:	0f b6 55 e4          	movzbl -0x1c(%rbp),%edx
    320c:	48 8d 0d 12 01 01 00 	lea    0x10112(%rip),%rcx        # 13325 <_ZL4font+0x1025>
    3213:	48 89 ce             	mov    %rcx,%rsi
    3216:	48 89 c7             	mov    %rax,%rdi
    3219:	e8 1c f4 ff ff       	call   263a <_ZN12BasicConsole7PrintlnEPKcj>
    321e:	eb 47                	jmp    3267 <_ZN6IOAPIC15writeRedirEntryEhP16RedirectionEntry+0x95>
    3220:	0f b6 45 e4          	movzbl -0x1c(%rbp),%eax
    3224:	83 c0 08             	add    $0x8,%eax
    3227:	01 c0                	add    %eax,%eax
    3229:	88 45 ff             	mov    %al,-0x1(%rbp)
    322c:	0f b6 45 ff          	movzbl -0x1(%rbp),%eax
    3230:	83 c0 01             	add    $0x1,%eax
    3233:	88 45 fe             	mov    %al,-0x2(%rbp)
    3236:	48 8b 45 d8          	mov    -0x28(%rbp),%rax
    323a:	8b 10                	mov    (%rax),%edx
    323c:	0f b6 4d ff          	movzbl -0x1(%rbp),%ecx
    3240:	48 8b 45 e8          	mov    -0x18(%rbp),%rax
    3244:	89 ce                	mov    %ecx,%esi
    3246:	48 89 c7             	mov    %rax,%rdi
    3249:	e8 8e fd ff ff       	call   2fdc <_ZN6IOAPIC5writeEhj>
    324e:	48 8b 45 d8          	mov    -0x28(%rbp),%rax
    3252:	8b 50 04             	mov    0x4(%rax),%edx
    3255:	0f b6 4d fe          	movzbl -0x2(%rbp),%ecx
    3259:	48 8b 45 e8          	mov    -0x18(%rbp),%rax
    325d:	89 ce                	mov    %ecx,%esi
    325f:	48 89 c7             	mov    %rax,%rdi
    3262:	e8 75 fd ff ff       	call   2fdc <_ZN6IOAPIC5writeEhj>
    3267:	c9                   	leave
    3268:	c3                   	ret
    3269:	90                   	nop

000000000000326a <_ZN6IOAPIC18redirectionEntriesEv>:
    326a:	f3 0f 1e fa          	endbr64
    326e:	55                   	push   %rbp
    326f:	48 89 e5             	mov    %rsp,%rbp
    3272:	48 89 7d f8          	mov    %rdi,-0x8(%rbp)
    3276:	48 8b 45 f8          	mov    -0x8(%rbp),%rax
    327a:	0f b6 40 1a          	movzbl 0x1a(%rax),%eax
    327e:	5d                   	pop    %rbp
    327f:	c3                   	ret

0000000000003280 <_ZL9parse_hexPKcm>:
    3280:	f3 0f 1e fa          	endbr64
    3284:	55                   	push   %rbp
    3285:	48 89 e5             	mov    %rsp,%rbp
    3288:	48 89 7d d8          	mov    %rdi,-0x28(%rbp)
    328c:	48 89 75 d0          	mov    %rsi,-0x30(%rbp)
    3290:	c7 45 fc 00 00 00 00 	movl   $0x0,-0x4(%rbp)
    3297:	48 c7 45 f0 00 00 00 	movq   $0x0,-0x10(%rbp)
    329e:	00 
    329f:	eb 60                	jmp    3301 <_ZL9parse_hexPKcm+0x81>
    32a1:	48 8b 55 d8          	mov    -0x28(%rbp),%rdx
    32a5:	48 8b 45 f0          	mov    -0x10(%rbp),%rax
    32a9:	48 01 d0             	add    %rdx,%rax
    32ac:	0f b6 00             	movzbl (%rax),%eax
    32af:	88 45 ef             	mov    %al,-0x11(%rbp)
    32b2:	c1 65 fc 04          	shll   $0x4,-0x4(%rbp)
    32b6:	80 7d ef 2f          	cmpb   $0x2f,-0x11(%rbp)
    32ba:	7e 12                	jle    32ce <_ZL9parse_hexPKcm+0x4e>
    32bc:	80 7d ef 39          	cmpb   $0x39,-0x11(%rbp)
    32c0:	7f 0c                	jg     32ce <_ZL9parse_hexPKcm+0x4e>
    32c2:	0f be 45 ef          	movsbl -0x11(%rbp),%eax
    32c6:	83 e8 30             	sub    $0x30,%eax
    32c9:	09 45 fc             	or     %eax,-0x4(%rbp)
    32cc:	eb 2e                	jmp    32fc <_ZL9parse_hexPKcm+0x7c>
    32ce:	80 7d ef 40          	cmpb   $0x40,-0x11(%rbp)
    32d2:	7e 12                	jle    32e6 <_ZL9parse_hexPKcm+0x66>
    32d4:	80 7d ef 46          	cmpb   $0x46,-0x11(%rbp)
    32d8:	7f 0c                	jg     32e6 <_ZL9parse_hexPKcm+0x66>
    32da:	0f be 45 ef          	movsbl -0x11(%rbp),%eax
    32de:	83 e8 37             	sub    $0x37,%eax
    32e1:	09 45 fc             	or     %eax,-0x4(%rbp)
    32e4:	eb 16                	jmp    32fc <_ZL9parse_hexPKcm+0x7c>
    32e6:	80 7d ef 60          	cmpb   $0x60,-0x11(%rbp)
    32ea:	7e 10                	jle    32fc <_ZL9parse_hexPKcm+0x7c>
    32ec:	80 7d ef 66          	cmpb   $0x66,-0x11(%rbp)
    32f0:	7f 0a                	jg     32fc <_ZL9parse_hexPKcm+0x7c>
    32f2:	0f be 45 ef          	movsbl -0x11(%rbp),%eax
    32f6:	83 e8 57             	sub    $0x57,%eax
    32f9:	09 45 fc             	or     %eax,-0x4(%rbp)
    32fc:	48 83 45 f0 01       	addq   $0x1,-0x10(%rbp)
    3301:	48 8b 45 f0          	mov    -0x10(%rbp),%rax
    3305:	48 3b 45 d0          	cmp    -0x30(%rbp),%rax
    3309:	72 96                	jb     32a1 <_ZL9parse_hexPKcm+0x21>
    330b:	8b 45 fc             	mov    -0x4(%rbp),%eax
    330e:	5d                   	pop    %rbp
    330f:	c3                   	ret

0000000000003310 <_Z6memcmpPKvS0_m>:
    3310:	f3 0f 1e fa          	endbr64
    3314:	55                   	push   %rbp
    3315:	48 89 e5             	mov    %rsp,%rbp
    3318:	48 89 7d d8          	mov    %rdi,-0x28(%rbp)
    331c:	48 89 75 d0          	mov    %rsi,-0x30(%rbp)
    3320:	48 89 55 c8          	mov    %rdx,-0x38(%rbp)
    3324:	48 8b 45 d8          	mov    -0x28(%rbp),%rax
    3328:	48 89 45 f0          	mov    %rax,-0x10(%rbp)
    332c:	48 8b 45 d0          	mov    -0x30(%rbp),%rax
    3330:	48 89 45 e8          	mov    %rax,-0x18(%rbp)
    3334:	48 c7 45 f8 00 00 00 	movq   $0x0,-0x8(%rbp)
    333b:	00 
    333c:	eb 4b                	jmp    3389 <_Z6memcmpPKvS0_m+0x79>
    333e:	48 8b 55 f0          	mov    -0x10(%rbp),%rdx
    3342:	48 8b 45 f8          	mov    -0x8(%rbp),%rax
    3346:	48 01 d0             	add    %rdx,%rax
    3349:	0f b6 10             	movzbl (%rax),%edx
    334c:	48 8b 4d e8          	mov    -0x18(%rbp),%rcx
    3350:	48 8b 45 f8          	mov    -0x8(%rbp),%rax
    3354:	48 01 c8             	add    %rcx,%rax
    3357:	0f b6 00             	movzbl (%rax),%eax
    335a:	38 c2                	cmp    %al,%dl
    335c:	74 26                	je     3384 <_Z6memcmpPKvS0_m+0x74>
    335e:	48 8b 55 f0          	mov    -0x10(%rbp),%rdx
    3362:	48 8b 45 f8          	mov    -0x8(%rbp),%rax
    3366:	48 01 d0             	add    %rdx,%rax
    3369:	0f b6 00             	movzbl (%rax),%eax
    336c:	0f b6 d0             	movzbl %al,%edx
    336f:	48 8b 4d e8          	mov    -0x18(%rbp),%rcx
    3373:	48 8b 45 f8          	mov    -0x8(%rbp),%rax
    3377:	48 01 c8             	add    %rcx,%rax
    337a:	0f b6 00             	movzbl (%rax),%eax
    337d:	0f b6 c0             	movzbl %al,%eax
    3380:	29 c2                	sub    %eax,%edx
    3382:	eb 14                	jmp    3398 <_Z6memcmpPKvS0_m+0x88>
    3384:	48 83 45 f8 01       	addq   $0x1,-0x8(%rbp)
    3389:	48 8b 45 f8          	mov    -0x8(%rbp),%rax
    338d:	48 3b 45 c8          	cmp    -0x38(%rbp),%rax
    3391:	72 ab                	jb     333e <_Z6memcmpPKvS0_m+0x2e>
    3393:	ba 00 00 00 00       	mov    $0x0,%edx
    3398:	89 d0                	mov    %edx,%eax
    339a:	5d                   	pop    %rbp
    339b:	c3                   	ret

000000000000339c <_Z6strcmpPKcS0_>:
    339c:	f3 0f 1e fa          	endbr64
    33a0:	55                   	push   %rbp
    33a1:	48 89 e5             	mov    %rsp,%rbp
    33a4:	48 89 7d f8          	mov    %rdi,-0x8(%rbp)
    33a8:	48 89 75 f0          	mov    %rsi,-0x10(%rbp)
    33ac:	eb 0a                	jmp    33b8 <_Z6strcmpPKcS0_+0x1c>
    33ae:	48 83 45 f8 01       	addq   $0x1,-0x8(%rbp)
    33b3:	48 83 45 f0 01       	addq   $0x1,-0x10(%rbp)
    33b8:	48 8b 45 f8          	mov    -0x8(%rbp),%rax
    33bc:	0f b6 00             	movzbl (%rax),%eax
    33bf:	84 c0                	test   %al,%al
    33c1:	74 12                	je     33d5 <_Z6strcmpPKcS0_+0x39>
    33c3:	48 8b 45 f8          	mov    -0x8(%rbp),%rax
    33c7:	0f b6 10             	movzbl (%rax),%edx
    33ca:	48 8b 45 f0          	mov    -0x10(%rbp),%rax
    33ce:	0f b6 00             	movzbl (%rax),%eax
    33d1:	38 c2                	cmp    %al,%dl
    33d3:	74 d9                	je     33ae <_Z6strcmpPKcS0_+0x12>
    33d5:	48 8b 45 f8          	mov    -0x8(%rbp),%rax
    33d9:	0f b6 00             	movzbl (%rax),%eax
    33dc:	0f b6 d0             	movzbl %al,%edx
    33df:	48 8b 45 f0          	mov    -0x10(%rbp),%rax
    33e3:	0f b6 00             	movzbl (%rax),%eax
    33e6:	0f b6 c0             	movzbl %al,%eax
    33e9:	29 c2                	sub    %eax,%edx
    33eb:	89 d0                	mov    %edx,%eax
    33ed:	5d                   	pop    %rbp
    33ee:	c3                   	ret

00000000000033ef <_Z6memcpyPvPKvm>:
    33ef:	f3 0f 1e fa          	endbr64
    33f3:	55                   	push   %rbp
    33f4:	48 89 e5             	mov    %rsp,%rbp
    33f7:	48 89 7d d8          	mov    %rdi,-0x28(%rbp)
    33fb:	48 89 75 d0          	mov    %rsi,-0x30(%rbp)
    33ff:	48 89 55 c8          	mov    %rdx,-0x38(%rbp)
    3403:	48 8b 45 d8          	mov    -0x28(%rbp),%rax
    3407:	48 89 45 f0          	mov    %rax,-0x10(%rbp)
    340b:	48 8b 45 d0          	mov    -0x30(%rbp),%rax
    340f:	48 89 45 e8          	mov    %rax,-0x18(%rbp)
    3413:	48 c7 45 f8 00 00 00 	movq   $0x0,-0x8(%rbp)
    341a:	00 
    341b:	eb 20                	jmp    343d <_Z6memcpyPvPKvm+0x4e>
    341d:	48 8b 55 e8          	mov    -0x18(%rbp),%rdx
    3421:	48 8b 45 f8          	mov    -0x8(%rbp),%rax
    3425:	48 01 d0             	add    %rdx,%rax
    3428:	48 8b 4d f0          	mov    -0x10(%rbp),%rcx
    342c:	48 8b 55 f8          	mov    -0x8(%rbp),%rdx
    3430:	48 01 ca             	add    %rcx,%rdx
    3433:	0f b6 00             	movzbl (%rax),%eax
    3436:	88 02                	mov    %al,(%rdx)
    3438:	48 83 45 f8 01       	addq   $0x1,-0x8(%rbp)
    343d:	48 8b 45 f8          	mov    -0x8(%rbp),%rax
    3441:	48 3b 45 c8          	cmp    -0x38(%rbp),%rax
    3445:	72 d6                	jb     341d <_Z6memcpyPvPKvm+0x2e>
    3447:	48 8b 45 d8          	mov    -0x28(%rbp),%rax
    344b:	5d                   	pop    %rbp
    344c:	c3                   	ret

000000000000344d <_Z7strncmpPKcS0_m>:
    344d:	f3 0f 1e fa          	endbr64
    3451:	55                   	push   %rbp
    3452:	48 89 e5             	mov    %rsp,%rbp
    3455:	48 89 7d e8          	mov    %rdi,-0x18(%rbp)
    3459:	48 89 75 e0          	mov    %rsi,-0x20(%rbp)
    345d:	48 89 55 d8          	mov    %rdx,-0x28(%rbp)
    3461:	48 c7 45 f8 00 00 00 	movq   $0x0,-0x8(%rbp)
    3468:	00 
    3469:	eb 64                	jmp    34cf <_Z7strncmpPKcS0_m+0x82>
    346b:	48 8b 55 e8          	mov    -0x18(%rbp),%rdx
    346f:	48 8b 45 f8          	mov    -0x8(%rbp),%rax
    3473:	48 01 d0             	add    %rdx,%rax
    3476:	0f b6 10             	movzbl (%rax),%edx
    3479:	48 8b 4d e0          	mov    -0x20(%rbp),%rcx
    347d:	48 8b 45 f8          	mov    -0x8(%rbp),%rax
    3481:	48 01 c8             	add    %rcx,%rax
    3484:	0f b6 00             	movzbl (%rax),%eax
    3487:	38 c2                	cmp    %al,%dl
    3489:	74 26                	je     34b1 <_Z7strncmpPKcS0_m+0x64>
    348b:	48 8b 55 e8          	mov    -0x18(%rbp),%rdx
    348f:	48 8b 45 f8          	mov    -0x8(%rbp),%rax
    3493:	48 01 d0             	add    %rdx,%rax
    3496:	0f b6 00             	movzbl (%rax),%eax
    3499:	0f b6 c0             	movzbl %al,%eax
    349c:	48 8b 4d e0          	mov    -0x20(%rbp),%rcx
    34a0:	48 8b 55 f8          	mov    -0x8(%rbp),%rdx
    34a4:	48 01 ca             	add    %rcx,%rdx
    34a7:	0f b6 12             	movzbl (%rdx),%edx
    34aa:	0f b6 d2             	movzbl %dl,%edx
    34ad:	29 d0                	sub    %edx,%eax
    34af:	eb 2d                	jmp    34de <_Z7strncmpPKcS0_m+0x91>
    34b1:	48 8b 55 e8          	mov    -0x18(%rbp),%rdx
    34b5:	48 8b 45 f8          	mov    -0x8(%rbp),%rax
    34b9:	48 01 d0             	add    %rdx,%rax
    34bc:	0f b6 00             	movzbl (%rax),%eax
    34bf:	84 c0                	test   %al,%al
    34c1:	75 07                	jne    34ca <_Z7strncmpPKcS0_m+0x7d>
    34c3:	b8 00 00 00 00       	mov    $0x0,%eax
    34c8:	eb 14                	jmp    34de <_Z7strncmpPKcS0_m+0x91>
    34ca:	48 83 45 f8 01       	addq   $0x1,-0x8(%rbp)
    34cf:	48 8b 45 f8          	mov    -0x8(%rbp),%rax
    34d3:	48 3b 45 d8          	cmp    -0x28(%rbp),%rax
    34d7:	72 92                	jb     346b <_Z7strncmpPKcS0_m+0x1e>
    34d9:	b8 00 00 00 00       	mov    $0x0,%eax
    34de:	5d                   	pop    %rbp
    34df:	c3                   	ret

00000000000034e0 <_Z6strlenPKc>:
    34e0:	f3 0f 1e fa          	endbr64
    34e4:	55                   	push   %rbp
    34e5:	48 89 e5             	mov    %rsp,%rbp
    34e8:	48 89 7d e8          	mov    %rdi,-0x18(%rbp)
    34ec:	48 c7 45 f8 00 00 00 	movq   $0x0,-0x8(%rbp)
    34f3:	00 
    34f4:	eb 05                	jmp    34fb <_Z6strlenPKc+0x1b>
    34f6:	48 83 45 f8 01       	addq   $0x1,-0x8(%rbp)
    34fb:	48 8b 55 e8          	mov    -0x18(%rbp),%rdx
    34ff:	48 8b 45 f8          	mov    -0x8(%rbp),%rax
    3503:	48 01 d0             	add    %rdx,%rax
    3506:	0f b6 00             	movzbl (%rax),%eax
    3509:	84 c0                	test   %al,%al
    350b:	75 e9                	jne    34f6 <_Z6strlenPKc+0x16>
    350d:	48 8b 45 f8          	mov    -0x8(%rbp),%rax
    3511:	5d                   	pop    %rbp
    3512:	c3                   	ret

0000000000003513 <_Z6strchrPKci>:
    3513:	f3 0f 1e fa          	endbr64
    3517:	55                   	push   %rbp
    3518:	48 89 e5             	mov    %rsp,%rbp
    351b:	48 89 7d f8          	mov    %rdi,-0x8(%rbp)
    351f:	89 75 f4             	mov    %esi,-0xc(%rbp)
    3522:	eb 19                	jmp    353d <_Z6strchrPKci+0x2a>
    3524:	48 8b 45 f8          	mov    -0x8(%rbp),%rax
    3528:	0f b6 00             	movzbl (%rax),%eax
    352b:	8b 55 f4             	mov    -0xc(%rbp),%edx
    352e:	38 d0                	cmp    %dl,%al
    3530:	75 06                	jne    3538 <_Z6strchrPKci+0x25>
    3532:	48 8b 45 f8          	mov    -0x8(%rbp),%rax
    3536:	eb 15                	jmp    354d <_Z6strchrPKci+0x3a>
    3538:	48 83 45 f8 01       	addq   $0x1,-0x8(%rbp)
    353d:	48 8b 45 f8          	mov    -0x8(%rbp),%rax
    3541:	0f b6 00             	movzbl (%rax),%eax
    3544:	84 c0                	test   %al,%al
    3546:	75 dc                	jne    3524 <_Z6strchrPKci+0x11>
    3548:	b8 00 00 00 00       	mov    $0x0,%eax
    354d:	5d                   	pop    %rbp
    354e:	c3                   	ret
    354f:	90                   	nop

0000000000003550 <_ZN12InitialRamFS10InitializeEPvm>:
    3550:	f3 0f 1e fa          	endbr64
    3554:	55                   	push   %rbp
    3555:	48 89 e5             	mov    %rsp,%rbp
    3558:	48 89 7d f8          	mov    %rdi,-0x8(%rbp)
    355c:	48 89 75 f0          	mov    %rsi,-0x10(%rbp)
    3560:	48 89 55 e8          	mov    %rdx,-0x18(%rbp)
    3564:	48 8b 45 f8          	mov    -0x8(%rbp),%rax
    3568:	48 8b 55 f0          	mov    -0x10(%rbp),%rdx
    356c:	48 89 10             	mov    %rdx,(%rax)
    356f:	48 8b 45 f8          	mov    -0x8(%rbp),%rax
    3573:	48 8b 55 e8          	mov    -0x18(%rbp),%rdx
    3577:	48 89 50 08          	mov    %rdx,0x8(%rax)
    357b:	90                   	nop
    357c:	5d                   	pop    %rbp
    357d:	c3                   	ret

000000000000357e <_ZN12InitialRamFS11file_existsEPc>:
    357e:	f3 0f 1e fa          	endbr64
    3582:	55                   	push   %rbp
    3583:	48 89 e5             	mov    %rsp,%rbp
    3586:	48 83 ec 40          	sub    $0x40,%rsp
    358a:	48 89 7d c8          	mov    %rdi,-0x38(%rbp)
    358e:	48 89 75 c0          	mov    %rsi,-0x40(%rbp)
    3592:	48 8b 45 c8          	mov    -0x38(%rbp),%rax
    3596:	48 8b 00             	mov    (%rax),%rax
    3599:	48 89 45 f8          	mov    %rax,-0x8(%rbp)
    359d:	48 8b 45 f8          	mov    -0x8(%rbp),%rax
    35a1:	48 89 45 f0          	mov    %rax,-0x10(%rbp)
    35a5:	48 8b 45 f0          	mov    -0x10(%rbp),%rax
    35a9:	ba 06 00 00 00       	mov    $0x6,%edx
    35ae:	48 8d 0d 8e fd 00 00 	lea    0xfd8e(%rip),%rcx        # 13343 <_ZL4font+0x1043>
    35b5:	48 89 ce             	mov    %rcx,%rsi
    35b8:	48 89 c7             	mov    %rax,%rdi
    35bb:	e8 50 fd ff ff       	call   3310 <_Z6memcmpPKvS0_m>
    35c0:	85 c0                	test   %eax,%eax
    35c2:	0f 95 c0             	setne  %al
    35c5:	84 c0                	test   %al,%al
    35c7:	0f 85 c4 00 00 00    	jne    3691 <_ZN12InitialRamFS11file_existsEPc+0x113>
    35cd:	48 8b 45 f0          	mov    -0x10(%rbp),%rax
    35d1:	48 83 c0 5e          	add    $0x5e,%rax
    35d5:	be 08 00 00 00       	mov    $0x8,%esi
    35da:	48 89 c7             	mov    %rax,%rdi
    35dd:	e8 9e fc ff ff       	call   3280 <_ZL9parse_hexPKcm>
    35e2:	89 45 ec             	mov    %eax,-0x14(%rbp)
    35e5:	48 8b 45 f8          	mov    -0x8(%rbp),%rax
    35e9:	48 83 c0 6e          	add    $0x6e,%rax
    35ed:	48 89 45 e0          	mov    %rax,-0x20(%rbp)
    35f1:	48 8b 45 e0          	mov    -0x20(%rbp),%rax
    35f5:	48 8d 15 4e fd 00 00 	lea    0xfd4e(%rip),%rdx        # 1334a <_ZL4font+0x104a>
    35fc:	48 89 d6             	mov    %rdx,%rsi
    35ff:	48 89 c7             	mov    %rax,%rdi
    3602:	e8 95 fd ff ff       	call   339c <_Z6strcmpPKcS0_>
    3607:	85 c0                	test   %eax,%eax
    3609:	0f 94 c0             	sete   %al
    360c:	84 c0                	test   %al,%al
    360e:	0f 85 80 00 00 00    	jne    3694 <_ZN12InitialRamFS11file_existsEPc+0x116>
    3614:	48 8b 55 c0          	mov    -0x40(%rbp),%rdx
    3618:	48 8b 45 e0          	mov    -0x20(%rbp),%rax
    361c:	48 89 d6             	mov    %rdx,%rsi
    361f:	48 89 c7             	mov    %rax,%rdi
    3622:	e8 75 fd ff ff       	call   339c <_Z6strcmpPKcS0_>
    3627:	85 c0                	test   %eax,%eax
    3629:	0f 94 c0             	sete   %al
    362c:	84 c0                	test   %al,%al
    362e:	74 07                	je     3637 <_ZN12InitialRamFS11file_existsEPc+0xb9>
    3630:	b8 01 00 00 00       	mov    $0x1,%eax
    3635:	eb 63                	jmp    369a <_ZN12InitialRamFS11file_existsEPc+0x11c>
    3637:	48 8b 45 f0          	mov    -0x10(%rbp),%rax
    363b:	48 83 c0 36          	add    $0x36,%rax
    363f:	be 08 00 00 00       	mov    $0x8,%esi
    3644:	48 89 c7             	mov    %rax,%rdi
    3647:	e8 34 fc ff ff       	call   3280 <_ZL9parse_hexPKcm>
    364c:	89 45 dc             	mov    %eax,-0x24(%rbp)
    364f:	8b 55 ec             	mov    -0x14(%rbp),%edx
    3652:	48 8b 45 e0          	mov    -0x20(%rbp),%rax
    3656:	48 01 d0             	add    %rdx,%rax
    3659:	48 89 45 d0          	mov    %rax,-0x30(%rbp)
    365d:	48 8b 45 d0          	mov    -0x30(%rbp),%rax
    3661:	48 83 c0 03          	add    $0x3,%rax
    3665:	48 83 e0 fc          	and    $0xfffffffffffffffc,%rax
    3669:	48 89 45 d0          	mov    %rax,-0x30(%rbp)
    366d:	8b 45 dc             	mov    -0x24(%rbp),%eax
    3670:	48 01 45 d0          	add    %rax,-0x30(%rbp)
    3674:	48 8b 45 d0          	mov    -0x30(%rbp),%rax
    3678:	48 83 c0 03          	add    $0x3,%rax
    367c:	48 83 e0 fc          	and    $0xfffffffffffffffc,%rax
    3680:	48 89 45 d0          	mov    %rax,-0x30(%rbp)
    3684:	48 8b 45 d0          	mov    -0x30(%rbp),%rax
    3688:	48 89 45 f8          	mov    %rax,-0x8(%rbp)
    368c:	e9 0c ff ff ff       	jmp    359d <_ZN12InitialRamFS11file_existsEPc+0x1f>
    3691:	90                   	nop
    3692:	eb 01                	jmp    3695 <_ZN12InitialRamFS11file_existsEPc+0x117>
    3694:	90                   	nop
    3695:	b8 00 00 00 00       	mov    $0x0,%eax
    369a:	c9                   	leave
    369b:	c3                   	ret

000000000000369c <_ZN12InitialRamFS10dir_existsEPc>:
    369c:	f3 0f 1e fa          	endbr64
    36a0:	55                   	push   %rbp
    36a1:	48 89 e5             	mov    %rsp,%rbp
    36a4:	48 83 ec 50          	sub    $0x50,%rsp
    36a8:	48 89 7d b8          	mov    %rdi,-0x48(%rbp)
    36ac:	48 89 75 b0          	mov    %rsi,-0x50(%rbp)
    36b0:	48 8b 45 b0          	mov    -0x50(%rbp),%rax
    36b4:	48 89 c7             	mov    %rax,%rdi
    36b7:	e8 24 fe ff ff       	call   34e0 <_Z6strlenPKc>
    36bc:	48 89 45 f8          	mov    %rax,-0x8(%rbp)
    36c0:	48 8b 45 f8          	mov    -0x8(%rbp),%rax
    36c4:	48 8d 50 ff          	lea    -0x1(%rax),%rdx
    36c8:	48 8b 45 b0          	mov    -0x50(%rbp),%rax
    36cc:	48 01 d0             	add    %rdx,%rax
    36cf:	0f b6 00             	movzbl (%rax),%eax
    36d2:	3c 2f                	cmp    $0x2f,%al
    36d4:	74 05                	je     36db <_ZN12InitialRamFS10dir_existsEPc+0x3f>
    36d6:	48 83 45 f8 01       	addq   $0x1,-0x8(%rbp)
    36db:	48 8b 45 b8          	mov    -0x48(%rbp),%rax
    36df:	48 8b 00             	mov    (%rax),%rax
    36e2:	48 89 45 f0          	mov    %rax,-0x10(%rbp)
    36e6:	48 8b 45 f0          	mov    -0x10(%rbp),%rax
    36ea:	48 89 45 e8          	mov    %rax,-0x18(%rbp)
    36ee:	48 8b 45 e8          	mov    -0x18(%rbp),%rax
    36f2:	ba 06 00 00 00       	mov    $0x6,%edx
    36f7:	48 8d 0d 45 fc 00 00 	lea    0xfc45(%rip),%rcx        # 13343 <_ZL4font+0x1043>
    36fe:	48 89 ce             	mov    %rcx,%rsi
    3701:	48 89 c7             	mov    %rax,%rdi
    3704:	e8 07 fc ff ff       	call   3310 <_Z6memcmpPKvS0_m>
    3709:	85 c0                	test   %eax,%eax
    370b:	0f 95 c0             	setne  %al
    370e:	84 c0                	test   %al,%al
    3710:	0f 85 ed 00 00 00    	jne    3803 <_ZN12InitialRamFS10dir_existsEPc+0x167>
    3716:	48 8b 45 e8          	mov    -0x18(%rbp),%rax
    371a:	48 83 c0 5e          	add    $0x5e,%rax
    371e:	be 08 00 00 00       	mov    $0x8,%esi
    3723:	48 89 c7             	mov    %rax,%rdi
    3726:	e8 55 fb ff ff       	call   3280 <_ZL9parse_hexPKcm>
    372b:	89 45 e4             	mov    %eax,-0x1c(%rbp)
    372e:	48 8b 45 f0          	mov    -0x10(%rbp),%rax
    3732:	48 83 c0 6e          	add    $0x6e,%rax
    3736:	48 89 45 d8          	mov    %rax,-0x28(%rbp)
    373a:	48 8b 45 d8          	mov    -0x28(%rbp),%rax
    373e:	48 8d 15 05 fc 00 00 	lea    0xfc05(%rip),%rdx        # 1334a <_ZL4font+0x104a>
    3745:	48 89 d6             	mov    %rdx,%rsi
    3748:	48 89 c7             	mov    %rax,%rdi
    374b:	e8 4c fc ff ff       	call   339c <_Z6strcmpPKcS0_>
    3750:	85 c0                	test   %eax,%eax
    3752:	0f 94 c0             	sete   %al
    3755:	84 c0                	test   %al,%al
    3757:	0f 85 a9 00 00 00    	jne    3806 <_ZN12InitialRamFS10dir_existsEPc+0x16a>
    375d:	48 8b 45 f8          	mov    -0x8(%rbp),%rax
    3761:	48 8d 50 ff          	lea    -0x1(%rax),%rdx
    3765:	48 8b 4d b0          	mov    -0x50(%rbp),%rcx
    3769:	48 8b 45 d8          	mov    -0x28(%rbp),%rax
    376d:	48 89 ce             	mov    %rcx,%rsi
    3770:	48 89 c7             	mov    %rax,%rdi
    3773:	e8 d5 fc ff ff       	call   344d <_Z7strncmpPKcS0_m>
    3778:	85 c0                	test   %eax,%eax
    377a:	75 1d                	jne    3799 <_ZN12InitialRamFS10dir_existsEPc+0xfd>
    377c:	48 8b 45 f8          	mov    -0x8(%rbp),%rax
    3780:	48 8d 50 ff          	lea    -0x1(%rax),%rdx
    3784:	48 8b 45 d8          	mov    -0x28(%rbp),%rax
    3788:	48 01 d0             	add    %rdx,%rax
    378b:	0f b6 00             	movzbl (%rax),%eax
    378e:	3c 2f                	cmp    $0x2f,%al
    3790:	75 07                	jne    3799 <_ZN12InitialRamFS10dir_existsEPc+0xfd>
    3792:	b8 01 00 00 00       	mov    $0x1,%eax
    3797:	eb 05                	jmp    379e <_ZN12InitialRamFS10dir_existsEPc+0x102>
    3799:	b8 00 00 00 00       	mov    $0x0,%eax
    379e:	84 c0                	test   %al,%al
    37a0:	74 07                	je     37a9 <_ZN12InitialRamFS10dir_existsEPc+0x10d>
    37a2:	b8 01 00 00 00       	mov    $0x1,%eax
    37a7:	eb 63                	jmp    380c <_ZN12InitialRamFS10dir_existsEPc+0x170>
    37a9:	48 8b 45 e8          	mov    -0x18(%rbp),%rax
    37ad:	48 83 c0 36          	add    $0x36,%rax
    37b1:	be 08 00 00 00       	mov    $0x8,%esi
    37b6:	48 89 c7             	mov    %rax,%rdi
    37b9:	e8 c2 fa ff ff       	call   3280 <_ZL9parse_hexPKcm>
    37be:	89 45 d4             	mov    %eax,-0x2c(%rbp)
    37c1:	8b 55 e4             	mov    -0x1c(%rbp),%edx
    37c4:	48 8b 45 d8          	mov    -0x28(%rbp),%rax
    37c8:	48 01 d0             	add    %rdx,%rax
    37cb:	48 89 45 c8          	mov    %rax,-0x38(%rbp)
    37cf:	48 8b 45 c8          	mov    -0x38(%rbp),%rax
    37d3:	48 83 c0 03          	add    $0x3,%rax
    37d7:	48 83 e0 fc          	and    $0xfffffffffffffffc,%rax
    37db:	48 89 45 c8          	mov    %rax,-0x38(%rbp)
    37df:	8b 45 d4             	mov    -0x2c(%rbp),%eax
    37e2:	48 01 45 c8          	add    %rax,-0x38(%rbp)
    37e6:	48 8b 45 c8          	mov    -0x38(%rbp),%rax
    37ea:	48 83 c0 03          	add    $0x3,%rax
    37ee:	48 83 e0 fc          	and    $0xfffffffffffffffc,%rax
    37f2:	48 89 45 c8          	mov    %rax,-0x38(%rbp)
    37f6:	48 8b 45 c8          	mov    -0x38(%rbp),%rax
    37fa:	48 89 45 f0          	mov    %rax,-0x10(%rbp)
    37fe:	e9 e3 fe ff ff       	jmp    36e6 <_ZN12InitialRamFS10dir_existsEPc+0x4a>
    3803:	90                   	nop
    3804:	eb 01                	jmp    3807 <_ZN12InitialRamFS10dir_existsEPc+0x16b>
    3806:	90                   	nop
    3807:	b8 00 00 00 00       	mov    $0x0,%eax
    380c:	c9                   	leave
    380d:	c3                   	ret

000000000000380e <_ZN12InitialRamFS4readEPcS0_>:
    380e:	f3 0f 1e fa          	endbr64
    3812:	55                   	push   %rbp
    3813:	48 89 e5             	mov    %rsp,%rbp
    3816:	48 81 ec 60 01 00 00 	sub    $0x160,%rsp
    381d:	48 89 bd b8 fe ff ff 	mov    %rdi,-0x148(%rbp)
    3824:	48 89 b5 b0 fe ff ff 	mov    %rsi,-0x150(%rbp)
    382b:	48 89 95 a8 fe ff ff 	mov    %rdx,-0x158(%rbp)
    3832:	c7 45 fc 00 00 00 00 	movl   $0x0,-0x4(%rbp)
    3839:	eb 23                	jmp    385e <_ZN12InitialRamFS4readEPcS0_+0x50>
    383b:	8b 45 fc             	mov    -0x4(%rbp),%eax
    383e:	48 63 d0             	movslq %eax,%rdx
    3841:	48 8b 85 b0 fe ff ff 	mov    -0x150(%rbp),%rax
    3848:	48 01 d0             	add    %rdx,%rax
    384b:	0f b6 10             	movzbl (%rax),%edx
    384e:	8b 45 fc             	mov    -0x4(%rbp),%eax
    3851:	48 98                	cltq
    3853:	88 94 05 c0 fe ff ff 	mov    %dl,-0x140(%rbp,%rax,1)
    385a:	83 45 fc 01          	addl   $0x1,-0x4(%rbp)
    385e:	8b 45 fc             	mov    -0x4(%rbp),%eax
    3861:	48 63 d0             	movslq %eax,%rdx
    3864:	48 8b 85 b0 fe ff ff 	mov    -0x150(%rbp),%rax
    386b:	48 01 d0             	add    %rdx,%rax
    386e:	0f b6 00             	movzbl (%rax),%eax
    3871:	84 c0                	test   %al,%al
    3873:	74 09                	je     387e <_ZN12InitialRamFS4readEPcS0_+0x70>
    3875:	81 7d fc fe 00 00 00 	cmpl   $0xfe,-0x4(%rbp)
    387c:	7e bd                	jle    383b <_ZN12InitialRamFS4readEPcS0_+0x2d>
    387e:	83 7d fc 00          	cmpl   $0x0,-0x4(%rbp)
    3882:	7e 30                	jle    38b4 <_ZN12InitialRamFS4readEPcS0_+0xa6>
    3884:	8b 45 fc             	mov    -0x4(%rbp),%eax
    3887:	83 e8 01             	sub    $0x1,%eax
    388a:	48 98                	cltq
    388c:	0f b6 84 05 c0 fe ff 	movzbl -0x140(%rbp,%rax,1),%eax
    3893:	ff 
    3894:	3c 2f                	cmp    $0x2f,%al
    3896:	74 1c                	je     38b4 <_ZN12InitialRamFS4readEPcS0_+0xa6>
    3898:	81 7d fc fe 00 00 00 	cmpl   $0xfe,-0x4(%rbp)
    389f:	7f 13                	jg     38b4 <_ZN12InitialRamFS4readEPcS0_+0xa6>
    38a1:	8b 45 fc             	mov    -0x4(%rbp),%eax
    38a4:	8d 50 01             	lea    0x1(%rax),%edx
    38a7:	89 55 fc             	mov    %edx,-0x4(%rbp)
    38aa:	48 98                	cltq
    38ac:	c6 84 05 c0 fe ff ff 	movb   $0x2f,-0x140(%rbp,%rax,1)
    38b3:	2f 
    38b4:	c7 45 f8 00 00 00 00 	movl   $0x0,-0x8(%rbp)
    38bb:	eb 2a                	jmp    38e7 <_ZN12InitialRamFS4readEPcS0_+0xd9>
    38bd:	48 8b 8d a8 fe ff ff 	mov    -0x158(%rbp),%rcx
    38c4:	8b 45 f8             	mov    -0x8(%rbp),%eax
    38c7:	8d 50 01             	lea    0x1(%rax),%edx
    38ca:	89 55 f8             	mov    %edx,-0x8(%rbp)
    38cd:	48 98                	cltq
    38cf:	48 01 c8             	add    %rcx,%rax
    38d2:	0f b6 10             	movzbl (%rax),%edx
    38d5:	8b 45 fc             	mov    -0x4(%rbp),%eax
    38d8:	8d 48 01             	lea    0x1(%rax),%ecx
    38db:	89 4d fc             	mov    %ecx,-0x4(%rbp)
    38de:	48 98                	cltq
    38e0:	88 94 05 c0 fe ff ff 	mov    %dl,-0x140(%rbp,%rax,1)
    38e7:	8b 45 f8             	mov    -0x8(%rbp),%eax
    38ea:	48 63 d0             	movslq %eax,%rdx
    38ed:	48 8b 85 a8 fe ff ff 	mov    -0x158(%rbp),%rax
    38f4:	48 01 d0             	add    %rdx,%rax
    38f7:	0f b6 00             	movzbl (%rax),%eax
    38fa:	84 c0                	test   %al,%al
    38fc:	74 09                	je     3907 <_ZN12InitialRamFS4readEPcS0_+0xf9>
    38fe:	81 7d fc fe 00 00 00 	cmpl   $0xfe,-0x4(%rbp)
    3905:	7e b6                	jle    38bd <_ZN12InitialRamFS4readEPcS0_+0xaf>
    3907:	8b 45 fc             	mov    -0x4(%rbp),%eax
    390a:	48 98                	cltq
    390c:	c6 84 05 c0 fe ff ff 	movb   $0x0,-0x140(%rbp,%rax,1)
    3913:	00 
    3914:	48 8b 85 b8 fe ff ff 	mov    -0x148(%rbp),%rax
    391b:	48 8b 00             	mov    (%rax),%rax
    391e:	48 89 45 f0          	mov    %rax,-0x10(%rbp)
    3922:	48 8b 45 f0          	mov    -0x10(%rbp),%rax
    3926:	48 89 45 e8          	mov    %rax,-0x18(%rbp)
    392a:	48 8b 45 e8          	mov    -0x18(%rbp),%rax
    392e:	ba 06 00 00 00       	mov    $0x6,%edx
    3933:	48 8d 0d 09 fa 00 00 	lea    0xfa09(%rip),%rcx        # 13343 <_ZL4font+0x1043>
    393a:	48 89 ce             	mov    %rcx,%rsi
    393d:	48 89 c7             	mov    %rax,%rdi
    3940:	e8 cb f9 ff ff       	call   3310 <_Z6memcmpPKvS0_m>
    3945:	85 c0                	test   %eax,%eax
    3947:	0f 95 c0             	setne  %al
    394a:	84 c0                	test   %al,%al
    394c:	0f 85 e4 00 00 00    	jne    3a36 <_ZN12InitialRamFS4readEPcS0_+0x228>
    3952:	48 8b 45 e8          	mov    -0x18(%rbp),%rax
    3956:	48 83 c0 5e          	add    $0x5e,%rax
    395a:	be 08 00 00 00       	mov    $0x8,%esi
    395f:	48 89 c7             	mov    %rax,%rdi
    3962:	e8 19 f9 ff ff       	call   3280 <_ZL9parse_hexPKcm>
    3967:	89 45 e4             	mov    %eax,-0x1c(%rbp)
    396a:	48 8b 45 f0          	mov    -0x10(%rbp),%rax
    396e:	48 83 c0 6e          	add    $0x6e,%rax
    3972:	48 89 45 d8          	mov    %rax,-0x28(%rbp)
    3976:	48 8b 45 d8          	mov    -0x28(%rbp),%rax
    397a:	48 8d 15 c9 f9 00 00 	lea    0xf9c9(%rip),%rdx        # 1334a <_ZL4font+0x104a>
    3981:	48 89 d6             	mov    %rdx,%rsi
    3984:	48 89 c7             	mov    %rax,%rdi
    3987:	e8 10 fa ff ff       	call   339c <_Z6strcmpPKcS0_>
    398c:	85 c0                	test   %eax,%eax
    398e:	0f 94 c0             	sete   %al
    3991:	84 c0                	test   %al,%al
    3993:	0f 85 a0 00 00 00    	jne    3a39 <_ZN12InitialRamFS4readEPcS0_+0x22b>
    3999:	48 8d 95 c0 fe ff ff 	lea    -0x140(%rbp),%rdx
    39a0:	48 8b 45 d8          	mov    -0x28(%rbp),%rax
    39a4:	48 89 d6             	mov    %rdx,%rsi
    39a7:	48 89 c7             	mov    %rax,%rdi
    39aa:	e8 ed f9 ff ff       	call   339c <_Z6strcmpPKcS0_>
    39af:	85 c0                	test   %eax,%eax
    39b1:	0f 94 c0             	sete   %al
    39b4:	84 c0                	test   %al,%al
    39b6:	74 24                	je     39dc <_ZN12InitialRamFS4readEPcS0_+0x1ce>
    39b8:	8b 55 e4             	mov    -0x1c(%rbp),%edx
    39bb:	48 8b 45 d8          	mov    -0x28(%rbp),%rax
    39bf:	48 01 d0             	add    %rdx,%rax
    39c2:	48 89 45 c0          	mov    %rax,-0x40(%rbp)
    39c6:	48 8b 45 c0          	mov    -0x40(%rbp),%rax
    39ca:	48 83 c0 03          	add    $0x3,%rax
    39ce:	48 83 e0 fc          	and    $0xfffffffffffffffc,%rax
    39d2:	48 89 45 c0          	mov    %rax,-0x40(%rbp)
    39d6:	48 8b 45 c0          	mov    -0x40(%rbp),%rax
    39da:	eb 63                	jmp    3a3f <_ZN12InitialRamFS4readEPcS0_+0x231>
    39dc:	48 8b 45 e8          	mov    -0x18(%rbp),%rax
    39e0:	48 83 c0 36          	add    $0x36,%rax
    39e4:	be 08 00 00 00       	mov    $0x8,%esi
    39e9:	48 89 c7             	mov    %rax,%rdi
    39ec:	e8 8f f8 ff ff       	call   3280 <_ZL9parse_hexPKcm>
    39f1:	89 45 d4             	mov    %eax,-0x2c(%rbp)
    39f4:	8b 55 e4             	mov    -0x1c(%rbp),%edx
    39f7:	48 8b 45 d8          	mov    -0x28(%rbp),%rax
    39fb:	48 01 d0             	add    %rdx,%rax
    39fe:	48 89 45 c8          	mov    %rax,-0x38(%rbp)
    3a02:	48 8b 45 c8          	mov    -0x38(%rbp),%rax
    3a06:	48 83 c0 03          	add    $0x3,%rax
    3a0a:	48 83 e0 fc          	and    $0xfffffffffffffffc,%rax
    3a0e:	48 89 45 c8          	mov    %rax,-0x38(%rbp)
    3a12:	8b 45 d4             	mov    -0x2c(%rbp),%eax
    3a15:	48 01 45 c8          	add    %rax,-0x38(%rbp)
    3a19:	48 8b 45 c8          	mov    -0x38(%rbp),%rax
    3a1d:	48 83 c0 03          	add    $0x3,%rax
    3a21:	48 83 e0 fc          	and    $0xfffffffffffffffc,%rax
    3a25:	48 89 45 c8          	mov    %rax,-0x38(%rbp)
    3a29:	48 8b 45 c8          	mov    -0x38(%rbp),%rax
    3a2d:	48 89 45 f0          	mov    %rax,-0x10(%rbp)
    3a31:	e9 ec fe ff ff       	jmp    3922 <_ZN12InitialRamFS4readEPcS0_+0x114>
    3a36:	90                   	nop
    3a37:	eb 01                	jmp    3a3a <_ZN12InitialRamFS4readEPcS0_+0x22c>
    3a39:	90                   	nop
    3a3a:	b8 00 00 00 00       	mov    $0x0,%eax
    3a3f:	c9                   	leave
    3a40:	c3                   	ret
    3a41:	90                   	nop

0000000000003a42 <_ZN12InitialRamFS4listEPc>:
    3a42:	f3 0f 1e fa          	endbr64
    3a46:	55                   	push   %rbp
    3a47:	48 89 e5             	mov    %rsp,%rbp
    3a4a:	48 83 ec 70          	sub    $0x70,%rsp
    3a4e:	48 89 7d 98          	mov    %rdi,-0x68(%rbp)
    3a52:	48 89 75 90          	mov    %rsi,-0x70(%rbp)
    3a56:	48 8d 05 a3 26 02 00 	lea    0x226a3(%rip),%rax        # 26100 <_ZZN12InitialRamFS4listEPcE6buffer>
    3a5d:	48 89 45 f8          	mov    %rax,-0x8(%rbp)
    3a61:	48 8b 45 90          	mov    -0x70(%rbp),%rax
    3a65:	48 89 c7             	mov    %rax,%rdi
    3a68:	e8 73 fa ff ff       	call   34e0 <_Z6strlenPKc>
    3a6d:	48 89 45 f0          	mov    %rax,-0x10(%rbp)
    3a71:	48 8b 45 f0          	mov    -0x10(%rbp),%rax
    3a75:	48 8d 50 ff          	lea    -0x1(%rax),%rdx
    3a79:	48 8b 45 90          	mov    -0x70(%rbp),%rax
    3a7d:	48 01 d0             	add    %rdx,%rax
    3a80:	0f b6 00             	movzbl (%rax),%eax
    3a83:	3c 2f                	cmp    $0x2f,%al
    3a85:	74 25                	je     3aac <_ZN12InitialRamFS4listEPc+0x6a>
    3a87:	48 8b 55 90          	mov    -0x70(%rbp),%rdx
    3a8b:	48 8b 45 f0          	mov    -0x10(%rbp),%rax
    3a8f:	48 01 d0             	add    %rdx,%rax
    3a92:	c6 00 2f             	movb   $0x2f,(%rax)
    3a95:	48 8b 45 f0          	mov    -0x10(%rbp),%rax
    3a99:	48 8d 50 01          	lea    0x1(%rax),%rdx
    3a9d:	48 8b 45 90          	mov    -0x70(%rbp),%rax
    3aa1:	48 01 d0             	add    %rdx,%rax
    3aa4:	c6 00 00             	movb   $0x0,(%rax)
    3aa7:	48 83 45 f0 01       	addq   $0x1,-0x10(%rbp)
    3aac:	48 8b 45 98          	mov    -0x68(%rbp),%rax
    3ab0:	48 8b 00             	mov    (%rax),%rax
    3ab3:	48 89 45 e8          	mov    %rax,-0x18(%rbp)
    3ab7:	48 8b 45 e8          	mov    -0x18(%rbp),%rax
    3abb:	48 89 45 e0          	mov    %rax,-0x20(%rbp)
    3abf:	48 8b 45 e0          	mov    -0x20(%rbp),%rax
    3ac3:	ba 06 00 00 00       	mov    $0x6,%edx
    3ac8:	48 8d 0d 74 f8 00 00 	lea    0xf874(%rip),%rcx        # 13343 <_ZL4font+0x1043>
    3acf:	48 89 ce             	mov    %rcx,%rsi
    3ad2:	48 89 c7             	mov    %rax,%rdi
    3ad5:	e8 36 f8 ff ff       	call   3310 <_Z6memcmpPKvS0_m>
    3ada:	85 c0                	test   %eax,%eax
    3adc:	0f 95 c0             	setne  %al
    3adf:	84 c0                	test   %al,%al
    3ae1:	0f 85 2d 01 00 00    	jne    3c14 <_ZN12InitialRamFS4listEPc+0x1d2>
    3ae7:	48 8b 45 e0          	mov    -0x20(%rbp),%rax
    3aeb:	48 83 c0 5e          	add    $0x5e,%rax
    3aef:	be 08 00 00 00       	mov    $0x8,%esi
    3af4:	48 89 c7             	mov    %rax,%rdi
    3af7:	e8 84 f7 ff ff       	call   3280 <_ZL9parse_hexPKcm>
    3afc:	89 45 dc             	mov    %eax,-0x24(%rbp)
    3aff:	48 8b 45 e8          	mov    -0x18(%rbp),%rax
    3b03:	48 83 c0 6e          	add    $0x6e,%rax
    3b07:	48 89 45 d0          	mov    %rax,-0x30(%rbp)
    3b0b:	48 8b 45 d0          	mov    -0x30(%rbp),%rax
    3b0f:	48 8d 15 34 f8 00 00 	lea    0xf834(%rip),%rdx        # 1334a <_ZL4font+0x104a>
    3b16:	48 89 d6             	mov    %rdx,%rsi
    3b19:	48 89 c7             	mov    %rax,%rdi
    3b1c:	e8 7b f8 ff ff       	call   339c <_Z6strcmpPKcS0_>
    3b21:	85 c0                	test   %eax,%eax
    3b23:	0f 94 c0             	sete   %al
    3b26:	84 c0                	test   %al,%al
    3b28:	0f 85 e9 00 00 00    	jne    3c17 <_ZN12InitialRamFS4listEPc+0x1d5>
    3b2e:	48 8b 55 f0          	mov    -0x10(%rbp),%rdx
    3b32:	48 8b 4d 90          	mov    -0x70(%rbp),%rcx
    3b36:	48 8b 45 d0          	mov    -0x30(%rbp),%rax
    3b3a:	48 89 ce             	mov    %rcx,%rsi
    3b3d:	48 89 c7             	mov    %rax,%rdi
    3b40:	e8 08 f9 ff ff       	call   344d <_Z7strncmpPKcS0_m>
    3b45:	85 c0                	test   %eax,%eax
    3b47:	0f 94 c0             	sete   %al
    3b4a:	84 c0                	test   %al,%al
    3b4c:	74 6c                	je     3bba <_ZN12InitialRamFS4listEPc+0x178>
    3b4e:	48 8b 55 d0          	mov    -0x30(%rbp),%rdx
    3b52:	48 8b 45 f0          	mov    -0x10(%rbp),%rax
    3b56:	48 01 d0             	add    %rdx,%rax
    3b59:	48 89 45 c8          	mov    %rax,-0x38(%rbp)
    3b5d:	48 8b 45 c8          	mov    -0x38(%rbp),%rax
    3b61:	be 2f 00 00 00       	mov    $0x2f,%esi
    3b66:	48 89 c7             	mov    %rax,%rdi
    3b69:	e8 a5 f9 ff ff       	call   3513 <_Z6strchrPKci>
    3b6e:	48 89 45 c0          	mov    %rax,-0x40(%rbp)
    3b72:	48 83 7d c0 00       	cmpq   $0x0,-0x40(%rbp)
    3b77:	75 41                	jne    3bba <_ZN12InitialRamFS4listEPc+0x178>
    3b79:	48 8b 45 c8          	mov    -0x38(%rbp),%rax
    3b7d:	48 89 c7             	mov    %rax,%rdi
    3b80:	e8 5b f9 ff ff       	call   34e0 <_Z6strlenPKc>
    3b85:	48 89 45 b8          	mov    %rax,-0x48(%rbp)
    3b89:	48 8b 55 b8          	mov    -0x48(%rbp),%rdx
    3b8d:	48 8b 4d c8          	mov    -0x38(%rbp),%rcx
    3b91:	48 8b 45 f8          	mov    -0x8(%rbp),%rax
    3b95:	48 89 ce             	mov    %rcx,%rsi
    3b98:	48 89 c7             	mov    %rax,%rdi
    3b9b:	e8 4f f8 ff ff       	call   33ef <_Z6memcpyPvPKvm>
    3ba0:	48 8b 55 f8          	mov    -0x8(%rbp),%rdx
    3ba4:	48 8b 45 b8          	mov    -0x48(%rbp),%rax
    3ba8:	48 01 d0             	add    %rdx,%rax
    3bab:	c6 00 0a             	movb   $0xa,(%rax)
    3bae:	48 8b 45 b8          	mov    -0x48(%rbp),%rax
    3bb2:	48 83 c0 01          	add    $0x1,%rax
    3bb6:	48 01 45 f8          	add    %rax,-0x8(%rbp)
    3bba:	48 8b 45 e0          	mov    -0x20(%rbp),%rax
    3bbe:	48 83 c0 36          	add    $0x36,%rax
    3bc2:	be 08 00 00 00       	mov    $0x8,%esi
    3bc7:	48 89 c7             	mov    %rax,%rdi
    3bca:	e8 b1 f6 ff ff       	call   3280 <_ZL9parse_hexPKcm>
    3bcf:	89 45 b4             	mov    %eax,-0x4c(%rbp)
    3bd2:	8b 55 dc             	mov    -0x24(%rbp),%edx
    3bd5:	48 8b 45 d0          	mov    -0x30(%rbp),%rax
    3bd9:	48 01 d0             	add    %rdx,%rax
    3bdc:	48 89 45 a8          	mov    %rax,-0x58(%rbp)
    3be0:	48 8b 45 a8          	mov    -0x58(%rbp),%rax
    3be4:	48 83 c0 03          	add    $0x3,%rax
    3be8:	48 83 e0 fc          	and    $0xfffffffffffffffc,%rax
    3bec:	48 89 45 a8          	mov    %rax,-0x58(%rbp)
    3bf0:	8b 45 b4             	mov    -0x4c(%rbp),%eax
    3bf3:	48 01 45 a8          	add    %rax,-0x58(%rbp)
    3bf7:	48 8b 45 a8          	mov    -0x58(%rbp),%rax
    3bfb:	48 83 c0 03          	add    $0x3,%rax
    3bff:	48 83 e0 fc          	and    $0xfffffffffffffffc,%rax
    3c03:	48 89 45 a8          	mov    %rax,-0x58(%rbp)
    3c07:	48 8b 45 a8          	mov    -0x58(%rbp),%rax
    3c0b:	48 89 45 e8          	mov    %rax,-0x18(%rbp)
    3c0f:	e9 a3 fe ff ff       	jmp    3ab7 <_ZN12InitialRamFS4listEPc+0x75>
    3c14:	90                   	nop
    3c15:	eb 01                	jmp    3c18 <_ZN12InitialRamFS4listEPc+0x1d6>
    3c17:	90                   	nop
    3c18:	48 8b 45 f8          	mov    -0x8(%rbp),%rax
    3c1c:	c6 00 00             	movb   $0x0,(%rax)
    3c1f:	48 8d 05 da 24 02 00 	lea    0x224da(%rip),%rax        # 26100 <_ZZN12InitialRamFS4listEPcE6buffer>
    3c26:	c9                   	leave
    3c27:	c3                   	ret

0000000000003c28 <_ZN14KernelServicesC1EP8BootInfo>:
    3c28:	f3 0f 1e fa          	endbr64
    3c2c:	55                   	push   %rbp
    3c2d:	48 89 e5             	mov    %rsp,%rbp
    3c30:	48 83 ec 10          	sub    $0x10,%rsp
    3c34:	48 89 7d f8          	mov    %rdi,-0x8(%rbp)
    3c38:	48 89 75 f0          	mov    %rsi,-0x10(%rbp)
    3c3c:	48 8b 7d f8          	mov    -0x8(%rbp),%rdi
    3c40:	48 8b 4d f0          	mov    -0x10(%rbp),%rcx
    3c44:	48 83 ec 20          	sub    $0x20,%rsp
    3c48:	48 89 e6             	mov    %rsp,%rsi
    3c4b:	48 8b 01             	mov    (%rcx),%rax
    3c4e:	48 8b 51 08          	mov    0x8(%rcx),%rdx
    3c52:	48 89 06             	mov    %rax,(%rsi)
    3c55:	48 89 56 08          	mov    %rdx,0x8(%rsi)
    3c59:	48 8b 41 10          	mov    0x10(%rcx),%rax
    3c5d:	48 8b 51 18          	mov    0x18(%rcx),%rdx
    3c61:	48 89 46 10          	mov    %rax,0x10(%rsi)
    3c65:	48 89 56 18          	mov    %rdx,0x18(%rsi)
    3c69:	e8 b0 e7 ff ff       	call   241e <_ZN12BasicConsoleC1E11FrameBuffer>
    3c6e:	48 83 c4 20          	add    $0x20,%rsp
    3c72:	48 8b 45 f8          	mov    -0x8(%rbp),%rax
    3c76:	48 83 c0 28          	add    $0x28,%rax
    3c7a:	48 89 c7             	mov    %rax,%rdi
    3c7d:	e8 e2 4d 00 00       	call   8a64 <_ZN18PageFrameAllocatorC1Ev>
    3c82:	48 8b 45 f8          	mov    -0x8(%rbp),%rax
    3c86:	48 83 e8 80          	sub    $0xffffffffffffff80,%rax
    3c8a:	48 89 c7             	mov    %rax,%rdi
    3c8d:	e8 1c 01 00 00       	call   3dae <_ZN16PageTableManagerC1Ev>
    3c92:	48 8b 45 f8          	mov    -0x8(%rbp),%rax
    3c96:	48 05 a8 00 00 00    	add    $0xa8,%rax
    3c9c:	48 89 c7             	mov    %rax,%rdi
    3c9f:	e8 22 01 00 00       	call   3dc6 <_ZN3GDTC1Ev>
    3ca4:	48 8b 45 f8          	mov    -0x8(%rbp),%rax
    3ca8:	48 05 e0 00 00 00    	add    $0xe0,%rax
    3cae:	48 89 c7             	mov    %rax,%rdi
    3cb1:	e8 20 01 00 00       	call   3dd6 <_ZN3IDTC1Ev>
    3cb6:	48 8b 45 f8          	mov    -0x8(%rbp),%rax
    3cba:	48 05 00 11 00 00    	add    $0x1100,%rax
    3cc0:	48 89 c7             	mov    %rax,%rdi
    3cc3:	e8 1e 01 00 00       	call   3de6 <_ZN4APICC1Ev>
    3cc8:	48 8b 45 f8          	mov    -0x8(%rbp),%rax
    3ccc:	48 05 01 11 00 00    	add    $0x1101,%rax
    3cd2:	48 89 c7             	mov    %rax,%rdi
    3cd5:	e8 04 e7 ff ff       	call   23de <_ZN3PICC1Ev>
    3cda:	48 8b 45 f8          	mov    -0x8(%rbp),%rax
    3cde:	48 05 08 11 00 00    	add    $0x1108,%rax
    3ce4:	48 89 c7             	mov    %rax,%rdi
    3ce7:	e8 0a 01 00 00       	call   3df6 <_ZN6IOAPICC1Ev>
    3cec:	48 8b 45 f8          	mov    -0x8(%rbp),%rax
    3cf0:	48 05 30 11 00 00    	add    $0x1130,%rax
    3cf6:	48 89 c7             	mov    %rax,%rdi
    3cf9:	e8 08 01 00 00       	call   3e06 <_ZN4ACPIC1Ev>
    3cfe:	48 8b 45 f8          	mov    -0x8(%rbp),%rax
    3d02:	48 05 58 11 00 00    	add    $0x1158,%rax
    3d08:	48 89 c7             	mov    %rax,%rdi
    3d0b:	e8 06 01 00 00       	call   3e16 <_ZN13HeapAllocatorC1Ev>
    3d10:	48 8b 45 f8          	mov    -0x8(%rbp),%rax
    3d14:	48 05 78 11 00 00    	add    $0x1178,%rax
    3d1a:	48 89 c7             	mov    %rax,%rdi
    3d1d:	e8 04 01 00 00       	call   3e26 <_ZN3PCIC1Ev>
    3d22:	48 8b 45 f8          	mov    -0x8(%rbp),%rax
    3d26:	48 05 90 11 00 00    	add    $0x1190,%rax
    3d2c:	48 89 c7             	mov    %rax,%rdi
    3d2f:	e8 12 01 00 00       	call   3e46 <_ZN4PCIeC1Ev>
    3d34:	48 8b 45 f8          	mov    -0x8(%rbp),%rax
    3d38:	48 8d 50 28          	lea    0x28(%rax),%rdx
    3d3c:	48 8b 45 f8          	mov    -0x8(%rbp),%rax
    3d40:	48 89 c6             	mov    %rax,%rsi
    3d43:	48 89 d7             	mov    %rdx,%rdi
    3d46:	e8 43 00 00 00       	call   3d8e <_ZN18PageFrameAllocator10InitialiseEP12BasicConsole>
    3d4b:	48 8b 45 f8          	mov    -0x8(%rbp),%rax
    3d4f:	48 8d 90 a8 00 00 00 	lea    0xa8(%rax),%rdx
    3d56:	48 8b 45 f8          	mov    -0x8(%rbp),%rax
    3d5a:	48 89 c6             	mov    %rax,%rsi
    3d5d:	48 89 d7             	mov    %rdx,%rdi
    3d60:	e8 2b ed ff ff       	call   2a90 <_ZN3GDT10InitializeEP12BasicConsole>
    3d65:	48 8b 45 f8          	mov    -0x8(%rbp),%rax
    3d69:	48 89 05 90 2b 02 00 	mov    %rax,0x22b90(%rip)        # 26900 <ks>
    3d70:	48 8b 45 f8          	mov    -0x8(%rbp),%rax
    3d74:	48 8d 90 e0 00 00 00 	lea    0xe0(%rax),%rdx
    3d7b:	48 8b 45 f8          	mov    -0x8(%rbp),%rax
    3d7f:	48 89 c6             	mov    %rax,%rsi
    3d82:	48 89 d7             	mov    %rdx,%rdi
    3d85:	e8 e2 f0 ff ff       	call   2e6c <_ZN3IDT10InitializeEP12BasicConsole>
    3d8a:	90                   	nop
    3d8b:	c9                   	leave
    3d8c:	c3                   	ret
    3d8d:	90                   	nop

0000000000003d8e <_ZN18PageFrameAllocator10InitialiseEP12BasicConsole>:
    3d8e:	f3 0f 1e fa          	endbr64
    3d92:	55                   	push   %rbp
    3d93:	48 89 e5             	mov    %rsp,%rbp
    3d96:	48 89 7d f8          	mov    %rdi,-0x8(%rbp)
    3d9a:	48 89 75 f0          	mov    %rsi,-0x10(%rbp)
    3d9e:	48 8b 45 f8          	mov    -0x8(%rbp),%rax
    3da2:	48 8b 55 f0          	mov    -0x10(%rbp),%rdx
    3da6:	48 89 50 50          	mov    %rdx,0x50(%rax)
    3daa:	90                   	nop
    3dab:	5d                   	pop    %rbp
    3dac:	c3                   	ret
    3dad:	90                   	nop

0000000000003dae <_ZN16PageTableManagerC1Ev>:
    3dae:	f3 0f 1e fa          	endbr64
    3db2:	55                   	push   %rbp
    3db3:	48 89 e5             	mov    %rsp,%rbp
    3db6:	48 89 7d f8          	mov    %rdi,-0x8(%rbp)
    3dba:	48 8b 45 f8          	mov    -0x8(%rbp),%rax
    3dbe:	c6 40 18 00          	movb   $0x0,0x18(%rax)
    3dc2:	90                   	nop
    3dc3:	5d                   	pop    %rbp
    3dc4:	c3                   	ret
    3dc5:	90                   	nop

0000000000003dc6 <_ZN3GDTC1Ev>:
    3dc6:	f3 0f 1e fa          	endbr64
    3dca:	55                   	push   %rbp
    3dcb:	48 89 e5             	mov    %rsp,%rbp
    3dce:	48 89 7d f8          	mov    %rdi,-0x8(%rbp)
    3dd2:	90                   	nop
    3dd3:	5d                   	pop    %rbp
    3dd4:	c3                   	ret
    3dd5:	90                   	nop

0000000000003dd6 <_ZN3IDTC1Ev>:
    3dd6:	f3 0f 1e fa          	endbr64
    3dda:	55                   	push   %rbp
    3ddb:	48 89 e5             	mov    %rsp,%rbp
    3dde:	48 89 7d f8          	mov    %rdi,-0x8(%rbp)
    3de2:	90                   	nop
    3de3:	5d                   	pop    %rbp
    3de4:	c3                   	ret
    3de5:	90                   	nop

0000000000003de6 <_ZN4APICC1Ev>:
    3de6:	f3 0f 1e fa          	endbr64
    3dea:	55                   	push   %rbp
    3deb:	48 89 e5             	mov    %rsp,%rbp
    3dee:	48 89 7d f8          	mov    %rdi,-0x8(%rbp)
    3df2:	90                   	nop
    3df3:	5d                   	pop    %rbp
    3df4:	c3                   	ret
    3df5:	90                   	nop

0000000000003df6 <_ZN6IOAPICC1Ev>:
    3df6:	f3 0f 1e fa          	endbr64
    3dfa:	55                   	push   %rbp
    3dfb:	48 89 e5             	mov    %rsp,%rbp
    3dfe:	48 89 7d f8          	mov    %rdi,-0x8(%rbp)
    3e02:	90                   	nop
    3e03:	5d                   	pop    %rbp
    3e04:	c3                   	ret
    3e05:	90                   	nop

0000000000003e06 <_ZN4ACPIC1Ev>:
    3e06:	f3 0f 1e fa          	endbr64
    3e0a:	55                   	push   %rbp
    3e0b:	48 89 e5             	mov    %rsp,%rbp
    3e0e:	48 89 7d f8          	mov    %rdi,-0x8(%rbp)
    3e12:	90                   	nop
    3e13:	5d                   	pop    %rbp
    3e14:	c3                   	ret
    3e15:	90                   	nop

0000000000003e16 <_ZN13HeapAllocatorC1Ev>:
    3e16:	f3 0f 1e fa          	endbr64
    3e1a:	55                   	push   %rbp
    3e1b:	48 89 e5             	mov    %rsp,%rbp
    3e1e:	48 89 7d f8          	mov    %rdi,-0x8(%rbp)
    3e22:	90                   	nop
    3e23:	5d                   	pop    %rbp
    3e24:	c3                   	ret
    3e25:	90                   	nop

0000000000003e26 <_ZN3PCIC1Ev>:
    3e26:	f3 0f 1e fa          	endbr64
    3e2a:	55                   	push   %rbp
    3e2b:	48 89 e5             	mov    %rsp,%rbp
    3e2e:	48 83 ec 10          	sub    $0x10,%rsp
    3e32:	48 89 7d f8          	mov    %rdi,-0x8(%rbp)
    3e36:	48 8b 45 f8          	mov    -0x8(%rbp),%rax
    3e3a:	48 89 c7             	mov    %rax,%rdi
    3e3d:	e8 24 00 00 00       	call   3e66 <_ZN5ArrayI9DeviceKeyEC1Ev>
    3e42:	90                   	nop
    3e43:	c9                   	leave
    3e44:	c3                   	ret
    3e45:	90                   	nop

0000000000003e46 <_ZN4PCIeC1Ev>:
    3e46:	f3 0f 1e fa          	endbr64
    3e4a:	55                   	push   %rbp
    3e4b:	48 89 e5             	mov    %rsp,%rbp
    3e4e:	48 83 ec 10          	sub    $0x10,%rsp
    3e52:	48 89 7d f8          	mov    %rdi,-0x8(%rbp)
    3e56:	48 8b 45 f8          	mov    -0x8(%rbp),%rax
    3e5a:	48 89 c7             	mov    %rax,%rdi
    3e5d:	e8 4e 00 00 00       	call   3eb0 <_ZN5ArrayI13PCIeDeviceKeyEC1Ev>
    3e62:	90                   	nop
    3e63:	c9                   	leave
    3e64:	c3                   	ret
    3e65:	90                   	nop

0000000000003e66 <_ZN5ArrayI9DeviceKeyEC1Ev>:
    3e66:	f3 0f 1e fa          	endbr64
    3e6a:	55                   	push   %rbp
    3e6b:	48 89 e5             	mov    %rsp,%rbp
    3e6e:	48 89 7d f8          	mov    %rdi,-0x8(%rbp)
    3e72:	48 8b 45 f8          	mov    -0x8(%rbp),%rax
    3e76:	48 c7 00 00 00 00 00 	movq   $0x0,(%rax)
    3e7d:	48 8b 45 f8          	mov    -0x8(%rbp),%rax
    3e81:	48 c7 40 08 00 00 00 	movq   $0x0,0x8(%rax)
    3e88:	00 
    3e89:	48 8b 45 f8          	mov    -0x8(%rbp),%rax
    3e8d:	48 c7 40 10 00 00 00 	movq   $0x0,0x10(%rax)
    3e94:	00 
    3e95:	48 8b 45 f8          	mov    -0x8(%rbp),%rax
    3e99:	48 c7 40 08 00 00 00 	movq   $0x0,0x8(%rax)
    3ea0:	00 
    3ea1:	48 8b 45 f8          	mov    -0x8(%rbp),%rax
    3ea5:	48 c7 40 10 00 00 00 	movq   $0x0,0x10(%rax)
    3eac:	00 
    3ead:	90                   	nop
    3eae:	5d                   	pop    %rbp
    3eaf:	c3                   	ret

0000000000003eb0 <_ZN5ArrayI13PCIeDeviceKeyEC1Ev>:
    3eb0:	f3 0f 1e fa          	endbr64
    3eb4:	55                   	push   %rbp
    3eb5:	48 89 e5             	mov    %rsp,%rbp
    3eb8:	48 89 7d f8          	mov    %rdi,-0x8(%rbp)
    3ebc:	48 8b 45 f8          	mov    -0x8(%rbp),%rax
    3ec0:	48 c7 00 00 00 00 00 	movq   $0x0,(%rax)
    3ec7:	48 8b 45 f8          	mov    -0x8(%rbp),%rax
    3ecb:	48 c7 40 08 00 00 00 	movq   $0x0,0x8(%rax)
    3ed2:	00 
    3ed3:	48 8b 45 f8          	mov    -0x8(%rbp),%rax
    3ed7:	48 c7 40 10 00 00 00 	movq   $0x0,0x10(%rax)
    3ede:	00 
    3edf:	48 8b 45 f8          	mov    -0x8(%rbp),%rax
    3ee3:	48 c7 40 08 00 00 00 	movq   $0x0,0x8(%rax)
    3eea:	00 
    3eeb:	48 8b 45 f8          	mov    -0x8(%rbp),%rax
    3eef:	48 c7 40 10 00 00 00 	movq   $0x0,0x10(%rax)
    3ef6:	00 
    3ef7:	90                   	nop
    3ef8:	5d                   	pop    %rbp
    3ef9:	c3                   	ret

0000000000003efa <_ZN3PCI14ConfigReadWordEhhhh>:
    3efa:	f3 0f 1e fa          	endbr64
    3efe:	55                   	push   %rbp
    3eff:	48 89 e5             	mov    %rsp,%rbp
    3f02:	48 83 ec 40          	sub    $0x40,%rsp
    3f06:	48 89 7d d8          	mov    %rdi,-0x28(%rbp)
    3f0a:	89 c8                	mov    %ecx,%eax
    3f0c:	44 89 c7             	mov    %r8d,%edi
    3f0f:	89 f1                	mov    %esi,%ecx
    3f11:	88 4d d4             	mov    %cl,-0x2c(%rbp)
    3f14:	88 55 d0             	mov    %dl,-0x30(%rbp)
    3f17:	88 45 cc             	mov    %al,-0x34(%rbp)
    3f1a:	89 f8                	mov    %edi,%eax
    3f1c:	88 45 c8             	mov    %al,-0x38(%rbp)
    3f1f:	0f b6 45 d4          	movzbl -0x2c(%rbp),%eax
    3f23:	89 45 fc             	mov    %eax,-0x4(%rbp)
    3f26:	0f b6 45 d0          	movzbl -0x30(%rbp),%eax
    3f2a:	89 45 f8             	mov    %eax,-0x8(%rbp)
    3f2d:	0f b6 45 cc          	movzbl -0x34(%rbp),%eax
    3f31:	89 45 f4             	mov    %eax,-0xc(%rbp)
    3f34:	66 c7 45 f2 00 00    	movw   $0x0,-0xe(%rbp)
    3f3a:	8b 45 fc             	mov    -0x4(%rbp),%eax
    3f3d:	c1 e0 10             	shl    $0x10,%eax
    3f40:	89 c2                	mov    %eax,%edx
    3f42:	8b 45 f8             	mov    -0x8(%rbp),%eax
    3f45:	c1 e0 0b             	shl    $0xb,%eax
    3f48:	09 c2                	or     %eax,%edx
    3f4a:	8b 45 f4             	mov    -0xc(%rbp),%eax
    3f4d:	c1 e0 08             	shl    $0x8,%eax
    3f50:	09 c2                	or     %eax,%edx
    3f52:	0f b6 45 c8          	movzbl -0x38(%rbp),%eax
    3f56:	25 fc 00 00 00       	and    $0xfc,%eax
    3f5b:	09 d0                	or     %edx,%eax
    3f5d:	0d 00 00 00 80       	or     $0x80000000,%eax
    3f62:	89 45 ec             	mov    %eax,-0x14(%rbp)
    3f65:	8b 45 ec             	mov    -0x14(%rbp),%eax
    3f68:	89 c6                	mov    %eax,%esi
    3f6a:	bf f8 0c 00 00       	mov    $0xcf8,%edi
    3f6f:	e8 1e e8 ff ff       	call   2792 <_Z4outltj>
    3f74:	bf fc 0c 00 00       	mov    $0xcfc,%edi
    3f79:	e8 30 e8 ff ff       	call   27ae <_Z3inlt>
    3f7e:	0f b6 55 c8          	movzbl -0x38(%rbp),%edx
    3f82:	83 e2 02             	and    $0x2,%edx
    3f85:	c1 e2 03             	shl    $0x3,%edx
    3f88:	89 d1                	mov    %edx,%ecx
    3f8a:	d3 e8                	shr    %cl,%eax
    3f8c:	66 89 45 f2          	mov    %ax,-0xe(%rbp)
    3f90:	0f b7 45 f2          	movzwl -0xe(%rbp),%eax
    3f94:	c9                   	leave
    3f95:	c3                   	ret

0000000000003f96 <_ZN3PCI15ConfigWriteWordEhhhht>:
    3f96:	f3 0f 1e fa          	endbr64
    3f9a:	55                   	push   %rbp
    3f9b:	48 89 e5             	mov    %rsp,%rbp
    3f9e:	48 83 ec 30          	sub    $0x30,%rsp
    3fa2:	48 89 7d e8          	mov    %rdi,-0x18(%rbp)
    3fa6:	89 c8                	mov    %ecx,%eax
    3fa8:	44 89 cf             	mov    %r9d,%edi
    3fab:	89 f1                	mov    %esi,%ecx
    3fad:	88 4d e4             	mov    %cl,-0x1c(%rbp)
    3fb0:	88 55 e0             	mov    %dl,-0x20(%rbp)
    3fb3:	88 45 dc             	mov    %al,-0x24(%rbp)
    3fb6:	44 89 c0             	mov    %r8d,%eax
    3fb9:	88 45 d8             	mov    %al,-0x28(%rbp)
    3fbc:	89 f8                	mov    %edi,%eax
    3fbe:	66 89 45 d4          	mov    %ax,-0x2c(%rbp)
    3fc2:	0f b6 45 e4          	movzbl -0x1c(%rbp),%eax
    3fc6:	c1 e0 10             	shl    $0x10,%eax
    3fc9:	0d 00 00 00 80       	or     $0x80000000,%eax
    3fce:	89 c2                	mov    %eax,%edx
    3fd0:	0f b6 45 e0          	movzbl -0x20(%rbp),%eax
    3fd4:	c1 e0 0b             	shl    $0xb,%eax
    3fd7:	09 c2                	or     %eax,%edx
    3fd9:	0f b6 45 dc          	movzbl -0x24(%rbp),%eax
    3fdd:	c1 e0 08             	shl    $0x8,%eax
    3fe0:	09 c2                	or     %eax,%edx
    3fe2:	0f b6 45 d8          	movzbl -0x28(%rbp),%eax
    3fe6:	25 fc 00 00 00       	and    $0xfc,%eax
    3feb:	09 d0                	or     %edx,%eax
    3fed:	89 45 fc             	mov    %eax,-0x4(%rbp)
    3ff0:	8b 45 fc             	mov    -0x4(%rbp),%eax
    3ff3:	89 c6                	mov    %eax,%esi
    3ff5:	bf f8 0c 00 00       	mov    $0xcf8,%edi
    3ffa:	e8 93 e7 ff ff       	call   2792 <_Z4outltj>
    3fff:	bf fc 0c 00 00       	mov    $0xcfc,%edi
    4004:	e8 a5 e7 ff ff       	call   27ae <_Z3inlt>
    4009:	89 45 f8             	mov    %eax,-0x8(%rbp)
    400c:	0f b6 45 d8          	movzbl -0x28(%rbp),%eax
    4010:	83 e0 02             	and    $0x2,%eax
    4013:	c1 e0 03             	shl    $0x3,%eax
    4016:	ba ff ff 00 00       	mov    $0xffff,%edx
    401b:	89 c1                	mov    %eax,%ecx
    401d:	d3 e2                	shl    %cl,%edx
    401f:	89 d0                	mov    %edx,%eax
    4021:	89 45 f4             	mov    %eax,-0xc(%rbp)
    4024:	8b 45 f4             	mov    -0xc(%rbp),%eax
    4027:	f7 d0                	not    %eax
    4029:	23 45 f8             	and    -0x8(%rbp),%eax
    402c:	0f b7 75 d4          	movzwl -0x2c(%rbp),%esi
    4030:	0f b6 55 d8          	movzbl -0x28(%rbp),%edx
    4034:	83 e2 02             	and    $0x2,%edx
    4037:	c1 e2 03             	shl    $0x3,%edx
    403a:	89 d1                	mov    %edx,%ecx
    403c:	d3 e6                	shl    %cl,%esi
    403e:	89 f2                	mov    %esi,%edx
    4040:	09 d0                	or     %edx,%eax
    4042:	89 45 f8             	mov    %eax,-0x8(%rbp)
    4045:	8b 45 f8             	mov    -0x8(%rbp),%eax
    4048:	89 c6                	mov    %eax,%esi
    404a:	bf fc 0c 00 00       	mov    $0xcfc,%edi
    404f:	e8 3e e7 ff ff       	call   2792 <_Z4outltj>
    4054:	90                   	nop
    4055:	c9                   	leave
    4056:	c3                   	ret
    4057:	90                   	nop

0000000000004058 <_ZN3PCI16ConfigWriteDWordEhhhhj>:
    4058:	f3 0f 1e fa          	endbr64
    405c:	55                   	push   %rbp
    405d:	48 89 e5             	mov    %rsp,%rbp
    4060:	48 83 ec 30          	sub    $0x30,%rsp
    4064:	48 89 7d e8          	mov    %rdi,-0x18(%rbp)
    4068:	89 c8                	mov    %ecx,%eax
    406a:	44 89 c7             	mov    %r8d,%edi
    406d:	44 89 4d d4          	mov    %r9d,-0x2c(%rbp)
    4071:	89 f1                	mov    %esi,%ecx
    4073:	88 4d e4             	mov    %cl,-0x1c(%rbp)
    4076:	88 55 e0             	mov    %dl,-0x20(%rbp)
    4079:	88 45 dc             	mov    %al,-0x24(%rbp)
    407c:	89 f8                	mov    %edi,%eax
    407e:	88 45 d8             	mov    %al,-0x28(%rbp)
    4081:	0f b6 45 e4          	movzbl -0x1c(%rbp),%eax
    4085:	c1 e0 10             	shl    $0x10,%eax
    4088:	89 c2                	mov    %eax,%edx
    408a:	0f b6 45 e0          	movzbl -0x20(%rbp),%eax
    408e:	c1 e0 0b             	shl    $0xb,%eax
    4091:	09 c2                	or     %eax,%edx
    4093:	0f b6 45 dc          	movzbl -0x24(%rbp),%eax
    4097:	c1 e0 08             	shl    $0x8,%eax
    409a:	09 c2                	or     %eax,%edx
    409c:	0f b6 45 d8          	movzbl -0x28(%rbp),%eax
    40a0:	25 fc 00 00 00       	and    $0xfc,%eax
    40a5:	09 d0                	or     %edx,%eax
    40a7:	0d 00 00 00 80       	or     $0x80000000,%eax
    40ac:	89 45 fc             	mov    %eax,-0x4(%rbp)
    40af:	8b 45 fc             	mov    -0x4(%rbp),%eax
    40b2:	89 c6                	mov    %eax,%esi
    40b4:	bf f8 0c 00 00       	mov    $0xcf8,%edi
    40b9:	e8 d4 e6 ff ff       	call   2792 <_Z4outltj>
    40be:	8b 45 d4             	mov    -0x2c(%rbp),%eax
    40c1:	89 c6                	mov    %eax,%esi
    40c3:	bf fc 0c 00 00       	mov    $0xcfc,%edi
    40c8:	e8 c5 e6 ff ff       	call   2792 <_Z4outltj>
    40cd:	90                   	nop
    40ce:	c9                   	leave
    40cf:	c3                   	ret

00000000000040d0 <_ZN3PCI14ConfigReadByteEhhhh>:
    40d0:	f3 0f 1e fa          	endbr64
    40d4:	55                   	push   %rbp
    40d5:	48 89 e5             	mov    %rsp,%rbp
    40d8:	48 83 ec 30          	sub    $0x30,%rsp
    40dc:	48 89 7d e8          	mov    %rdi,-0x18(%rbp)
    40e0:	89 c8                	mov    %ecx,%eax
    40e2:	44 89 c7             	mov    %r8d,%edi
    40e5:	89 f1                	mov    %esi,%ecx
    40e7:	88 4d e4             	mov    %cl,-0x1c(%rbp)
    40ea:	88 55 e0             	mov    %dl,-0x20(%rbp)
    40ed:	88 45 dc             	mov    %al,-0x24(%rbp)
    40f0:	89 f8                	mov    %edi,%eax
    40f2:	88 45 d8             	mov    %al,-0x28(%rbp)
    40f5:	0f b6 45 d8          	movzbl -0x28(%rbp),%eax
    40f9:	83 e0 fc             	and    $0xfffffffc,%eax
    40fc:	89 45 fc             	mov    %eax,-0x4(%rbp)
    40ff:	8b 45 fc             	mov    -0x4(%rbp),%eax
    4102:	0f b6 f8             	movzbl %al,%edi
    4105:	0f b6 4d dc          	movzbl -0x24(%rbp),%ecx
    4109:	0f b6 55 e0          	movzbl -0x20(%rbp),%edx
    410d:	0f b6 75 e4          	movzbl -0x1c(%rbp),%esi
    4111:	48 8b 45 e8          	mov    -0x18(%rbp),%rax
    4115:	41 89 f8             	mov    %edi,%r8d
    4118:	48 89 c7             	mov    %rax,%rdi
    411b:	e8 20 00 00 00       	call   4140 <_ZN3PCI15ConfigReadDWordEhhhh>
    4120:	89 45 f8             	mov    %eax,-0x8(%rbp)
    4123:	0f b6 45 d8          	movzbl -0x28(%rbp),%eax
    4127:	83 e0 03             	and    $0x3,%eax
    412a:	c1 e0 03             	shl    $0x3,%eax
    412d:	88 45 f7             	mov    %al,-0x9(%rbp)
    4130:	0f b6 45 f7          	movzbl -0x9(%rbp),%eax
    4134:	8b 55 f8             	mov    -0x8(%rbp),%edx
    4137:	89 c1                	mov    %eax,%ecx
    4139:	d3 ea                	shr    %cl,%edx
    413b:	89 d0                	mov    %edx,%eax
    413d:	c9                   	leave
    413e:	c3                   	ret
    413f:	90                   	nop

0000000000004140 <_ZN3PCI15ConfigReadDWordEhhhh>:
    4140:	f3 0f 1e fa          	endbr64
    4144:	55                   	push   %rbp
    4145:	48 89 e5             	mov    %rsp,%rbp
    4148:	48 83 ec 30          	sub    $0x30,%rsp
    414c:	48 89 7d e8          	mov    %rdi,-0x18(%rbp)
    4150:	89 c8                	mov    %ecx,%eax
    4152:	44 89 c7             	mov    %r8d,%edi
    4155:	89 f1                	mov    %esi,%ecx
    4157:	88 4d e4             	mov    %cl,-0x1c(%rbp)
    415a:	88 55 e0             	mov    %dl,-0x20(%rbp)
    415d:	88 45 dc             	mov    %al,-0x24(%rbp)
    4160:	89 f8                	mov    %edi,%eax
    4162:	88 45 d8             	mov    %al,-0x28(%rbp)
    4165:	0f b6 45 e4          	movzbl -0x1c(%rbp),%eax
    4169:	c1 e0 10             	shl    $0x10,%eax
    416c:	0d 00 00 00 80       	or     $0x80000000,%eax
    4171:	89 c2                	mov    %eax,%edx
    4173:	0f b6 45 e0          	movzbl -0x20(%rbp),%eax
    4177:	c1 e0 0b             	shl    $0xb,%eax
    417a:	0f b7 c0             	movzwl %ax,%eax
    417d:	09 c2                	or     %eax,%edx
    417f:	0f b6 45 dc          	movzbl -0x24(%rbp),%eax
    4183:	c1 e0 08             	shl    $0x8,%eax
    4186:	25 00 07 00 00       	and    $0x700,%eax
    418b:	09 c2                	or     %eax,%edx
    418d:	0f b6 45 d8          	movzbl -0x28(%rbp),%eax
    4191:	25 fc 00 00 00       	and    $0xfc,%eax
    4196:	09 d0                	or     %edx,%eax
    4198:	89 45 fc             	mov    %eax,-0x4(%rbp)
    419b:	8b 45 fc             	mov    -0x4(%rbp),%eax
    419e:	89 c6                	mov    %eax,%esi
    41a0:	bf f8 0c 00 00       	mov    $0xcf8,%edi
    41a5:	e8 e8 e5 ff ff       	call   2792 <_Z4outltj>
    41aa:	bf fc 0c 00 00       	mov    $0xcfc,%edi
    41af:	e8 fa e5 ff ff       	call   27ae <_Z3inlt>
    41b4:	c9                   	leave
    41b5:	c3                   	ret

00000000000041b6 <_ZN3PCI9PCIExistsEv>:
    41b6:	f3 0f 1e fa          	endbr64
    41ba:	55                   	push   %rbp
    41bb:	48 89 e5             	mov    %rsp,%rbp
    41be:	48 83 ec 20          	sub    $0x20,%rsp
    41c2:	48 89 7d e8          	mov    %rdi,-0x18(%rbp)
    41c6:	c6 45 ff 00          	movb   $0x0,-0x1(%rbp)
    41ca:	eb 3c                	jmp    4208 <_ZN3PCI9PCIExistsEv+0x52>
    41cc:	0f b6 55 ff          	movzbl -0x1(%rbp),%edx
    41d0:	48 8b 45 e8          	mov    -0x18(%rbp),%rax
    41d4:	41 b8 00 00 00 00    	mov    $0x0,%r8d
    41da:	b9 00 00 00 00       	mov    $0x0,%ecx
    41df:	be 00 00 00 00       	mov    $0x0,%esi
    41e4:	48 89 c7             	mov    %rax,%rdi
    41e7:	e8 0e fd ff ff       	call   3efa <_ZN3PCI14ConfigReadWordEhhhh>
    41ec:	66 89 45 fc          	mov    %ax,-0x4(%rbp)
    41f0:	66 83 7d fc ff       	cmpw   $0xffff,-0x4(%rbp)
    41f5:	74 07                	je     41fe <_ZN3PCI9PCIExistsEv+0x48>
    41f7:	b8 01 00 00 00       	mov    $0x1,%eax
    41fc:	eb 15                	jmp    4213 <_ZN3PCI9PCIExistsEv+0x5d>
    41fe:	0f b6 45 ff          	movzbl -0x1(%rbp),%eax
    4202:	83 c0 01             	add    $0x1,%eax
    4205:	88 45 ff             	mov    %al,-0x1(%rbp)
    4208:	80 7d ff 1f          	cmpb   $0x1f,-0x1(%rbp)
    420c:	76 be                	jbe    41cc <_ZN3PCI9PCIExistsEv+0x16>
    420e:	b8 00 00 00 00       	mov    $0x0,%eax
    4213:	c9                   	leave
    4214:	c3                   	ret
    4215:	90                   	nop

0000000000004216 <_ZN3PCI14GetDeviceClassEhhh>:
    4216:	f3 0f 1e fa          	endbr64
    421a:	55                   	push   %rbp
    421b:	48 89 e5             	mov    %rsp,%rbp
    421e:	48 89 7d f8          	mov    %rdi,-0x8(%rbp)
    4222:	89 c8                	mov    %ecx,%eax
    4224:	89 f1                	mov    %esi,%ecx
    4226:	88 4d f4             	mov    %cl,-0xc(%rbp)
    4229:	88 55 f0             	mov    %dl,-0x10(%rbp)
    422c:	88 45 ec             	mov    %al,-0x14(%rbp)
    422f:	0f b6 45 f4          	movzbl -0xc(%rbp),%eax
    4233:	c1 e0 18             	shl    $0x18,%eax
    4236:	89 c2                	mov    %eax,%edx
    4238:	0f b6 45 f0          	movzbl -0x10(%rbp),%eax
    423c:	c1 e0 10             	shl    $0x10,%eax
    423f:	09 c2                	or     %eax,%edx
    4241:	0f b6 45 ec          	movzbl -0x14(%rbp),%eax
    4245:	c1 e0 08             	shl    $0x8,%eax
    4248:	09 d0                	or     %edx,%eax
    424a:	5d                   	pop    %rbp
    424b:	c3                   	ret

000000000000424c <_ZN3PCI12GetClassCodeEh>:
    424c:	f3 0f 1e fa          	endbr64
    4250:	55                   	push   %rbp
    4251:	48 89 e5             	mov    %rsp,%rbp
    4254:	48 89 7d f8          	mov    %rdi,-0x8(%rbp)
    4258:	89 f0                	mov    %esi,%eax
    425a:	88 45 f4             	mov    %al,-0xc(%rbp)
    425d:	0f b6 45 f4          	movzbl -0xc(%rbp),%eax
    4261:	83 f8 12             	cmp    $0x12,%eax
    4264:	0f 87 dd 00 00 00    	ja     4347 <_ZN3PCI12GetClassCodeEh+0xfb>
    426a:	89 c0                	mov    %eax,%eax
    426c:	48 8d 14 85 00 00 00 	lea    0x0(,%rax,4),%rdx
    4273:	00 
    4274:	48 8d 05 95 12 01 00 	lea    0x11295(%rip),%rax        # 15510 <_ZL4font+0x11b0>
    427b:	8b 04 02             	mov    (%rdx,%rax,1),%eax
    427e:	48 98                	cltq
    4280:	48 8d 15 89 12 01 00 	lea    0x11289(%rip),%rdx        # 15510 <_ZL4font+0x11b0>
    4287:	48 01 d0             	add    %rdx,%rax
    428a:	3e ff e0             	notrack jmp *%rax
    428d:	48 8d 05 cc 10 01 00 	lea    0x110cc(%rip),%rax        # 15360 <_ZL4font+0x1000>
    4294:	e9 b5 00 00 00       	jmp    434e <_ZN3PCI12GetClassCodeEh+0x102>
    4299:	48 8d 05 cd 10 01 00 	lea    0x110cd(%rip),%rax        # 1536d <_ZL4font+0x100d>
    42a0:	e9 a9 00 00 00       	jmp    434e <_ZN3PCI12GetClassCodeEh+0x102>
    42a5:	48 8d 05 d9 10 01 00 	lea    0x110d9(%rip),%rax        # 15385 <_ZL4font+0x1025>
    42ac:	e9 9d 00 00 00       	jmp    434e <_ZN3PCI12GetClassCodeEh+0x102>
    42b1:	48 8d 05 e0 10 01 00 	lea    0x110e0(%rip),%rax        # 15398 <_ZL4font+0x1038>
    42b8:	e9 91 00 00 00       	jmp    434e <_ZN3PCI12GetClassCodeEh+0x102>
    42bd:	48 8d 05 e7 10 01 00 	lea    0x110e7(%rip),%rax        # 153ab <_ZL4font+0x104b>
    42c4:	e9 85 00 00 00       	jmp    434e <_ZN3PCI12GetClassCodeEh+0x102>
    42c9:	48 8d 05 f1 10 01 00 	lea    0x110f1(%rip),%rax        # 153c1 <_ZL4font+0x1061>
    42d0:	eb 7c                	jmp    434e <_ZN3PCI12GetClassCodeEh+0x102>
    42d2:	48 8d 05 fa 10 01 00 	lea    0x110fa(%rip),%rax        # 153d3 <_ZL4font+0x1073>
    42d9:	eb 73                	jmp    434e <_ZN3PCI12GetClassCodeEh+0x102>
    42db:	48 8d 05 fe 10 01 00 	lea    0x110fe(%rip),%rax        # 153e0 <_ZL4font+0x1080>
    42e2:	eb 6a                	jmp    434e <_ZN3PCI12GetClassCodeEh+0x102>
    42e4:	48 8d 05 15 11 01 00 	lea    0x11115(%rip),%rax        # 15400 <_ZL4font+0x10a0>
    42eb:	eb 61                	jmp    434e <_ZN3PCI12GetClassCodeEh+0x102>
    42ed:	48 8d 05 23 11 01 00 	lea    0x11123(%rip),%rax        # 15417 <_ZL4font+0x10b7>
    42f4:	eb 58                	jmp    434e <_ZN3PCI12GetClassCodeEh+0x102>
    42f6:	48 8d 05 32 11 01 00 	lea    0x11132(%rip),%rax        # 1542f <_ZL4font+0x10cf>
    42fd:	eb 4f                	jmp    434e <_ZN3PCI12GetClassCodeEh+0x102>
    42ff:	48 8d 05 39 11 01 00 	lea    0x11139(%rip),%rax        # 1543f <_ZL4font+0x10df>
    4306:	eb 46                	jmp    434e <_ZN3PCI12GetClassCodeEh+0x102>
    4308:	48 8d 05 3a 11 01 00 	lea    0x1113a(%rip),%rax        # 15449 <_ZL4font+0x10e9>
    430f:	eb 3d                	jmp    434e <_ZN3PCI12GetClassCodeEh+0x102>
    4311:	48 8d 05 47 11 01 00 	lea    0x11147(%rip),%rax        # 1545f <_ZL4font+0x10ff>
    4318:	eb 34                	jmp    434e <_ZN3PCI12GetClassCodeEh+0x102>
    431a:	48 8d 05 52 11 01 00 	lea    0x11152(%rip),%rax        # 15473 <_ZL4font+0x1113>
    4321:	eb 2b                	jmp    434e <_ZN3PCI12GetClassCodeEh+0x102>
    4323:	48 8d 05 66 11 01 00 	lea    0x11166(%rip),%rax        # 15490 <_ZL4font+0x1130>
    432a:	eb 22                	jmp    434e <_ZN3PCI12GetClassCodeEh+0x102>
    432c:	48 8d 05 80 11 01 00 	lea    0x11180(%rip),%rax        # 154b3 <_ZL4font+0x1153>
    4333:	eb 19                	jmp    434e <_ZN3PCI12GetClassCodeEh+0x102>
    4335:	48 8d 05 8d 11 01 00 	lea    0x1118d(%rip),%rax        # 154c9 <_ZL4font+0x1169>
    433c:	eb 10                	jmp    434e <_ZN3PCI12GetClassCodeEh+0x102>
    433e:	48 8d 05 a1 11 01 00 	lea    0x111a1(%rip),%rax        # 154e6 <_ZL4font+0x1186>
    4345:	eb 07                	jmp    434e <_ZN3PCI12GetClassCodeEh+0x102>
    4347:	48 8d 05 af 11 01 00 	lea    0x111af(%rip),%rax        # 154fd <_ZL4font+0x119d>
    434e:	5d                   	pop    %rbp
    434f:	c3                   	ret

0000000000004350 <_ZN3PCI13GetDeviceCodeEhhh>:
    4350:	f3 0f 1e fa          	endbr64
    4354:	55                   	push   %rbp
    4355:	48 89 e5             	mov    %rsp,%rbp
    4358:	48 89 7d f8          	mov    %rdi,-0x8(%rbp)
    435c:	89 c8                	mov    %ecx,%eax
    435e:	89 f1                	mov    %esi,%ecx
    4360:	88 4d f4             	mov    %cl,-0xc(%rbp)
    4363:	88 55 f0             	mov    %dl,-0x10(%rbp)
    4366:	88 45 ec             	mov    %al,-0x14(%rbp)
    4369:	0f b6 45 f4          	movzbl -0xc(%rbp),%eax
    436d:	83 f8 41             	cmp    $0x41,%eax
    4370:	7f 34                	jg     43a6 <_ZN3PCI13GetDeviceCodeEhhh+0x56>
    4372:	85 c0                	test   %eax,%eax
    4374:	0f 88 c4 0f 00 00    	js     533e <_ZN3PCI13GetDeviceCodeEhhh+0xfee>
    437a:	83 f8 41             	cmp    $0x41,%eax
    437d:	0f 87 bb 0f 00 00    	ja     533e <_ZN3PCI13GetDeviceCodeEhhh+0xfee>
    4383:	89 c0                	mov    %eax,%eax
    4385:	48 8d 14 85 00 00 00 	lea    0x0(,%rax,4),%rdx
    438c:	00 
    438d:	48 8d 05 9c 31 01 00 	lea    0x1319c(%rip),%rax        # 17530 <_ZL4font+0x31d0>
    4394:	8b 04 02             	mov    (%rdx,%rax,1),%eax
    4397:	48 98                	cltq
    4399:	48 8d 15 90 31 01 00 	lea    0x13190(%rip),%rdx        # 17530 <_ZL4font+0x31d0>
    43a0:	48 01 d0             	add    %rdx,%rax
    43a3:	3e ff e0             	notrack jmp *%rax
    43a6:	3d ff 00 00 00       	cmp    $0xff,%eax
    43ab:	0f 84 84 0f 00 00    	je     5335 <_ZN3PCI13GetDeviceCodeEhhh+0xfe5>
    43b1:	e9 88 0f 00 00       	jmp    533e <_ZN3PCI13GetDeviceCodeEhhh+0xfee>
    43b6:	0f b6 45 f0          	movzbl -0x10(%rbp),%eax
    43ba:	85 c0                	test   %eax,%eax
    43bc:	74 07                	je     43c5 <_ZN3PCI13GetDeviceCodeEhhh+0x75>
    43be:	83 f8 01             	cmp    $0x1,%eax
    43c1:	74 0e                	je     43d1 <_ZN3PCI13GetDeviceCodeEhhh+0x81>
    43c3:	eb 18                	jmp    43dd <_ZN3PCI13GetDeviceCodeEhhh+0x8d>
    43c5:	48 8d 05 94 11 01 00 	lea    0x11194(%rip),%rax        # 15560 <_ZL4font+0x1200>
    43cc:	e9 74 0f 00 00       	jmp    5345 <_ZN3PCI13GetDeviceCodeEhhh+0xff5>
    43d1:	48 8d 05 a9 11 01 00 	lea    0x111a9(%rip),%rax        # 15581 <_ZL4font+0x1221>
    43d8:	e9 68 0f 00 00       	jmp    5345 <_ZN3PCI13GetDeviceCodeEhhh+0xff5>
    43dd:	48 8d 05 ba 11 01 00 	lea    0x111ba(%rip),%rax        # 1559e <_ZL4font+0x123e>
    43e4:	e9 5c 0f 00 00       	jmp    5345 <_ZN3PCI13GetDeviceCodeEhhh+0xff5>
    43e9:	0f b6 45 f0          	movzbl -0x10(%rbp),%eax
    43ed:	83 f8 08             	cmp    $0x8,%eax
    43f0:	7f 34                	jg     4426 <_ZN3PCI13GetDeviceCodeEhhh+0xd6>
    43f2:	85 c0                	test   %eax,%eax
    43f4:	0f 88 37 02 00 00    	js     4631 <_ZN3PCI13GetDeviceCodeEhhh+0x2e1>
    43fa:	83 f8 08             	cmp    $0x8,%eax
    43fd:	0f 87 2e 02 00 00    	ja     4631 <_ZN3PCI13GetDeviceCodeEhhh+0x2e1>
    4403:	89 c0                	mov    %eax,%eax
    4405:	48 8d 14 85 00 00 00 	lea    0x0(,%rax,4),%rdx
    440c:	00 
    440d:	48 8d 05 24 32 01 00 	lea    0x13224(%rip),%rax        # 17638 <_ZL4font+0x32d8>
    4414:	8b 04 02             	mov    (%rdx,%rax,1),%eax
    4417:	48 98                	cltq
    4419:	48 8d 15 18 32 01 00 	lea    0x13218(%rip),%rdx        # 17638 <_ZL4font+0x32d8>
    4420:	48 01 d0             	add    %rdx,%rax
    4423:	3e ff e0             	notrack jmp *%rax
    4426:	3d 80 00 00 00       	cmp    $0x80,%eax
    442b:	0f 84 f4 01 00 00    	je     4625 <_ZN3PCI13GetDeviceCodeEhhh+0x2d5>
    4431:	e9 fb 01 00 00       	jmp    4631 <_ZN3PCI13GetDeviceCodeEhhh+0x2e1>
    4436:	48 8d 05 77 11 01 00 	lea    0x11177(%rip),%rax        # 155b4 <_ZL4font+0x1254>
    443d:	e9 03 0f 00 00       	jmp    5345 <_ZN3PCI13GetDeviceCodeEhhh+0xff5>
    4442:	0f b6 45 ec          	movzbl -0x14(%rbp),%eax
    4446:	3d 8f 00 00 00       	cmp    $0x8f,%eax
    444b:	0f 84 b4 00 00 00    	je     4505 <_ZN3PCI13GetDeviceCodeEhhh+0x1b5>
    4451:	3d 8f 00 00 00       	cmp    $0x8f,%eax
    4456:	0f 8f b5 00 00 00    	jg     4511 <_ZN3PCI13GetDeviceCodeEhhh+0x1c1>
    445c:	3d 8a 00 00 00       	cmp    $0x8a,%eax
    4461:	0f 84 92 00 00 00    	je     44f9 <_ZN3PCI13GetDeviceCodeEhhh+0x1a9>
    4467:	3d 8a 00 00 00       	cmp    $0x8a,%eax
    446c:	0f 8f 9f 00 00 00    	jg     4511 <_ZN3PCI13GetDeviceCodeEhhh+0x1c1>
    4472:	3d 85 00 00 00       	cmp    $0x85,%eax
    4477:	74 74                	je     44ed <_ZN3PCI13GetDeviceCodeEhhh+0x19d>
    4479:	3d 85 00 00 00       	cmp    $0x85,%eax
    447e:	0f 8f 8d 00 00 00    	jg     4511 <_ZN3PCI13GetDeviceCodeEhhh+0x1c1>
    4484:	3d 80 00 00 00       	cmp    $0x80,%eax
    4489:	74 56                	je     44e1 <_ZN3PCI13GetDeviceCodeEhhh+0x191>
    448b:	3d 80 00 00 00       	cmp    $0x80,%eax
    4490:	7f 7f                	jg     4511 <_ZN3PCI13GetDeviceCodeEhhh+0x1c1>
    4492:	83 f8 0f             	cmp    $0xf,%eax
    4495:	74 3e                	je     44d5 <_ZN3PCI13GetDeviceCodeEhhh+0x185>
    4497:	83 f8 0f             	cmp    $0xf,%eax
    449a:	7f 75                	jg     4511 <_ZN3PCI13GetDeviceCodeEhhh+0x1c1>
    449c:	83 f8 0a             	cmp    $0xa,%eax
    449f:	74 28                	je     44c9 <_ZN3PCI13GetDeviceCodeEhhh+0x179>
    44a1:	83 f8 0a             	cmp    $0xa,%eax
    44a4:	7f 6b                	jg     4511 <_ZN3PCI13GetDeviceCodeEhhh+0x1c1>
    44a6:	85 c0                	test   %eax,%eax
    44a8:	74 07                	je     44b1 <_ZN3PCI13GetDeviceCodeEhhh+0x161>
    44aa:	83 f8 05             	cmp    $0x5,%eax
    44ad:	74 0e                	je     44bd <_ZN3PCI13GetDeviceCodeEhhh+0x16d>
    44af:	eb 60                	jmp    4511 <_ZN3PCI13GetDeviceCodeEhhh+0x1c1>
    44b1:	48 8d 05 20 11 01 00 	lea    0x11120(%rip),%rax        # 155d8 <_ZL4font+0x1278>
    44b8:	e9 88 0e 00 00       	jmp    5345 <_ZN3PCI13GetDeviceCodeEhhh+0xff5>
    44bd:	48 8d 05 54 11 01 00 	lea    0x11154(%rip),%rax        # 15618 <_ZL4font+0x12b8>
    44c4:	e9 7c 0e 00 00       	jmp    5345 <_ZN3PCI13GetDeviceCodeEhhh+0xff5>
    44c9:	48 8d 05 80 11 01 00 	lea    0x11180(%rip),%rax        # 15650 <_ZL4font+0x12f0>
    44d0:	e9 70 0e 00 00       	jmp    5345 <_ZN3PCI13GetDeviceCodeEhhh+0xff5>
    44d5:	48 8d 05 ac 11 01 00 	lea    0x111ac(%rip),%rax        # 15688 <_ZL4font+0x1328>
    44dc:	e9 64 0e 00 00       	jmp    5345 <_ZN3PCI13GetDeviceCodeEhhh+0xff5>
    44e1:	48 8d 05 d0 11 01 00 	lea    0x111d0(%rip),%rax        # 156b8 <_ZL4font+0x1358>
    44e8:	e9 58 0e 00 00       	jmp    5345 <_ZN3PCI13GetDeviceCodeEhhh+0xff5>
    44ed:	48 8d 05 14 12 01 00 	lea    0x11214(%rip),%rax        # 15708 <_ZL4font+0x13a8>
    44f4:	e9 4c 0e 00 00       	jmp    5345 <_ZN3PCI13GetDeviceCodeEhhh+0xff5>
    44f9:	48 8d 05 50 12 01 00 	lea    0x11250(%rip),%rax        # 15750 <_ZL4font+0x13f0>
    4500:	e9 40 0e 00 00       	jmp    5345 <_ZN3PCI13GetDeviceCodeEhhh+0xff5>
    4505:	48 8d 05 8c 12 01 00 	lea    0x1128c(%rip),%rax        # 15798 <_ZL4font+0x1438>
    450c:	e9 34 0e 00 00       	jmp    5345 <_ZN3PCI13GetDeviceCodeEhhh+0xff5>
    4511:	48 8d 05 c0 12 01 00 	lea    0x112c0(%rip),%rax        # 157d8 <_ZL4font+0x1478>
    4518:	e9 28 0e 00 00       	jmp    5345 <_ZN3PCI13GetDeviceCodeEhhh+0xff5>
    451d:	48 8d 05 dc 12 01 00 	lea    0x112dc(%rip),%rax        # 15800 <_ZL4font+0x14a0>
    4524:	e9 1c 0e 00 00       	jmp    5345 <_ZN3PCI13GetDeviceCodeEhhh+0xff5>
    4529:	48 8d 05 f5 12 01 00 	lea    0x112f5(%rip),%rax        # 15825 <_ZL4font+0x14c5>
    4530:	e9 10 0e 00 00       	jmp    5345 <_ZN3PCI13GetDeviceCodeEhhh+0xff5>
    4535:	48 8d 05 06 13 01 00 	lea    0x11306(%rip),%rax        # 15842 <_ZL4font+0x14e2>
    453c:	e9 04 0e 00 00       	jmp    5345 <_ZN3PCI13GetDeviceCodeEhhh+0xff5>
    4541:	0f b6 45 ec          	movzbl -0x14(%rbp),%eax
    4545:	83 f8 20             	cmp    $0x20,%eax
    4548:	74 07                	je     4551 <_ZN3PCI13GetDeviceCodeEhhh+0x201>
    454a:	83 f8 30             	cmp    $0x30,%eax
    454d:	74 0e                	je     455d <_ZN3PCI13GetDeviceCodeEhhh+0x20d>
    454f:	eb 18                	jmp    4569 <_ZN3PCI13GetDeviceCodeEhhh+0x219>
    4551:	48 8d 05 08 13 01 00 	lea    0x11308(%rip),%rax        # 15860 <_ZL4font+0x1500>
    4558:	e9 e8 0d 00 00       	jmp    5345 <_ZN3PCI13GetDeviceCodeEhhh+0xff5>
    455d:	48 8d 05 2c 13 01 00 	lea    0x1132c(%rip),%rax        # 15890 <_ZL4font+0x1530>
    4564:	e9 dc 0d 00 00       	jmp    5345 <_ZN3PCI13GetDeviceCodeEhhh+0xff5>
    4569:	48 8d 05 50 13 01 00 	lea    0x11350(%rip),%rax        # 158c0 <_ZL4font+0x1560>
    4570:	e9 d0 0d 00 00       	jmp    5345 <_ZN3PCI13GetDeviceCodeEhhh+0xff5>
    4575:	0f b6 45 ec          	movzbl -0x14(%rbp),%eax
    4579:	83 f8 02             	cmp    $0x2,%eax
    457c:	74 28                	je     45a6 <_ZN3PCI13GetDeviceCodeEhhh+0x256>
    457e:	83 f8 02             	cmp    $0x2,%eax
    4581:	7f 2f                	jg     45b2 <_ZN3PCI13GetDeviceCodeEhhh+0x262>
    4583:	85 c0                	test   %eax,%eax
    4585:	74 07                	je     458e <_ZN3PCI13GetDeviceCodeEhhh+0x23e>
    4587:	83 f8 01             	cmp    $0x1,%eax
    458a:	74 0e                	je     459a <_ZN3PCI13GetDeviceCodeEhhh+0x24a>
    458c:	eb 24                	jmp    45b2 <_ZN3PCI13GetDeviceCodeEhhh+0x262>
    458e:	48 8d 05 53 13 01 00 	lea    0x11353(%rip),%rax        # 158e8 <_ZL4font+0x1588>
    4595:	e9 ab 0d 00 00       	jmp    5345 <_ZN3PCI13GetDeviceCodeEhhh+0xff5>
    459a:	48 8d 05 87 13 01 00 	lea    0x11387(%rip),%rax        # 15928 <_ZL4font+0x15c8>
    45a1:	e9 9f 0d 00 00       	jmp    5345 <_ZN3PCI13GetDeviceCodeEhhh+0xff5>
    45a6:	48 8d 05 ab 13 01 00 	lea    0x113ab(%rip),%rax        # 15958 <_ZL4font+0x15f8>
    45ad:	e9 93 0d 00 00       	jmp    5345 <_ZN3PCI13GetDeviceCodeEhhh+0xff5>
    45b2:	48 8d 05 d7 13 01 00 	lea    0x113d7(%rip),%rax        # 15990 <_ZL4font+0x1630>
    45b9:	e9 87 0d 00 00       	jmp    5345 <_ZN3PCI13GetDeviceCodeEhhh+0xff5>
    45be:	0f b6 45 ec          	movzbl -0x14(%rbp),%eax
    45c2:	85 c0                	test   %eax,%eax
    45c4:	74 07                	je     45cd <_ZN3PCI13GetDeviceCodeEhhh+0x27d>
    45c6:	83 f8 01             	cmp    $0x1,%eax
    45c9:	74 0e                	je     45d9 <_ZN3PCI13GetDeviceCodeEhhh+0x289>
    45cb:	eb 18                	jmp    45e5 <_ZN3PCI13GetDeviceCodeEhhh+0x295>
    45cd:	48 8d 05 ec 13 01 00 	lea    0x113ec(%rip),%rax        # 159c0 <_ZL4font+0x1660>
    45d4:	e9 6c 0d 00 00       	jmp    5345 <_ZN3PCI13GetDeviceCodeEhhh+0xff5>
    45d9:	48 8d 05 10 14 01 00 	lea    0x11410(%rip),%rax        # 159f0 <_ZL4font+0x1690>
    45e0:	e9 60 0d 00 00       	jmp    5345 <_ZN3PCI13GetDeviceCodeEhhh+0xff5>
    45e5:	48 8d 05 4c 14 01 00 	lea    0x1144c(%rip),%rax        # 15a38 <_ZL4font+0x16d8>
    45ec:	e9 54 0d 00 00       	jmp    5345 <_ZN3PCI13GetDeviceCodeEhhh+0xff5>
    45f1:	0f b6 45 ec          	movzbl -0x14(%rbp),%eax
    45f5:	83 f8 01             	cmp    $0x1,%eax
    45f8:	74 07                	je     4601 <_ZN3PCI13GetDeviceCodeEhhh+0x2b1>
    45fa:	83 f8 02             	cmp    $0x2,%eax
    45fd:	74 0e                	je     460d <_ZN3PCI13GetDeviceCodeEhhh+0x2bd>
    45ff:	eb 18                	jmp    4619 <_ZN3PCI13GetDeviceCodeEhhh+0x2c9>
    4601:	48 8d 05 68 14 01 00 	lea    0x11468(%rip),%rax        # 15a70 <_ZL4font+0x1710>
    4608:	e9 38 0d 00 00       	jmp    5345 <_ZN3PCI13GetDeviceCodeEhhh+0xff5>
    460d:	48 8d 05 94 14 01 00 	lea    0x11494(%rip),%rax        # 15aa8 <_ZL4font+0x1748>
    4614:	e9 2c 0d 00 00       	jmp    5345 <_ZN3PCI13GetDeviceCodeEhhh+0xff5>
    4619:	48 8d 05 c8 14 01 00 	lea    0x114c8(%rip),%rax        # 15ae8 <_ZL4font+0x1788>
    4620:	e9 20 0d 00 00       	jmp    5345 <_ZN3PCI13GetDeviceCodeEhhh+0xff5>
    4625:	48 8d 05 f4 14 01 00 	lea    0x114f4(%rip),%rax        # 15b20 <_ZL4font+0x17c0>
    462c:	e9 14 0d 00 00       	jmp    5345 <_ZN3PCI13GetDeviceCodeEhhh+0xff5>
    4631:	48 8d 05 08 15 01 00 	lea    0x11508(%rip),%rax        # 15b40 <_ZL4font+0x17e0>
    4638:	e9 08 0d 00 00       	jmp    5345 <_ZN3PCI13GetDeviceCodeEhhh+0xff5>
    463d:	0f b6 45 f0          	movzbl -0x10(%rbp),%eax
    4641:	83 f8 08             	cmp    $0x8,%eax
    4644:	7f 34                	jg     467a <_ZN3PCI13GetDeviceCodeEhhh+0x32a>
    4646:	85 c0                	test   %eax,%eax
    4648:	0f 88 ad 00 00 00    	js     46fb <_ZN3PCI13GetDeviceCodeEhhh+0x3ab>
    464e:	83 f8 08             	cmp    $0x8,%eax
    4651:	0f 87 a4 00 00 00    	ja     46fb <_ZN3PCI13GetDeviceCodeEhhh+0x3ab>
    4657:	89 c0                	mov    %eax,%eax
    4659:	48 8d 14 85 00 00 00 	lea    0x0(,%rax,4),%rdx
    4660:	00 
    4661:	48 8d 05 f4 2f 01 00 	lea    0x12ff4(%rip),%rax        # 1765c <_ZL4font+0x32fc>
    4668:	8b 04 02             	mov    (%rdx,%rax,1),%eax
    466b:	48 98                	cltq
    466d:	48 8d 15 e8 2f 01 00 	lea    0x12fe8(%rip),%rdx        # 1765c <_ZL4font+0x32fc>
    4674:	48 01 d0             	add    %rdx,%rax
    4677:	3e ff e0             	notrack jmp *%rax
    467a:	3d 80 00 00 00       	cmp    $0x80,%eax
    467f:	74 6e                	je     46ef <_ZN3PCI13GetDeviceCodeEhhh+0x39f>
    4681:	eb 78                	jmp    46fb <_ZN3PCI13GetDeviceCodeEhhh+0x3ab>
    4683:	48 8d 05 d7 14 01 00 	lea    0x114d7(%rip),%rax        # 15b61 <_ZL4font+0x1801>
    468a:	e9 b6 0c 00 00       	jmp    5345 <_ZN3PCI13GetDeviceCodeEhhh+0xff5>
    468f:	48 8d 05 ea 14 01 00 	lea    0x114ea(%rip),%rax        # 15b80 <_ZL4font+0x1820>
    4696:	e9 aa 0c 00 00       	jmp    5345 <_ZN3PCI13GetDeviceCodeEhhh+0xff5>
    469b:	48 8d 05 fd 14 01 00 	lea    0x114fd(%rip),%rax        # 15b9f <_ZL4font+0x183f>
    46a2:	e9 9e 0c 00 00       	jmp    5345 <_ZN3PCI13GetDeviceCodeEhhh+0xff5>
    46a7:	48 8d 05 0a 15 01 00 	lea    0x1150a(%rip),%rax        # 15bb8 <_ZL4font+0x1858>
    46ae:	e9 92 0c 00 00       	jmp    5345 <_ZN3PCI13GetDeviceCodeEhhh+0xff5>
    46b3:	48 8d 05 16 15 01 00 	lea    0x11516(%rip),%rax        # 15bd0 <_ZL4font+0x1870>
    46ba:	e9 86 0c 00 00       	jmp    5345 <_ZN3PCI13GetDeviceCodeEhhh+0xff5>
    46bf:	48 8d 05 23 15 01 00 	lea    0x11523(%rip),%rax        # 15be9 <_ZL4font+0x1889>
    46c6:	e9 7a 0c 00 00       	jmp    5345 <_ZN3PCI13GetDeviceCodeEhhh+0xff5>
    46cb:	48 8d 05 34 15 01 00 	lea    0x11534(%rip),%rax        # 15c06 <_ZL4font+0x18a6>
    46d2:	e9 6e 0c 00 00       	jmp    5345 <_ZN3PCI13GetDeviceCodeEhhh+0xff5>
    46d7:	48 8d 05 42 15 01 00 	lea    0x11542(%rip),%rax        # 15c20 <_ZL4font+0x18c0>
    46de:	e9 62 0c 00 00       	jmp    5345 <_ZN3PCI13GetDeviceCodeEhhh+0xff5>
    46e3:	48 8d 05 55 15 01 00 	lea    0x11555(%rip),%rax        # 15c3f <_ZL4font+0x18df>
    46ea:	e9 56 0c 00 00       	jmp    5345 <_ZN3PCI13GetDeviceCodeEhhh+0xff5>
    46ef:	48 8d 05 64 15 01 00 	lea    0x11564(%rip),%rax        # 15c5a <_ZL4font+0x18fa>
    46f6:	e9 4a 0c 00 00       	jmp    5345 <_ZN3PCI13GetDeviceCodeEhhh+0xff5>
    46fb:	48 8d 05 72 15 01 00 	lea    0x11572(%rip),%rax        # 15c74 <_ZL4font+0x1914>
    4702:	e9 3e 0c 00 00       	jmp    5345 <_ZN3PCI13GetDeviceCodeEhhh+0xff5>
    4707:	0f b6 45 f0          	movzbl -0x10(%rbp),%eax
    470b:	3d 80 00 00 00       	cmp    $0x80,%eax
    4710:	74 67                	je     4779 <_ZN3PCI13GetDeviceCodeEhhh+0x429>
    4712:	3d 80 00 00 00       	cmp    $0x80,%eax
    4717:	7f 6c                	jg     4785 <_ZN3PCI13GetDeviceCodeEhhh+0x435>
    4719:	83 f8 02             	cmp    $0x2,%eax
    471c:	74 4f                	je     476d <_ZN3PCI13GetDeviceCodeEhhh+0x41d>
    471e:	83 f8 02             	cmp    $0x2,%eax
    4721:	7f 62                	jg     4785 <_ZN3PCI13GetDeviceCodeEhhh+0x435>
    4723:	85 c0                	test   %eax,%eax
    4725:	74 07                	je     472e <_ZN3PCI13GetDeviceCodeEhhh+0x3de>
    4727:	83 f8 01             	cmp    $0x1,%eax
    472a:	74 35                	je     4761 <_ZN3PCI13GetDeviceCodeEhhh+0x411>
    472c:	eb 57                	jmp    4785 <_ZN3PCI13GetDeviceCodeEhhh+0x435>
    472e:	0f b6 45 ec          	movzbl -0x14(%rbp),%eax
    4732:	85 c0                	test   %eax,%eax
    4734:	74 07                	je     473d <_ZN3PCI13GetDeviceCodeEhhh+0x3ed>
    4736:	83 f8 01             	cmp    $0x1,%eax
    4739:	74 0e                	je     4749 <_ZN3PCI13GetDeviceCodeEhhh+0x3f9>
    473b:	eb 18                	jmp    4755 <_ZN3PCI13GetDeviceCodeEhhh+0x405>
    473d:	48 8d 05 4c 15 01 00 	lea    0x1154c(%rip),%rax        # 15c90 <_ZL4font+0x1930>
    4744:	e9 fc 0b 00 00       	jmp    5345 <_ZN3PCI13GetDeviceCodeEhhh+0xff5>
    4749:	48 8d 05 58 15 01 00 	lea    0x11558(%rip),%rax        # 15ca8 <_ZL4font+0x1948>
    4750:	e9 f0 0b 00 00       	jmp    5345 <_ZN3PCI13GetDeviceCodeEhhh+0xff5>
    4755:	48 8d 05 74 15 01 00 	lea    0x11574(%rip),%rax        # 15cd0 <_ZL4font+0x1970>
    475c:	e9 e4 0b 00 00       	jmp    5345 <_ZN3PCI13GetDeviceCodeEhhh+0xff5>
    4761:	48 8d 05 89 15 01 00 	lea    0x11589(%rip),%rax        # 15cf1 <_ZL4font+0x1991>
    4768:	e9 d8 0b 00 00       	jmp    5345 <_ZN3PCI13GetDeviceCodeEhhh+0xff5>
    476d:	48 8d 05 95 15 01 00 	lea    0x11595(%rip),%rax        # 15d09 <_ZL4font+0x19a9>
    4774:	e9 cc 0b 00 00       	jmp    5345 <_ZN3PCI13GetDeviceCodeEhhh+0xff5>
    4779:	48 8d 05 a0 15 01 00 	lea    0x115a0(%rip),%rax        # 15d20 <_ZL4font+0x19c0>
    4780:	e9 c0 0b 00 00       	jmp    5345 <_ZN3PCI13GetDeviceCodeEhhh+0xff5>
    4785:	48 8d 05 ae 15 01 00 	lea    0x115ae(%rip),%rax        # 15d3a <_ZL4font+0x19da>
    478c:	e9 b4 0b 00 00       	jmp    5345 <_ZN3PCI13GetDeviceCodeEhhh+0xff5>
    4791:	0f b6 45 f0          	movzbl -0x10(%rbp),%eax
    4795:	3d 80 00 00 00       	cmp    $0x80,%eax
    479a:	74 56                	je     47f2 <_ZN3PCI13GetDeviceCodeEhhh+0x4a2>
    479c:	3d 80 00 00 00       	cmp    $0x80,%eax
    47a1:	7f 5b                	jg     47fe <_ZN3PCI13GetDeviceCodeEhhh+0x4ae>
    47a3:	83 f8 03             	cmp    $0x3,%eax
    47a6:	74 3e                	je     47e6 <_ZN3PCI13GetDeviceCodeEhhh+0x496>
    47a8:	83 f8 03             	cmp    $0x3,%eax
    47ab:	7f 51                	jg     47fe <_ZN3PCI13GetDeviceCodeEhhh+0x4ae>
    47ad:	83 f8 02             	cmp    $0x2,%eax
    47b0:	74 28                	je     47da <_ZN3PCI13GetDeviceCodeEhhh+0x48a>
    47b2:	83 f8 02             	cmp    $0x2,%eax
    47b5:	7f 47                	jg     47fe <_ZN3PCI13GetDeviceCodeEhhh+0x4ae>
    47b7:	85 c0                	test   %eax,%eax
    47b9:	74 07                	je     47c2 <_ZN3PCI13GetDeviceCodeEhhh+0x472>
    47bb:	83 f8 01             	cmp    $0x1,%eax
    47be:	74 0e                	je     47ce <_ZN3PCI13GetDeviceCodeEhhh+0x47e>
    47c0:	eb 3c                	jmp    47fe <_ZN3PCI13GetDeviceCodeEhhh+0x4ae>
    47c2:	48 8d 05 8d 15 01 00 	lea    0x1158d(%rip),%rax        # 15d56 <_ZL4font+0x19f6>
    47c9:	e9 77 0b 00 00       	jmp    5345 <_ZN3PCI13GetDeviceCodeEhhh+0xff5>
    47ce:	48 8d 05 9e 15 01 00 	lea    0x1159e(%rip),%rax        # 15d73 <_ZL4font+0x1a13>
    47d5:	e9 6b 0b 00 00       	jmp    5345 <_ZN3PCI13GetDeviceCodeEhhh+0xff5>
    47da:	48 8d 05 af 15 01 00 	lea    0x115af(%rip),%rax        # 15d90 <_ZL4font+0x1a30>
    47e1:	e9 5f 0b 00 00       	jmp    5345 <_ZN3PCI13GetDeviceCodeEhhh+0xff5>
    47e6:	48 8d 05 db 15 01 00 	lea    0x115db(%rip),%rax        # 15dc8 <_ZL4font+0x1a68>
    47ed:	e9 53 0b 00 00       	jmp    5345 <_ZN3PCI13GetDeviceCodeEhhh+0xff5>
    47f2:	48 8d 05 f3 15 01 00 	lea    0x115f3(%rip),%rax        # 15dec <_ZL4font+0x1a8c>
    47f9:	e9 47 0b 00 00       	jmp    5345 <_ZN3PCI13GetDeviceCodeEhhh+0xff5>
    47fe:	48 8d 05 0b 16 01 00 	lea    0x1160b(%rip),%rax        # 15e10 <_ZL4font+0x1ab0>
    4805:	e9 3b 0b 00 00       	jmp    5345 <_ZN3PCI13GetDeviceCodeEhhh+0xff5>
    480a:	0f b6 45 f0          	movzbl -0x10(%rbp),%eax
    480e:	3d 80 00 00 00       	cmp    $0x80,%eax
    4813:	74 2a                	je     483f <_ZN3PCI13GetDeviceCodeEhhh+0x4ef>
    4815:	3d 80 00 00 00       	cmp    $0x80,%eax
    481a:	7f 2f                	jg     484b <_ZN3PCI13GetDeviceCodeEhhh+0x4fb>
    481c:	85 c0                	test   %eax,%eax
    481e:	74 07                	je     4827 <_ZN3PCI13GetDeviceCodeEhhh+0x4d7>
    4820:	83 f8 01             	cmp    $0x1,%eax
    4823:	74 0e                	je     4833 <_ZN3PCI13GetDeviceCodeEhhh+0x4e3>
    4825:	eb 24                	jmp    484b <_ZN3PCI13GetDeviceCodeEhhh+0x4fb>
    4827:	48 8d 05 01 16 01 00 	lea    0x11601(%rip),%rax        # 15e2f <_ZL4font+0x1acf>
    482e:	e9 12 0b 00 00       	jmp    5345 <_ZN3PCI13GetDeviceCodeEhhh+0xff5>
    4833:	48 8d 05 0c 16 01 00 	lea    0x1160c(%rip),%rax        # 15e46 <_ZL4font+0x1ae6>
    483a:	e9 06 0b 00 00       	jmp    5345 <_ZN3PCI13GetDeviceCodeEhhh+0xff5>
    483f:	48 8d 05 19 16 01 00 	lea    0x11619(%rip),%rax        # 15e5f <_ZL4font+0x1aff>
    4846:	e9 fa 0a 00 00       	jmp    5345 <_ZN3PCI13GetDeviceCodeEhhh+0xff5>
    484b:	48 8d 05 26 16 01 00 	lea    0x11626(%rip),%rax        # 15e78 <_ZL4font+0x1b18>
    4852:	e9 ee 0a 00 00       	jmp    5345 <_ZN3PCI13GetDeviceCodeEhhh+0xff5>
    4857:	0f b6 45 f0          	movzbl -0x10(%rbp),%eax
    485b:	83 f8 0a             	cmp    $0xa,%eax
    485e:	7f 34                	jg     4894 <_ZN3PCI13GetDeviceCodeEhhh+0x544>
    4860:	85 c0                	test   %eax,%eax
    4862:	0f 88 44 01 00 00    	js     49ac <_ZN3PCI13GetDeviceCodeEhhh+0x65c>
    4868:	83 f8 0a             	cmp    $0xa,%eax
    486b:	0f 87 3b 01 00 00    	ja     49ac <_ZN3PCI13GetDeviceCodeEhhh+0x65c>
    4871:	89 c0                	mov    %eax,%eax
    4873:	48 8d 14 85 00 00 00 	lea    0x0(,%rax,4),%rdx
    487a:	00 
    487b:	48 8d 05 fe 2d 01 00 	lea    0x12dfe(%rip),%rax        # 17680 <_ZL4font+0x3320>
    4882:	8b 04 02             	mov    (%rdx,%rax,1),%eax
    4885:	48 98                	cltq
    4887:	48 8d 15 f2 2d 01 00 	lea    0x12df2(%rip),%rdx        # 17680 <_ZL4font+0x3320>
    488e:	48 01 d0             	add    %rdx,%rax
    4891:	3e ff e0             	notrack jmp *%rax
    4894:	3d 80 00 00 00       	cmp    $0x80,%eax
    4899:	0f 84 01 01 00 00    	je     49a0 <_ZN3PCI13GetDeviceCodeEhhh+0x650>
    489f:	e9 08 01 00 00       	jmp    49ac <_ZN3PCI13GetDeviceCodeEhhh+0x65c>
    48a4:	48 8d 05 e8 15 01 00 	lea    0x115e8(%rip),%rax        # 15e93 <_ZL4font+0x1b33>
    48ab:	e9 95 0a 00 00       	jmp    5345 <_ZN3PCI13GetDeviceCodeEhhh+0xff5>
    48b0:	48 8d 05 e9 15 01 00 	lea    0x115e9(%rip),%rax        # 15ea0 <_ZL4font+0x1b40>
    48b7:	e9 89 0a 00 00       	jmp    5345 <_ZN3PCI13GetDeviceCodeEhhh+0xff5>
    48bc:	48 8d 05 e9 15 01 00 	lea    0x115e9(%rip),%rax        # 15eac <_ZL4font+0x1b4c>
    48c3:	e9 7d 0a 00 00       	jmp    5345 <_ZN3PCI13GetDeviceCodeEhhh+0xff5>
    48c8:	48 8d 05 ea 15 01 00 	lea    0x115ea(%rip),%rax        # 15eb9 <_ZL4font+0x1b59>
    48cf:	e9 71 0a 00 00       	jmp    5345 <_ZN3PCI13GetDeviceCodeEhhh+0xff5>
    48d4:	0f b6 45 ec          	movzbl -0x14(%rbp),%eax
    48d8:	85 c0                	test   %eax,%eax
    48da:	74 07                	je     48e3 <_ZN3PCI13GetDeviceCodeEhhh+0x593>
    48dc:	83 f8 01             	cmp    $0x1,%eax
    48df:	74 0e                	je     48ef <_ZN3PCI13GetDeviceCodeEhhh+0x59f>
    48e1:	eb 18                	jmp    48fb <_ZN3PCI13GetDeviceCodeEhhh+0x5ab>
    48e3:	48 8d 05 de 15 01 00 	lea    0x115de(%rip),%rax        # 15ec8 <_ZL4font+0x1b68>
    48ea:	e9 56 0a 00 00       	jmp    5345 <_ZN3PCI13GetDeviceCodeEhhh+0xff5>
    48ef:	48 8d 05 fa 15 01 00 	lea    0x115fa(%rip),%rax        # 15ef0 <_ZL4font+0x1b90>
    48f6:	e9 4a 0a 00 00       	jmp    5345 <_ZN3PCI13GetDeviceCodeEhhh+0xff5>
    48fb:	48 8d 05 15 16 01 00 	lea    0x11615(%rip),%rax        # 15f17 <_ZL4font+0x1bb7>
    4902:	e9 3e 0a 00 00       	jmp    5345 <_ZN3PCI13GetDeviceCodeEhhh+0xff5>
    4907:	48 8d 05 25 16 01 00 	lea    0x11625(%rip),%rax        # 15f33 <_ZL4font+0x1bd3>
    490e:	e9 32 0a 00 00       	jmp    5345 <_ZN3PCI13GetDeviceCodeEhhh+0xff5>
    4913:	48 8d 05 28 16 01 00 	lea    0x11628(%rip),%rax        # 15f42 <_ZL4font+0x1be2>
    491a:	e9 26 0a 00 00       	jmp    5345 <_ZN3PCI13GetDeviceCodeEhhh+0xff5>
    491f:	48 8d 05 2a 16 01 00 	lea    0x1162a(%rip),%rax        # 15f50 <_ZL4font+0x1bf0>
    4926:	e9 1a 0a 00 00       	jmp    5345 <_ZN3PCI13GetDeviceCodeEhhh+0xff5>
    492b:	0f b6 45 ec          	movzbl -0x14(%rbp),%eax
    492f:	85 c0                	test   %eax,%eax
    4931:	74 07                	je     493a <_ZN3PCI13GetDeviceCodeEhhh+0x5ea>
    4933:	83 f8 01             	cmp    $0x1,%eax
    4936:	74 0e                	je     4946 <_ZN3PCI13GetDeviceCodeEhhh+0x5f6>
    4938:	eb 18                	jmp    4952 <_ZN3PCI13GetDeviceCodeEhhh+0x602>
    493a:	48 8d 05 1f 16 01 00 	lea    0x1161f(%rip),%rax        # 15f60 <_ZL4font+0x1c00>
    4941:	e9 ff 09 00 00       	jmp    5345 <_ZN3PCI13GetDeviceCodeEhhh+0xff5>
    4946:	48 8d 05 3b 16 01 00 	lea    0x1163b(%rip),%rax        # 15f88 <_ZL4font+0x1c28>
    494d:	e9 f3 09 00 00       	jmp    5345 <_ZN3PCI13GetDeviceCodeEhhh+0xff5>
    4952:	48 8d 05 4e 16 01 00 	lea    0x1164e(%rip),%rax        # 15fa7 <_ZL4font+0x1c47>
    4959:	e9 e7 09 00 00       	jmp    5345 <_ZN3PCI13GetDeviceCodeEhhh+0xff5>
    495e:	0f b6 45 ec          	movzbl -0x14(%rbp),%eax
    4962:	83 f8 40             	cmp    $0x40,%eax
    4965:	74 09                	je     4970 <_ZN3PCI13GetDeviceCodeEhhh+0x620>
    4967:	3d 80 00 00 00       	cmp    $0x80,%eax
    496c:	74 0e                	je     497c <_ZN3PCI13GetDeviceCodeEhhh+0x62c>
    496e:	eb 18                	jmp    4988 <_ZN3PCI13GetDeviceCodeEhhh+0x638>
    4970:	48 8d 05 49 16 01 00 	lea    0x11649(%rip),%rax        # 15fc0 <_ZL4font+0x1c60>
    4977:	e9 c9 09 00 00       	jmp    5345 <_ZN3PCI13GetDeviceCodeEhhh+0xff5>
    497c:	48 8d 05 75 16 01 00 	lea    0x11675(%rip),%rax        # 15ff8 <_ZL4font+0x1c98>
    4983:	e9 bd 09 00 00       	jmp    5345 <_ZN3PCI13GetDeviceCodeEhhh+0xff5>
    4988:	48 8d 05 88 15 01 00 	lea    0x11588(%rip),%rax        # 15f17 <_ZL4font+0x1bb7>
    498f:	e9 b1 09 00 00       	jmp    5345 <_ZN3PCI13GetDeviceCodeEhhh+0xff5>
    4994:	48 8d 05 95 16 01 00 	lea    0x11695(%rip),%rax        # 16030 <_ZL4font+0x1cd0>
    499b:	e9 a5 09 00 00       	jmp    5345 <_ZN3PCI13GetDeviceCodeEhhh+0xff5>
    49a0:	48 8d 05 a8 16 01 00 	lea    0x116a8(%rip),%rax        # 1604f <_ZL4font+0x1cef>
    49a7:	e9 99 09 00 00       	jmp    5345 <_ZN3PCI13GetDeviceCodeEhhh+0xff5>
    49ac:	48 8d 05 aa 16 01 00 	lea    0x116aa(%rip),%rax        # 1605d <_ZL4font+0x1cfd>
    49b3:	e9 8d 09 00 00       	jmp    5345 <_ZN3PCI13GetDeviceCodeEhhh+0xff5>
    49b8:	0f b6 45 f0          	movzbl -0x10(%rbp),%eax
    49bc:	83 f8 05             	cmp    $0x5,%eax
    49bf:	7f 34                	jg     49f5 <_ZN3PCI13GetDeviceCodeEhhh+0x6a5>
    49c1:	85 c0                	test   %eax,%eax
    49c3:	0f 88 e5 01 00 00    	js     4bae <_ZN3PCI13GetDeviceCodeEhhh+0x85e>
    49c9:	83 f8 05             	cmp    $0x5,%eax
    49cc:	0f 87 dc 01 00 00    	ja     4bae <_ZN3PCI13GetDeviceCodeEhhh+0x85e>
    49d2:	89 c0                	mov    %eax,%eax
    49d4:	48 8d 14 85 00 00 00 	lea    0x0(,%rax,4),%rdx
    49db:	00 
    49dc:	48 8d 05 c9 2c 01 00 	lea    0x12cc9(%rip),%rax        # 176ac <_ZL4font+0x334c>
    49e3:	8b 04 02             	mov    (%rdx,%rax,1),%eax
    49e6:	48 98                	cltq
    49e8:	48 8d 15 bd 2c 01 00 	lea    0x12cbd(%rip),%rdx        # 176ac <_ZL4font+0x334c>
    49ef:	48 01 d0             	add    %rdx,%rax
    49f2:	3e ff e0             	notrack jmp *%rax
    49f5:	3d 80 00 00 00       	cmp    $0x80,%eax
    49fa:	0f 84 a2 01 00 00    	je     4ba2 <_ZN3PCI13GetDeviceCodeEhhh+0x852>
    4a00:	e9 a9 01 00 00       	jmp    4bae <_ZN3PCI13GetDeviceCodeEhhh+0x85e>
    4a05:	0f b6 45 ec          	movzbl -0x14(%rbp),%eax
    4a09:	83 f8 06             	cmp    $0x6,%eax
    4a0c:	77 77                	ja     4a85 <_ZN3PCI13GetDeviceCodeEhhh+0x735>
    4a0e:	89 c0                	mov    %eax,%eax
    4a10:	48 8d 14 85 00 00 00 	lea    0x0(,%rax,4),%rdx
    4a17:	00 
    4a18:	48 8d 05 a5 2c 01 00 	lea    0x12ca5(%rip),%rax        # 176c4 <_ZL4font+0x3364>
    4a1f:	8b 04 02             	mov    (%rdx,%rax,1),%eax
    4a22:	48 98                	cltq
    4a24:	48 8d 15 99 2c 01 00 	lea    0x12c99(%rip),%rdx        # 176c4 <_ZL4font+0x3364>
    4a2b:	48 01 d0             	add    %rdx,%rax
    4a2e:	3e ff e0             	notrack jmp *%rax
    4a31:	48 8d 05 38 16 01 00 	lea    0x11638(%rip),%rax        # 16070 <_ZL4font+0x1d10>
    4a38:	e9 08 09 00 00       	jmp    5345 <_ZN3PCI13GetDeviceCodeEhhh+0xff5>
    4a3d:	48 8d 05 6c 16 01 00 	lea    0x1166c(%rip),%rax        # 160b0 <_ZL4font+0x1d50>
    4a44:	e9 fc 08 00 00       	jmp    5345 <_ZN3PCI13GetDeviceCodeEhhh+0xff5>
    4a49:	48 8d 05 a0 16 01 00 	lea    0x116a0(%rip),%rax        # 160f0 <_ZL4font+0x1d90>
    4a50:	e9 f0 08 00 00       	jmp    5345 <_ZN3PCI13GetDeviceCodeEhhh+0xff5>
    4a55:	48 8d 05 d4 16 01 00 	lea    0x116d4(%rip),%rax        # 16130 <_ZL4font+0x1dd0>
    4a5c:	e9 e4 08 00 00       	jmp    5345 <_ZN3PCI13GetDeviceCodeEhhh+0xff5>
    4a61:	48 8d 05 08 17 01 00 	lea    0x11708(%rip),%rax        # 16170 <_ZL4font+0x1e10>
    4a68:	e9 d8 08 00 00       	jmp    5345 <_ZN3PCI13GetDeviceCodeEhhh+0xff5>
    4a6d:	48 8d 05 3c 17 01 00 	lea    0x1173c(%rip),%rax        # 161b0 <_ZL4font+0x1e50>
    4a74:	e9 cc 08 00 00       	jmp    5345 <_ZN3PCI13GetDeviceCodeEhhh+0xff5>
    4a79:	48 8d 05 70 17 01 00 	lea    0x11770(%rip),%rax        # 161f0 <_ZL4font+0x1e90>
    4a80:	e9 c0 08 00 00       	jmp    5345 <_ZN3PCI13GetDeviceCodeEhhh+0xff5>
    4a85:	48 8d 05 a4 17 01 00 	lea    0x117a4(%rip),%rax        # 16230 <_ZL4font+0x1ed0>
    4a8c:	e9 b4 08 00 00       	jmp    5345 <_ZN3PCI13GetDeviceCodeEhhh+0xff5>
    4a91:	0f b6 45 ec          	movzbl -0x14(%rbp),%eax
    4a95:	3d fe 00 00 00       	cmp    $0xfe,%eax
    4a9a:	74 56                	je     4af2 <_ZN3PCI13GetDeviceCodeEhhh+0x7a2>
    4a9c:	3d fe 00 00 00       	cmp    $0xfe,%eax
    4aa1:	7f 5b                	jg     4afe <_ZN3PCI13GetDeviceCodeEhhh+0x7ae>
    4aa3:	83 f8 03             	cmp    $0x3,%eax
    4aa6:	74 3e                	je     4ae6 <_ZN3PCI13GetDeviceCodeEhhh+0x796>
    4aa8:	83 f8 03             	cmp    $0x3,%eax
    4aab:	7f 51                	jg     4afe <_ZN3PCI13GetDeviceCodeEhhh+0x7ae>
    4aad:	83 f8 02             	cmp    $0x2,%eax
    4ab0:	74 28                	je     4ada <_ZN3PCI13GetDeviceCodeEhhh+0x78a>
    4ab2:	83 f8 02             	cmp    $0x2,%eax
    4ab5:	7f 47                	jg     4afe <_ZN3PCI13GetDeviceCodeEhhh+0x7ae>
    4ab7:	85 c0                	test   %eax,%eax
    4ab9:	74 07                	je     4ac2 <_ZN3PCI13GetDeviceCodeEhhh+0x772>
    4abb:	83 f8 01             	cmp    $0x1,%eax
    4abe:	74 0e                	je     4ace <_ZN3PCI13GetDeviceCodeEhhh+0x77e>
    4ac0:	eb 3c                	jmp    4afe <_ZN3PCI13GetDeviceCodeEhhh+0x7ae>
    4ac2:	48 8d 05 9f 17 01 00 	lea    0x1179f(%rip),%rax        # 16268 <_ZL4font+0x1f08>
    4ac9:	e9 77 08 00 00       	jmp    5345 <_ZN3PCI13GetDeviceCodeEhhh+0xff5>
    4ace:	48 8d 05 cb 17 01 00 	lea    0x117cb(%rip),%rax        # 162a0 <_ZL4font+0x1f40>
    4ad5:	e9 6b 08 00 00       	jmp    5345 <_ZN3PCI13GetDeviceCodeEhhh+0xff5>
    4ada:	48 8d 05 ff 17 01 00 	lea    0x117ff(%rip),%rax        # 162e0 <_ZL4font+0x1f80>
    4ae1:	e9 5f 08 00 00       	jmp    5345 <_ZN3PCI13GetDeviceCodeEhhh+0xff5>
    4ae6:	48 8d 05 33 18 01 00 	lea    0x11833(%rip),%rax        # 16320 <_ZL4font+0x1fc0>
    4aed:	e9 53 08 00 00       	jmp    5345 <_ZN3PCI13GetDeviceCodeEhhh+0xff5>
    4af2:	48 8d 05 67 18 01 00 	lea    0x11867(%rip),%rax        # 16360 <_ZL4font+0x2000>
    4af9:	e9 47 08 00 00       	jmp    5345 <_ZN3PCI13GetDeviceCodeEhhh+0xff5>
    4afe:	48 8d 05 a3 18 01 00 	lea    0x118a3(%rip),%rax        # 163a8 <_ZL4font+0x2048>
    4b05:	e9 3b 08 00 00       	jmp    5345 <_ZN3PCI13GetDeviceCodeEhhh+0xff5>
    4b0a:	48 8d 05 cf 18 01 00 	lea    0x118cf(%rip),%rax        # 163e0 <_ZL4font+0x2080>
    4b11:	e9 2f 08 00 00       	jmp    5345 <_ZN3PCI13GetDeviceCodeEhhh+0xff5>
    4b16:	0f b6 45 ec          	movzbl -0x14(%rbp),%eax
    4b1a:	83 f8 04             	cmp    $0x4,%eax
    4b1d:	77 5f                	ja     4b7e <_ZN3PCI13GetDeviceCodeEhhh+0x82e>
    4b1f:	89 c0                	mov    %eax,%eax
    4b21:	48 8d 14 85 00 00 00 	lea    0x0(,%rax,4),%rdx
    4b28:	00 
    4b29:	48 8d 05 b0 2b 01 00 	lea    0x12bb0(%rip),%rax        # 176e0 <_ZL4font+0x3380>
    4b30:	8b 04 02             	mov    (%rdx,%rax,1),%eax
    4b33:	48 98                	cltq
    4b35:	48 8d 15 a4 2b 01 00 	lea    0x12ba4(%rip),%rdx        # 176e0 <_ZL4font+0x3380>
    4b3c:	48 01 d0             	add    %rdx,%rax
    4b3f:	3e ff e0             	notrack jmp *%rax
    4b42:	48 8d 05 cf 18 01 00 	lea    0x118cf(%rip),%rax        # 16418 <_ZL4font+0x20b8>
    4b49:	e9 f7 07 00 00       	jmp    5345 <_ZN3PCI13GetDeviceCodeEhhh+0xff5>
    4b4e:	48 8d 05 f3 18 01 00 	lea    0x118f3(%rip),%rax        # 16448 <_ZL4font+0x20e8>
    4b55:	e9 eb 07 00 00       	jmp    5345 <_ZN3PCI13GetDeviceCodeEhhh+0xff5>
    4b5a:	48 8d 05 27 19 01 00 	lea    0x11927(%rip),%rax        # 16488 <_ZL4font+0x2128>
    4b61:	e9 df 07 00 00       	jmp    5345 <_ZN3PCI13GetDeviceCodeEhhh+0xff5>
    4b66:	48 8d 05 5b 19 01 00 	lea    0x1195b(%rip),%rax        # 164c8 <_ZL4font+0x2168>
    4b6d:	e9 d3 07 00 00       	jmp    5345 <_ZN3PCI13GetDeviceCodeEhhh+0xff5>
    4b72:	48 8d 05 8f 19 01 00 	lea    0x1198f(%rip),%rax        # 16508 <_ZL4font+0x21a8>
    4b79:	e9 c7 07 00 00       	jmp    5345 <_ZN3PCI13GetDeviceCodeEhhh+0xff5>
    4b7e:	48 8d 05 c3 19 01 00 	lea    0x119c3(%rip),%rax        # 16548 <_ZL4font+0x21e8>
    4b85:	e9 bb 07 00 00       	jmp    5345 <_ZN3PCI13GetDeviceCodeEhhh+0xff5>
    4b8a:	48 8d 05 e7 19 01 00 	lea    0x119e7(%rip),%rax        # 16578 <_ZL4font+0x2218>
    4b91:	e9 af 07 00 00       	jmp    5345 <_ZN3PCI13GetDeviceCodeEhhh+0xff5>
    4b96:	48 8d 05 03 1a 01 00 	lea    0x11a03(%rip),%rax        # 165a0 <_ZL4font+0x2240>
    4b9d:	e9 a3 07 00 00       	jmp    5345 <_ZN3PCI13GetDeviceCodeEhhh+0xff5>
    4ba2:	48 8d 05 27 1a 01 00 	lea    0x11a27(%rip),%rax        # 165d0 <_ZL4font+0x2270>
    4ba9:	e9 97 07 00 00       	jmp    5345 <_ZN3PCI13GetDeviceCodeEhhh+0xff5>
    4bae:	48 8d 05 43 1a 01 00 	lea    0x11a43(%rip),%rax        # 165f8 <_ZL4font+0x2298>
    4bb5:	e9 8b 07 00 00       	jmp    5345 <_ZN3PCI13GetDeviceCodeEhhh+0xff5>
    4bba:	0f b6 45 f0          	movzbl -0x10(%rbp),%eax
    4bbe:	83 f8 06             	cmp    $0x6,%eax
    4bc1:	7f 34                	jg     4bf7 <_ZN3PCI13GetDeviceCodeEhhh+0x8a7>
    4bc3:	85 c0                	test   %eax,%eax
    4bc5:	0f 88 bb 01 00 00    	js     4d86 <_ZN3PCI13GetDeviceCodeEhhh+0xa36>
    4bcb:	83 f8 06             	cmp    $0x6,%eax
    4bce:	0f 87 b2 01 00 00    	ja     4d86 <_ZN3PCI13GetDeviceCodeEhhh+0xa36>
    4bd4:	89 c0                	mov    %eax,%eax
    4bd6:	48 8d 14 85 00 00 00 	lea    0x0(,%rax,4),%rdx
    4bdd:	00 
    4bde:	48 8d 05 0f 2b 01 00 	lea    0x12b0f(%rip),%rax        # 176f4 <_ZL4font+0x3394>
    4be5:	8b 04 02             	mov    (%rdx,%rax,1),%eax
    4be8:	48 98                	cltq
    4bea:	48 8d 15 03 2b 01 00 	lea    0x12b03(%rip),%rdx        # 176f4 <_ZL4font+0x3394>
    4bf1:	48 01 d0             	add    %rdx,%rax
    4bf4:	3e ff e0             	notrack jmp *%rax
    4bf7:	3d 80 00 00 00       	cmp    $0x80,%eax
    4bfc:	0f 84 78 01 00 00    	je     4d7a <_ZN3PCI13GetDeviceCodeEhhh+0xa2a>
    4c02:	e9 7f 01 00 00       	jmp    4d86 <_ZN3PCI13GetDeviceCodeEhhh+0xa36>
    4c07:	0f b6 45 ec          	movzbl -0x14(%rbp),%eax
    4c0b:	83 f8 20             	cmp    $0x20,%eax
    4c0e:	77 5f                	ja     4c6f <_ZN3PCI13GetDeviceCodeEhhh+0x91f>
    4c10:	89 c0                	mov    %eax,%eax
    4c12:	48 8d 14 85 00 00 00 	lea    0x0(,%rax,4),%rdx
    4c19:	00 
    4c1a:	48 8d 05 ef 2a 01 00 	lea    0x12aef(%rip),%rax        # 17710 <_ZL4font+0x33b0>
    4c21:	8b 04 02             	mov    (%rdx,%rax,1),%eax
    4c24:	48 98                	cltq
    4c26:	48 8d 15 e3 2a 01 00 	lea    0x12ae3(%rip),%rdx        # 17710 <_ZL4font+0x33b0>
    4c2d:	48 01 d0             	add    %rdx,%rax
    4c30:	3e ff e0             	notrack jmp *%rax
    4c33:	48 8d 05 ee 19 01 00 	lea    0x119ee(%rip),%rax        # 16628 <_ZL4font+0x22c8>
    4c3a:	e9 06 07 00 00       	jmp    5345 <_ZN3PCI13GetDeviceCodeEhhh+0xff5>
    4c3f:	48 8d 05 1a 1a 01 00 	lea    0x11a1a(%rip),%rax        # 16660 <_ZL4font+0x2300>
    4c46:	e9 fa 06 00 00       	jmp    5345 <_ZN3PCI13GetDeviceCodeEhhh+0xff5>
    4c4b:	48 8d 05 3e 1a 01 00 	lea    0x11a3e(%rip),%rax        # 16690 <_ZL4font+0x2330>
    4c52:	e9 ee 06 00 00       	jmp    5345 <_ZN3PCI13GetDeviceCodeEhhh+0xff5>
    4c57:	48 8d 05 6a 1a 01 00 	lea    0x11a6a(%rip),%rax        # 166c8 <_ZL4font+0x2368>
    4c5e:	e9 e2 06 00 00       	jmp    5345 <_ZN3PCI13GetDeviceCodeEhhh+0xff5>
    4c63:	48 8d 05 9e 1a 01 00 	lea    0x11a9e(%rip),%rax        # 16708 <_ZL4font+0x23a8>
    4c6a:	e9 d6 06 00 00       	jmp    5345 <_ZN3PCI13GetDeviceCodeEhhh+0xff5>
    4c6f:	48 8d 05 d2 1a 01 00 	lea    0x11ad2(%rip),%rax        # 16748 <_ZL4font+0x23e8>
    4c76:	e9 ca 06 00 00       	jmp    5345 <_ZN3PCI13GetDeviceCodeEhhh+0xff5>
    4c7b:	0f b6 45 ec          	movzbl -0x14(%rbp),%eax
    4c7f:	83 f8 02             	cmp    $0x2,%eax
    4c82:	74 28                	je     4cac <_ZN3PCI13GetDeviceCodeEhhh+0x95c>
    4c84:	83 f8 02             	cmp    $0x2,%eax
    4c87:	7f 2f                	jg     4cb8 <_ZN3PCI13GetDeviceCodeEhhh+0x968>
    4c89:	85 c0                	test   %eax,%eax
    4c8b:	74 07                	je     4c94 <_ZN3PCI13GetDeviceCodeEhhh+0x944>
    4c8d:	83 f8 01             	cmp    $0x1,%eax
    4c90:	74 0e                	je     4ca0 <_ZN3PCI13GetDeviceCodeEhhh+0x950>
    4c92:	eb 24                	jmp    4cb8 <_ZN3PCI13GetDeviceCodeEhhh+0x968>
    4c94:	48 8d 05 d5 1a 01 00 	lea    0x11ad5(%rip),%rax        # 16770 <_ZL4font+0x2410>
    4c9b:	e9 a5 06 00 00       	jmp    5345 <_ZN3PCI13GetDeviceCodeEhhh+0xff5>
    4ca0:	48 8d 05 01 1b 01 00 	lea    0x11b01(%rip),%rax        # 167a8 <_ZL4font+0x2448>
    4ca7:	e9 99 06 00 00       	jmp    5345 <_ZN3PCI13GetDeviceCodeEhhh+0xff5>
    4cac:	48 8d 05 25 1b 01 00 	lea    0x11b25(%rip),%rax        # 167d8 <_ZL4font+0x2478>
    4cb3:	e9 8d 06 00 00       	jmp    5345 <_ZN3PCI13GetDeviceCodeEhhh+0xff5>
    4cb8:	48 8d 05 51 1b 01 00 	lea    0x11b51(%rip),%rax        # 16810 <_ZL4font+0x24b0>
    4cbf:	e9 81 06 00 00       	jmp    5345 <_ZN3PCI13GetDeviceCodeEhhh+0xff5>
    4cc4:	0f b6 45 ec          	movzbl -0x14(%rbp),%eax
    4cc8:	83 f8 03             	cmp    $0x3,%eax
    4ccb:	74 3e                	je     4d0b <_ZN3PCI13GetDeviceCodeEhhh+0x9bb>
    4ccd:	83 f8 03             	cmp    $0x3,%eax
    4cd0:	7f 45                	jg     4d17 <_ZN3PCI13GetDeviceCodeEhhh+0x9c7>
    4cd2:	83 f8 02             	cmp    $0x2,%eax
    4cd5:	74 28                	je     4cff <_ZN3PCI13GetDeviceCodeEhhh+0x9af>
    4cd7:	83 f8 02             	cmp    $0x2,%eax
    4cda:	7f 3b                	jg     4d17 <_ZN3PCI13GetDeviceCodeEhhh+0x9c7>
    4cdc:	85 c0                	test   %eax,%eax
    4cde:	74 07                	je     4ce7 <_ZN3PCI13GetDeviceCodeEhhh+0x997>
    4ce0:	83 f8 01             	cmp    $0x1,%eax
    4ce3:	74 0e                	je     4cf3 <_ZN3PCI13GetDeviceCodeEhhh+0x9a3>
    4ce5:	eb 30                	jmp    4d17 <_ZN3PCI13GetDeviceCodeEhhh+0x9c7>
    4ce7:	48 8d 05 4a 1b 01 00 	lea    0x11b4a(%rip),%rax        # 16838 <_ZL4font+0x24d8>
    4cee:	e9 52 06 00 00       	jmp    5345 <_ZN3PCI13GetDeviceCodeEhhh+0xff5>
    4cf3:	48 8d 05 76 1b 01 00 	lea    0x11b76(%rip),%rax        # 16870 <_ZL4font+0x2510>
    4cfa:	e9 46 06 00 00       	jmp    5345 <_ZN3PCI13GetDeviceCodeEhhh+0xff5>
    4cff:	48 8d 05 a2 1b 01 00 	lea    0x11ba2(%rip),%rax        # 168a8 <_ZL4font+0x2548>
    4d06:	e9 3a 06 00 00       	jmp    5345 <_ZN3PCI13GetDeviceCodeEhhh+0xff5>
    4d0b:	48 8d 05 ce 1b 01 00 	lea    0x11bce(%rip),%rax        # 168e0 <_ZL4font+0x2580>
    4d12:	e9 2e 06 00 00       	jmp    5345 <_ZN3PCI13GetDeviceCodeEhhh+0xff5>
    4d17:	48 8d 05 ea 1b 01 00 	lea    0x11bea(%rip),%rax        # 16908 <_ZL4font+0x25a8>
    4d1e:	e9 22 06 00 00       	jmp    5345 <_ZN3PCI13GetDeviceCodeEhhh+0xff5>
    4d23:	0f b6 45 ec          	movzbl -0x14(%rbp),%eax
    4d27:	85 c0                	test   %eax,%eax
    4d29:	74 07                	je     4d32 <_ZN3PCI13GetDeviceCodeEhhh+0x9e2>
    4d2b:	83 f8 01             	cmp    $0x1,%eax
    4d2e:	74 0e                	je     4d3e <_ZN3PCI13GetDeviceCodeEhhh+0x9ee>
    4d30:	eb 18                	jmp    4d4a <_ZN3PCI13GetDeviceCodeEhhh+0x9fa>
    4d32:	48 8d 05 f7 1b 01 00 	lea    0x11bf7(%rip),%rax        # 16930 <_ZL4font+0x25d0>
    4d39:	e9 07 06 00 00       	jmp    5345 <_ZN3PCI13GetDeviceCodeEhhh+0xff5>
    4d3e:	48 8d 05 13 1c 01 00 	lea    0x11c13(%rip),%rax        # 16958 <_ZL4font+0x25f8>
    4d45:	e9 fb 05 00 00       	jmp    5345 <_ZN3PCI13GetDeviceCodeEhhh+0xff5>
    4d4a:	48 8d 05 37 1c 01 00 	lea    0x11c37(%rip),%rax        # 16988 <_ZL4font+0x2628>
    4d51:	e9 ef 05 00 00       	jmp    5345 <_ZN3PCI13GetDeviceCodeEhhh+0xff5>
    4d56:	48 8d 05 53 1c 01 00 	lea    0x11c53(%rip),%rax        # 169b0 <_ZL4font+0x2650>
    4d5d:	e9 e3 05 00 00       	jmp    5345 <_ZN3PCI13GetDeviceCodeEhhh+0xff5>
    4d62:	48 8d 05 77 1c 01 00 	lea    0x11c77(%rip),%rax        # 169e0 <_ZL4font+0x2680>
    4d69:	e9 d7 05 00 00       	jmp    5345 <_ZN3PCI13GetDeviceCodeEhhh+0xff5>
    4d6e:	48 8d 05 96 1c 01 00 	lea    0x11c96(%rip),%rax        # 16a0b <_ZL4font+0x26ab>
    4d75:	e9 cb 05 00 00       	jmp    5345 <_ZN3PCI13GetDeviceCodeEhhh+0xff5>
    4d7a:	48 8d 05 a8 1c 01 00 	lea    0x11ca8(%rip),%rax        # 16a29 <_ZL4font+0x26c9>
    4d81:	e9 bf 05 00 00       	jmp    5345 <_ZN3PCI13GetDeviceCodeEhhh+0xff5>
    4d86:	48 8d 05 bb 1c 01 00 	lea    0x11cbb(%rip),%rax        # 16a48 <_ZL4font+0x26e8>
    4d8d:	e9 b3 05 00 00       	jmp    5345 <_ZN3PCI13GetDeviceCodeEhhh+0xff5>
    4d92:	0f b6 45 f0          	movzbl -0x10(%rbp),%eax
    4d96:	83 f8 04             	cmp    $0x4,%eax
    4d99:	7f 34                	jg     4dcf <_ZN3PCI13GetDeviceCodeEhhh+0xa7f>
    4d9b:	85 c0                	test   %eax,%eax
    4d9d:	0f 88 a4 00 00 00    	js     4e47 <_ZN3PCI13GetDeviceCodeEhhh+0xaf7>
    4da3:	83 f8 04             	cmp    $0x4,%eax
    4da6:	0f 87 9b 00 00 00    	ja     4e47 <_ZN3PCI13GetDeviceCodeEhhh+0xaf7>
    4dac:	89 c0                	mov    %eax,%eax
    4dae:	48 8d 14 85 00 00 00 	lea    0x0(,%rax,4),%rdx
    4db5:	00 
    4db6:	48 8d 05 d7 29 01 00 	lea    0x129d7(%rip),%rax        # 17794 <_ZL4font+0x3434>
    4dbd:	8b 04 02             	mov    (%rdx,%rax,1),%eax
    4dc0:	48 98                	cltq
    4dc2:	48 8d 15 cb 29 01 00 	lea    0x129cb(%rip),%rdx        # 17794 <_ZL4font+0x3434>
    4dc9:	48 01 d0             	add    %rdx,%rax
    4dcc:	3e ff e0             	notrack jmp *%rax
    4dcf:	3d 80 00 00 00       	cmp    $0x80,%eax
    4dd4:	74 65                	je     4e3b <_ZN3PCI13GetDeviceCodeEhhh+0xaeb>
    4dd6:	eb 6f                	jmp    4e47 <_ZN3PCI13GetDeviceCodeEhhh+0xaf7>
    4dd8:	48 8d 05 89 1c 01 00 	lea    0x11c89(%rip),%rax        # 16a68 <_ZL4font+0x2708>
    4ddf:	e9 61 05 00 00       	jmp    5345 <_ZN3PCI13GetDeviceCodeEhhh+0xff5>
    4de4:	48 8d 05 a5 1c 01 00 	lea    0x11ca5(%rip),%rax        # 16a90 <_ZL4font+0x2730>
    4deb:	e9 55 05 00 00       	jmp    5345 <_ZN3PCI13GetDeviceCodeEhhh+0xff5>
    4df0:	48 8d 05 c1 1c 01 00 	lea    0x11cc1(%rip),%rax        # 16ab8 <_ZL4font+0x2758>
    4df7:	e9 49 05 00 00       	jmp    5345 <_ZN3PCI13GetDeviceCodeEhhh+0xff5>
    4dfc:	48 8d 05 e5 1c 01 00 	lea    0x11ce5(%rip),%rax        # 16ae8 <_ZL4font+0x2788>
    4e03:	e9 3d 05 00 00       	jmp    5345 <_ZN3PCI13GetDeviceCodeEhhh+0xff5>
    4e08:	0f b6 45 ec          	movzbl -0x14(%rbp),%eax
    4e0c:	85 c0                	test   %eax,%eax
    4e0e:	74 07                	je     4e17 <_ZN3PCI13GetDeviceCodeEhhh+0xac7>
    4e10:	83 f8 10             	cmp    $0x10,%eax
    4e13:	74 0e                	je     4e23 <_ZN3PCI13GetDeviceCodeEhhh+0xad3>
    4e15:	eb 18                	jmp    4e2f <_ZN3PCI13GetDeviceCodeEhhh+0xadf>
    4e17:	48 8d 05 f2 1c 01 00 	lea    0x11cf2(%rip),%rax        # 16b10 <_ZL4font+0x27b0>
    4e1e:	e9 22 05 00 00       	jmp    5345 <_ZN3PCI13GetDeviceCodeEhhh+0xff5>
    4e23:	48 8d 05 16 1d 01 00 	lea    0x11d16(%rip),%rax        # 16b40 <_ZL4font+0x27e0>
    4e2a:	e9 16 05 00 00       	jmp    5345 <_ZN3PCI13GetDeviceCodeEhhh+0xff5>
    4e2f:	48 8d 05 3a 1d 01 00 	lea    0x11d3a(%rip),%rax        # 16b70 <_ZL4font+0x2810>
    4e36:	e9 0a 05 00 00       	jmp    5345 <_ZN3PCI13GetDeviceCodeEhhh+0xff5>
    4e3b:	48 8d 05 5e 1d 01 00 	lea    0x11d5e(%rip),%rax        # 16ba0 <_ZL4font+0x2840>
    4e42:	e9 fe 04 00 00       	jmp    5345 <_ZN3PCI13GetDeviceCodeEhhh+0xff5>
    4e47:	48 8d 05 72 1d 01 00 	lea    0x11d72(%rip),%rax        # 16bc0 <_ZL4font+0x2860>
    4e4e:	e9 f2 04 00 00       	jmp    5345 <_ZN3PCI13GetDeviceCodeEhhh+0xff5>
    4e53:	0f b6 45 f0          	movzbl -0x10(%rbp),%eax
    4e57:	85 c0                	test   %eax,%eax
    4e59:	74 09                	je     4e64 <_ZN3PCI13GetDeviceCodeEhhh+0xb14>
    4e5b:	3d 80 00 00 00       	cmp    $0x80,%eax
    4e60:	74 0e                	je     4e70 <_ZN3PCI13GetDeviceCodeEhhh+0xb20>
    4e62:	eb 18                	jmp    4e7c <_ZN3PCI13GetDeviceCodeEhhh+0xb2c>
    4e64:	48 8d 05 76 1d 01 00 	lea    0x11d76(%rip),%rax        # 16be1 <_ZL4font+0x2881>
    4e6b:	e9 d5 04 00 00       	jmp    5345 <_ZN3PCI13GetDeviceCodeEhhh+0xff5>
    4e70:	48 8d 05 83 1d 01 00 	lea    0x11d83(%rip),%rax        # 16bfa <_ZL4font+0x289a>
    4e77:	e9 c9 04 00 00       	jmp    5345 <_ZN3PCI13GetDeviceCodeEhhh+0xff5>
    4e7c:	48 8d 05 8e 1d 01 00 	lea    0x11d8e(%rip),%rax        # 16c11 <_ZL4font+0x28b1>
    4e83:	e9 bd 04 00 00       	jmp    5345 <_ZN3PCI13GetDeviceCodeEhhh+0xff5>
    4e88:	0f b6 45 f0          	movzbl -0x10(%rbp),%eax
    4e8c:	3d 80 00 00 00       	cmp    $0x80,%eax
    4e91:	0f 84 ab 00 00 00    	je     4f42 <_ZN3PCI13GetDeviceCodeEhhh+0xbf2>
    4e97:	3d 80 00 00 00       	cmp    $0x80,%eax
    4e9c:	0f 8f ac 00 00 00    	jg     4f4e <_ZN3PCI13GetDeviceCodeEhhh+0xbfe>
    4ea2:	83 f8 30             	cmp    $0x30,%eax
    4ea5:	7f 34                	jg     4edb <_ZN3PCI13GetDeviceCodeEhhh+0xb8b>
    4ea7:	85 c0                	test   %eax,%eax
    4ea9:	0f 88 9f 00 00 00    	js     4f4e <_ZN3PCI13GetDeviceCodeEhhh+0xbfe>
    4eaf:	83 f8 30             	cmp    $0x30,%eax
    4eb2:	0f 87 96 00 00 00    	ja     4f4e <_ZN3PCI13GetDeviceCodeEhhh+0xbfe>
    4eb8:	89 c0                	mov    %eax,%eax
    4eba:	48 8d 14 85 00 00 00 	lea    0x0(,%rax,4),%rdx
    4ec1:	00 
    4ec2:	48 8d 05 df 28 01 00 	lea    0x128df(%rip),%rax        # 177a8 <_ZL4font+0x3448>
    4ec9:	8b 04 02             	mov    (%rdx,%rax,1),%eax
    4ecc:	48 98                	cltq
    4ece:	48 8d 15 d3 28 01 00 	lea    0x128d3(%rip),%rdx        # 177a8 <_ZL4font+0x3448>
    4ed5:	48 01 d0             	add    %rdx,%rax
    4ed8:	3e ff e0             	notrack jmp *%rax
    4edb:	83 f8 40             	cmp    $0x40,%eax
    4ede:	74 56                	je     4f36 <_ZN3PCI13GetDeviceCodeEhhh+0xbe6>
    4ee0:	eb 6c                	jmp    4f4e <_ZN3PCI13GetDeviceCodeEhhh+0xbfe>
    4ee2:	48 8d 05 41 1d 01 00 	lea    0x11d41(%rip),%rax        # 16c2a <_ZL4font+0x28ca>
    4ee9:	e9 57 04 00 00       	jmp    5345 <_ZN3PCI13GetDeviceCodeEhhh+0xff5>
    4eee:	48 8d 05 44 1d 01 00 	lea    0x11d44(%rip),%rax        # 16c39 <_ZL4font+0x28d9>
    4ef5:	e9 4b 04 00 00       	jmp    5345 <_ZN3PCI13GetDeviceCodeEhhh+0xff5>
    4efa:	48 8d 05 47 1d 01 00 	lea    0x11d47(%rip),%rax        # 16c48 <_ZL4font+0x28e8>
    4f01:	e9 3f 04 00 00       	jmp    5345 <_ZN3PCI13GetDeviceCodeEhhh+0xff5>
    4f06:	48 8d 05 4e 1d 01 00 	lea    0x11d4e(%rip),%rax        # 16c5b <_ZL4font+0x28fb>
    4f0d:	e9 33 04 00 00       	jmp    5345 <_ZN3PCI13GetDeviceCodeEhhh+0xff5>
    4f12:	48 8d 05 59 1d 01 00 	lea    0x11d59(%rip),%rax        # 16c72 <_ZL4font+0x2912>
    4f19:	e9 27 04 00 00       	jmp    5345 <_ZN3PCI13GetDeviceCodeEhhh+0xff5>
    4f1e:	48 8d 05 5e 1d 01 00 	lea    0x11d5e(%rip),%rax        # 16c83 <_ZL4font+0x2923>
    4f25:	e9 1b 04 00 00       	jmp    5345 <_ZN3PCI13GetDeviceCodeEhhh+0xff5>
    4f2a:	48 8d 05 65 1d 01 00 	lea    0x11d65(%rip),%rax        # 16c96 <_ZL4font+0x2936>
    4f31:	e9 0f 04 00 00       	jmp    5345 <_ZN3PCI13GetDeviceCodeEhhh+0xff5>
    4f36:	48 8d 05 69 1d 01 00 	lea    0x11d69(%rip),%rax        # 16ca6 <_ZL4font+0x2946>
    4f3d:	e9 03 04 00 00       	jmp    5345 <_ZN3PCI13GetDeviceCodeEhhh+0xff5>
    4f42:	48 8d 05 75 1d 01 00 	lea    0x11d75(%rip),%rax        # 16cbe <_ZL4font+0x295e>
    4f49:	e9 f7 03 00 00       	jmp    5345 <_ZN3PCI13GetDeviceCodeEhhh+0xff5>
    4f4e:	48 8d 05 7a 1d 01 00 	lea    0x11d7a(%rip),%rax        # 16ccf <_ZL4font+0x296f>
    4f55:	e9 eb 03 00 00       	jmp    5345 <_ZN3PCI13GetDeviceCodeEhhh+0xff5>
    4f5a:	0f b6 45 f0          	movzbl -0x10(%rbp),%eax
    4f5e:	83 f8 09             	cmp    $0x9,%eax
    4f61:	7f 34                	jg     4f97 <_ZN3PCI13GetDeviceCodeEhhh+0xc47>
    4f63:	85 c0                	test   %eax,%eax
    4f65:	0f 88 ab 01 00 00    	js     5116 <_ZN3PCI13GetDeviceCodeEhhh+0xdc6>
    4f6b:	83 f8 09             	cmp    $0x9,%eax
    4f6e:	0f 87 a2 01 00 00    	ja     5116 <_ZN3PCI13GetDeviceCodeEhhh+0xdc6>
    4f74:	89 c0                	mov    %eax,%eax
    4f76:	48 8d 14 85 00 00 00 	lea    0x0(,%rax,4),%rdx
    4f7d:	00 
    4f7e:	48 8d 05 e7 28 01 00 	lea    0x128e7(%rip),%rax        # 1786c <_ZL4font+0x350c>
    4f85:	8b 04 02             	mov    (%rdx,%rax,1),%eax
    4f88:	48 98                	cltq
    4f8a:	48 8d 15 db 28 01 00 	lea    0x128db(%rip),%rdx        # 1786c <_ZL4font+0x350c>
    4f91:	48 01 d0             	add    %rdx,%rax
    4f94:	3e ff e0             	notrack jmp *%rax
    4f97:	3d 80 00 00 00       	cmp    $0x80,%eax
    4f9c:	0f 84 68 01 00 00    	je     510a <_ZN3PCI13GetDeviceCodeEhhh+0xdba>
    4fa2:	e9 6f 01 00 00       	jmp    5116 <_ZN3PCI13GetDeviceCodeEhhh+0xdc6>
    4fa7:	0f b6 45 ec          	movzbl -0x14(%rbp),%eax
    4fab:	85 c0                	test   %eax,%eax
    4fad:	74 07                	je     4fb6 <_ZN3PCI13GetDeviceCodeEhhh+0xc66>
    4faf:	83 f8 10             	cmp    $0x10,%eax
    4fb2:	74 0e                	je     4fc2 <_ZN3PCI13GetDeviceCodeEhhh+0xc72>
    4fb4:	eb 18                	jmp    4fce <_ZN3PCI13GetDeviceCodeEhhh+0xc7e>
    4fb6:	48 8d 05 2b 1d 01 00 	lea    0x11d2b(%rip),%rax        # 16ce8 <_ZL4font+0x2988>
    4fbd:	e9 83 03 00 00       	jmp    5345 <_ZN3PCI13GetDeviceCodeEhhh+0xff5>
    4fc2:	48 8d 05 4f 1d 01 00 	lea    0x11d4f(%rip),%rax        # 16d18 <_ZL4font+0x29b8>
    4fc9:	e9 77 03 00 00       	jmp    5345 <_ZN3PCI13GetDeviceCodeEhhh+0xff5>
    4fce:	48 8d 05 6b 1d 01 00 	lea    0x11d6b(%rip),%rax        # 16d40 <_ZL4font+0x29e0>
    4fd5:	e9 6b 03 00 00       	jmp    5345 <_ZN3PCI13GetDeviceCodeEhhh+0xff5>
    4fda:	48 8d 05 8f 1d 01 00 	lea    0x11d8f(%rip),%rax        # 16d70 <_ZL4font+0x2a10>
    4fe1:	e9 5f 03 00 00       	jmp    5345 <_ZN3PCI13GetDeviceCodeEhhh+0xff5>
    4fe6:	48 8d 05 a5 1d 01 00 	lea    0x11da5(%rip),%rax        # 16d92 <_ZL4font+0x2a32>
    4fed:	e9 53 03 00 00       	jmp    5345 <_ZN3PCI13GetDeviceCodeEhhh+0xff5>
    4ff2:	0f b6 45 ec          	movzbl -0x14(%rbp),%eax
    4ff6:	3d fe 00 00 00       	cmp    $0xfe,%eax
    4ffb:	74 70                	je     506d <_ZN3PCI13GetDeviceCodeEhhh+0xd1d>
    4ffd:	3d fe 00 00 00       	cmp    $0xfe,%eax
    5002:	7f 75                	jg     5079 <_ZN3PCI13GetDeviceCodeEhhh+0xd29>
    5004:	3d 80 00 00 00       	cmp    $0x80,%eax
    5009:	74 56                	je     5061 <_ZN3PCI13GetDeviceCodeEhhh+0xd11>
    500b:	3d 80 00 00 00       	cmp    $0x80,%eax
    5010:	7f 67                	jg     5079 <_ZN3PCI13GetDeviceCodeEhhh+0xd29>
    5012:	83 f8 30             	cmp    $0x30,%eax
    5015:	74 3e                	je     5055 <_ZN3PCI13GetDeviceCodeEhhh+0xd05>
    5017:	83 f8 30             	cmp    $0x30,%eax
    501a:	7f 5d                	jg     5079 <_ZN3PCI13GetDeviceCodeEhhh+0xd29>
    501c:	83 f8 20             	cmp    $0x20,%eax
    501f:	74 28                	je     5049 <_ZN3PCI13GetDeviceCodeEhhh+0xcf9>
    5021:	83 f8 20             	cmp    $0x20,%eax
    5024:	7f 53                	jg     5079 <_ZN3PCI13GetDeviceCodeEhhh+0xd29>
    5026:	85 c0                	test   %eax,%eax
    5028:	74 07                	je     5031 <_ZN3PCI13GetDeviceCodeEhhh+0xce1>
    502a:	83 f8 10             	cmp    $0x10,%eax
    502d:	74 0e                	je     503d <_ZN3PCI13GetDeviceCodeEhhh+0xced>
    502f:	eb 48                	jmp    5079 <_ZN3PCI13GetDeviceCodeEhhh+0xd29>
    5031:	48 8d 05 78 1d 01 00 	lea    0x11d78(%rip),%rax        # 16db0 <_ZL4font+0x2a50>
    5038:	e9 08 03 00 00       	jmp    5345 <_ZN3PCI13GetDeviceCodeEhhh+0xff5>
    503d:	48 8d 05 94 1d 01 00 	lea    0x11d94(%rip),%rax        # 16dd8 <_ZL4font+0x2a78>
    5044:	e9 fc 02 00 00       	jmp    5345 <_ZN3PCI13GetDeviceCodeEhhh+0xff5>
    5049:	48 8d 05 b0 1d 01 00 	lea    0x11db0(%rip),%rax        # 16e00 <_ZL4font+0x2aa0>
    5050:	e9 f0 02 00 00       	jmp    5345 <_ZN3PCI13GetDeviceCodeEhhh+0xff5>
    5055:	48 8d 05 cc 1d 01 00 	lea    0x11dcc(%rip),%rax        # 16e28 <_ZL4font+0x2ac8>
    505c:	e9 e4 02 00 00       	jmp    5345 <_ZN3PCI13GetDeviceCodeEhhh+0xff5>
    5061:	48 8d 05 e8 1d 01 00 	lea    0x11de8(%rip),%rax        # 16e50 <_ZL4font+0x2af0>
    5068:	e9 d8 02 00 00       	jmp    5345 <_ZN3PCI13GetDeviceCodeEhhh+0xff5>
    506d:	48 8d 05 04 1e 01 00 	lea    0x11e04(%rip),%rax        # 16e78 <_ZL4font+0x2b18>
    5074:	e9 cc 02 00 00       	jmp    5345 <_ZN3PCI13GetDeviceCodeEhhh+0xff5>
    5079:	48 8d 05 20 1e 01 00 	lea    0x11e20(%rip),%rax        # 16ea0 <_ZL4font+0x2b40>
    5080:	e9 c0 02 00 00       	jmp    5345 <_ZN3PCI13GetDeviceCodeEhhh+0xff5>
    5085:	48 8d 05 3c 1e 01 00 	lea    0x11e3c(%rip),%rax        # 16ec8 <_ZL4font+0x2b68>
    508c:	e9 b4 02 00 00       	jmp    5345 <_ZN3PCI13GetDeviceCodeEhhh+0xff5>
    5091:	48 8d 05 55 1e 01 00 	lea    0x11e55(%rip),%rax        # 16eed <_ZL4font+0x2b8d>
    5098:	e9 a8 02 00 00       	jmp    5345 <_ZN3PCI13GetDeviceCodeEhhh+0xff5>
    509d:	48 8d 05 6c 1e 01 00 	lea    0x11e6c(%rip),%rax        # 16f10 <_ZL4font+0x2bb0>
    50a4:	e9 9c 02 00 00       	jmp    5345 <_ZN3PCI13GetDeviceCodeEhhh+0xff5>
    50a9:	0f b6 45 ec          	movzbl -0x14(%rbp),%eax
    50ad:	83 f8 02             	cmp    $0x2,%eax
    50b0:	74 28                	je     50da <_ZN3PCI13GetDeviceCodeEhhh+0xd8a>
    50b2:	83 f8 02             	cmp    $0x2,%eax
    50b5:	7f 2f                	jg     50e6 <_ZN3PCI13GetDeviceCodeEhhh+0xd96>
    50b7:	85 c0                	test   %eax,%eax
    50b9:	74 07                	je     50c2 <_ZN3PCI13GetDeviceCodeEhhh+0xd72>
    50bb:	83 f8 01             	cmp    $0x1,%eax
    50be:	74 0e                	je     50ce <_ZN3PCI13GetDeviceCodeEhhh+0xd7e>
    50c0:	eb 24                	jmp    50e6 <_ZN3PCI13GetDeviceCodeEhhh+0xd96>
    50c2:	48 8d 05 6f 1e 01 00 	lea    0x11e6f(%rip),%rax        # 16f38 <_ZL4font+0x2bd8>
    50c9:	e9 77 02 00 00       	jmp    5345 <_ZN3PCI13GetDeviceCodeEhhh+0xff5>
    50ce:	48 8d 05 93 1e 01 00 	lea    0x11e93(%rip),%rax        # 16f68 <_ZL4font+0x2c08>
    50d5:	e9 6b 02 00 00       	jmp    5345 <_ZN3PCI13GetDeviceCodeEhhh+0xff5>
    50da:	48 8d 05 cf 1e 01 00 	lea    0x11ecf(%rip),%rax        # 16fb0 <_ZL4font+0x2c50>
    50e1:	e9 5f 02 00 00       	jmp    5345 <_ZN3PCI13GetDeviceCodeEhhh+0xff5>
    50e6:	48 8d 05 fb 1e 01 00 	lea    0x11efb(%rip),%rax        # 16fe8 <_ZL4font+0x2c88>
    50ed:	e9 53 02 00 00       	jmp    5345 <_ZN3PCI13GetDeviceCodeEhhh+0xff5>
    50f2:	48 8d 05 1f 1f 01 00 	lea    0x11f1f(%rip),%rax        # 17018 <_ZL4font+0x2cb8>
    50f9:	e9 47 02 00 00       	jmp    5345 <_ZN3PCI13GetDeviceCodeEhhh+0xff5>
    50fe:	48 8d 05 3b 1f 01 00 	lea    0x11f3b(%rip),%rax        # 17040 <_ZL4font+0x2ce0>
    5105:	e9 3b 02 00 00       	jmp    5345 <_ZN3PCI13GetDeviceCodeEhhh+0xff5>
    510a:	48 8d 05 4d 1f 01 00 	lea    0x11f4d(%rip),%rax        # 1705e <_ZL4font+0x2cfe>
    5111:	e9 2f 02 00 00       	jmp    5345 <_ZN3PCI13GetDeviceCodeEhhh+0xff5>
    5116:	48 8d 05 63 1f 01 00 	lea    0x11f63(%rip),%rax        # 17080 <_ZL4font+0x2d20>
    511d:	e9 23 02 00 00       	jmp    5345 <_ZN3PCI13GetDeviceCodeEhhh+0xff5>
    5122:	0f b6 45 f0          	movzbl -0x10(%rbp),%eax
    5126:	83 f8 21             	cmp    $0x21,%eax
    5129:	7f 34                	jg     515f <_ZN3PCI13GetDeviceCodeEhhh+0xe0f>
    512b:	85 c0                	test   %eax,%eax
    512d:	0f 88 95 00 00 00    	js     51c8 <_ZN3PCI13GetDeviceCodeEhhh+0xe78>
    5133:	83 f8 21             	cmp    $0x21,%eax
    5136:	0f 87 8c 00 00 00    	ja     51c8 <_ZN3PCI13GetDeviceCodeEhhh+0xe78>
    513c:	89 c0                	mov    %eax,%eax
    513e:	48 8d 14 85 00 00 00 	lea    0x0(,%rax,4),%rdx
    5145:	00 
    5146:	48 8d 05 47 27 01 00 	lea    0x12747(%rip),%rax        # 17894 <_ZL4font+0x3534>
    514d:	8b 04 02             	mov    (%rdx,%rax,1),%eax
    5150:	48 98                	cltq
    5152:	48 8d 15 3b 27 01 00 	lea    0x1273b(%rip),%rdx        # 17894 <_ZL4font+0x3534>
    5159:	48 01 d0             	add    %rdx,%rax
    515c:	3e ff e0             	notrack jmp *%rax
    515f:	3d 80 00 00 00       	cmp    $0x80,%eax
    5164:	74 56                	je     51bc <_ZN3PCI13GetDeviceCodeEhhh+0xe6c>
    5166:	eb 60                	jmp    51c8 <_ZN3PCI13GetDeviceCodeEhhh+0xe78>
    5168:	48 8d 05 31 1f 01 00 	lea    0x11f31(%rip),%rax        # 170a0 <_ZL4font+0x2d40>
    516f:	e9 d1 01 00 00       	jmp    5345 <_ZN3PCI13GetDeviceCodeEhhh+0xff5>
    5174:	48 8d 05 4d 1f 01 00 	lea    0x11f4d(%rip),%rax        # 170c8 <_ZL4font+0x2d68>
    517b:	e9 c5 01 00 00       	jmp    5345 <_ZN3PCI13GetDeviceCodeEhhh+0xff5>
    5180:	48 8d 05 62 1f 01 00 	lea    0x11f62(%rip),%rax        # 170e9 <_ZL4font+0x2d89>
    5187:	e9 b9 01 00 00       	jmp    5345 <_ZN3PCI13GetDeviceCodeEhhh+0xff5>
    518c:	48 8d 05 75 1f 01 00 	lea    0x11f75(%rip),%rax        # 17108 <_ZL4font+0x2da8>
    5193:	e9 ad 01 00 00       	jmp    5345 <_ZN3PCI13GetDeviceCodeEhhh+0xff5>
    5198:	48 8d 05 89 1f 01 00 	lea    0x11f89(%rip),%rax        # 17128 <_ZL4font+0x2dc8>
    519f:	e9 a1 01 00 00       	jmp    5345 <_ZN3PCI13GetDeviceCodeEhhh+0xff5>
    51a4:	48 8d 05 9d 1f 01 00 	lea    0x11f9d(%rip),%rax        # 17148 <_ZL4font+0x2de8>
    51ab:	e9 95 01 00 00       	jmp    5345 <_ZN3PCI13GetDeviceCodeEhhh+0xff5>
    51b0:	48 8d 05 b9 1f 01 00 	lea    0x11fb9(%rip),%rax        # 17170 <_ZL4font+0x2e10>
    51b7:	e9 89 01 00 00       	jmp    5345 <_ZN3PCI13GetDeviceCodeEhhh+0xff5>
    51bc:	48 8d 05 d2 1f 01 00 	lea    0x11fd2(%rip),%rax        # 17195 <_ZL4font+0x2e35>
    51c3:	e9 7d 01 00 00       	jmp    5345 <_ZN3PCI13GetDeviceCodeEhhh+0xff5>
    51c8:	48 8d 05 e1 1f 01 00 	lea    0x11fe1(%rip),%rax        # 171b0 <_ZL4font+0x2e50>
    51cf:	e9 71 01 00 00       	jmp    5345 <_ZN3PCI13GetDeviceCodeEhhh+0xff5>
    51d4:	0f b6 45 f0          	movzbl -0x10(%rbp),%eax
    51d8:	85 c0                	test   %eax,%eax
    51da:	75 0c                	jne    51e8 <_ZN3PCI13GetDeviceCodeEhhh+0xe98>
    51dc:	48 8d 05 ea 1f 01 00 	lea    0x11fea(%rip),%rax        # 171cd <_ZL4font+0x2e6d>
    51e3:	e9 5d 01 00 00       	jmp    5345 <_ZN3PCI13GetDeviceCodeEhhh+0xff5>
    51e8:	48 8d 05 01 20 01 00 	lea    0x12001(%rip),%rax        # 171f0 <_ZL4font+0x2e90>
    51ef:	e9 51 01 00 00       	jmp    5345 <_ZN3PCI13GetDeviceCodeEhhh+0xff5>
    51f4:	0f b6 45 f0          	movzbl -0x10(%rbp),%eax
    51f8:	83 f8 04             	cmp    $0x4,%eax
    51fb:	74 3f                	je     523c <_ZN3PCI13GetDeviceCodeEhhh+0xeec>
    51fd:	83 f8 04             	cmp    $0x4,%eax
    5200:	7f 46                	jg     5248 <_ZN3PCI13GetDeviceCodeEhhh+0xef8>
    5202:	83 f8 03             	cmp    $0x3,%eax
    5205:	74 29                	je     5230 <_ZN3PCI13GetDeviceCodeEhhh+0xee0>
    5207:	83 f8 03             	cmp    $0x3,%eax
    520a:	7f 3c                	jg     5248 <_ZN3PCI13GetDeviceCodeEhhh+0xef8>
    520c:	83 f8 01             	cmp    $0x1,%eax
    520f:	74 07                	je     5218 <_ZN3PCI13GetDeviceCodeEhhh+0xec8>
    5211:	83 f8 02             	cmp    $0x2,%eax
    5214:	74 0e                	je     5224 <_ZN3PCI13GetDeviceCodeEhhh+0xed4>
    5216:	eb 30                	jmp    5248 <_ZN3PCI13GetDeviceCodeEhhh+0xef8>
    5218:	48 8d 05 f1 1f 01 00 	lea    0x11ff1(%rip),%rax        # 17210 <_ZL4font+0x2eb0>
    521f:	e9 21 01 00 00       	jmp    5345 <_ZN3PCI13GetDeviceCodeEhhh+0xff5>
    5224:	48 8d 05 0d 20 01 00 	lea    0x1200d(%rip),%rax        # 17238 <_ZL4font+0x2ed8>
    522b:	e9 15 01 00 00       	jmp    5345 <_ZN3PCI13GetDeviceCodeEhhh+0xff5>
    5230:	48 8d 05 31 20 01 00 	lea    0x12031(%rip),%rax        # 17268 <_ZL4font+0x2f08>
    5237:	e9 09 01 00 00       	jmp    5345 <_ZN3PCI13GetDeviceCodeEhhh+0xff5>
    523c:	48 8d 05 55 20 01 00 	lea    0x12055(%rip),%rax        # 17298 <_ZL4font+0x2f38>
    5243:	e9 fd 00 00 00       	jmp    5345 <_ZN3PCI13GetDeviceCodeEhhh+0xff5>
    5248:	48 8d 05 71 20 01 00 	lea    0x12071(%rip),%rax        # 172c0 <_ZL4font+0x2f60>
    524f:	e9 f1 00 00 00       	jmp    5345 <_ZN3PCI13GetDeviceCodeEhhh+0xff5>
    5254:	0f b6 45 f0          	movzbl -0x10(%rbp),%eax
    5258:	3d 80 00 00 00       	cmp    $0x80,%eax
    525d:	74 2a                	je     5289 <_ZN3PCI13GetDeviceCodeEhhh+0xf39>
    525f:	3d 80 00 00 00       	cmp    $0x80,%eax
    5264:	7f 2f                	jg     5295 <_ZN3PCI13GetDeviceCodeEhhh+0xf45>
    5266:	85 c0                	test   %eax,%eax
    5268:	74 07                	je     5271 <_ZN3PCI13GetDeviceCodeEhhh+0xf21>
    526a:	83 f8 10             	cmp    $0x10,%eax
    526d:	74 0e                	je     527d <_ZN3PCI13GetDeviceCodeEhhh+0xf2d>
    526f:	eb 24                	jmp    5295 <_ZN3PCI13GetDeviceCodeEhhh+0xf45>
    5271:	48 8d 05 70 20 01 00 	lea    0x12070(%rip),%rax        # 172e8 <_ZL4font+0x2f88>
    5278:	e9 c8 00 00 00       	jmp    5345 <_ZN3PCI13GetDeviceCodeEhhh+0xff5>
    527d:	48 8d 05 a4 20 01 00 	lea    0x120a4(%rip),%rax        # 17328 <_ZL4font+0x2fc8>
    5284:	e9 bc 00 00 00       	jmp    5345 <_ZN3PCI13GetDeviceCodeEhhh+0xff5>
    5289:	48 8d 05 d3 20 01 00 	lea    0x120d3(%rip),%rax        # 17363 <_ZL4font+0x3003>
    5290:	e9 b0 00 00 00       	jmp    5345 <_ZN3PCI13GetDeviceCodeEhhh+0xff5>
    5295:	48 8d 05 e4 20 01 00 	lea    0x120e4(%rip),%rax        # 17380 <_ZL4font+0x3020>
    529c:	e9 a4 00 00 00       	jmp    5345 <_ZN3PCI13GetDeviceCodeEhhh+0xff5>
    52a1:	0f b6 45 f0          	movzbl -0x10(%rbp),%eax
    52a5:	3d 80 00 00 00       	cmp    $0x80,%eax
    52aa:	74 4a                	je     52f6 <_ZN3PCI13GetDeviceCodeEhhh+0xfa6>
    52ac:	3d 80 00 00 00       	cmp    $0x80,%eax
    52b1:	7f 4c                	jg     52ff <_ZN3PCI13GetDeviceCodeEhhh+0xfaf>
    52b3:	83 f8 20             	cmp    $0x20,%eax
    52b6:	74 35                	je     52ed <_ZN3PCI13GetDeviceCodeEhhh+0xf9d>
    52b8:	83 f8 20             	cmp    $0x20,%eax
    52bb:	7f 42                	jg     52ff <_ZN3PCI13GetDeviceCodeEhhh+0xfaf>
    52bd:	83 f8 10             	cmp    $0x10,%eax
    52c0:	74 22                	je     52e4 <_ZN3PCI13GetDeviceCodeEhhh+0xf94>
    52c2:	83 f8 10             	cmp    $0x10,%eax
    52c5:	7f 38                	jg     52ff <_ZN3PCI13GetDeviceCodeEhhh+0xfaf>
    52c7:	85 c0                	test   %eax,%eax
    52c9:	74 07                	je     52d2 <_ZN3PCI13GetDeviceCodeEhhh+0xf82>
    52cb:	83 f8 01             	cmp    $0x1,%eax
    52ce:	74 0b                	je     52db <_ZN3PCI13GetDeviceCodeEhhh+0xf8b>
    52d0:	eb 2d                	jmp    52ff <_ZN3PCI13GetDeviceCodeEhhh+0xfaf>
    52d2:	48 8d 05 c7 20 01 00 	lea    0x120c7(%rip),%rax        # 173a0 <_ZL4font+0x3040>
    52d9:	eb 6a                	jmp    5345 <_ZN3PCI13GetDeviceCodeEhhh+0xff5>
    52db:	48 8d 05 ee 20 01 00 	lea    0x120ee(%rip),%rax        # 173d0 <_ZL4font+0x3070>
    52e2:	eb 61                	jmp    5345 <_ZN3PCI13GetDeviceCodeEhhh+0xff5>
    52e4:	48 8d 05 1d 21 01 00 	lea    0x1211d(%rip),%rax        # 17408 <_ZL4font+0x30a8>
    52eb:	eb 58                	jmp    5345 <_ZN3PCI13GetDeviceCodeEhhh+0xff5>
    52ed:	48 8d 05 54 21 01 00 	lea    0x12154(%rip),%rax        # 17448 <_ZL4font+0x30e8>
    52f4:	eb 4f                	jmp    5345 <_ZN3PCI13GetDeviceCodeEhhh+0xff5>
    52f6:	48 8d 05 8b 21 01 00 	lea    0x1218b(%rip),%rax        # 17488 <_ZL4font+0x3128>
    52fd:	eb 46                	jmp    5345 <_ZN3PCI13GetDeviceCodeEhhh+0xff5>
    52ff:	48 8d 05 aa 21 01 00 	lea    0x121aa(%rip),%rax        # 174b0 <_ZL4font+0x3150>
    5306:	eb 3d                	jmp    5345 <_ZN3PCI13GetDeviceCodeEhhh+0xff5>
    5308:	48 8d 05 d7 01 01 00 	lea    0x101d7(%rip),%rax        # 154e6 <_ZL4font+0x1186>
    530f:	eb 34                	jmp    5345 <_ZN3PCI13GetDeviceCodeEhhh+0xff5>
    5311:	48 8d 05 be 21 01 00 	lea    0x121be(%rip),%rax        # 174d6 <_ZL4font+0x3176>
    5318:	eb 2b                	jmp    5345 <_ZN3PCI13GetDeviceCodeEhhh+0xff5>
    531a:	48 8d 05 d3 21 01 00 	lea    0x121d3(%rip),%rax        # 174f4 <_ZL4font+0x3194>
    5321:	eb 22                	jmp    5345 <_ZN3PCI13GetDeviceCodeEhhh+0xff5>
    5323:	48 8d 05 d8 21 01 00 	lea    0x121d8(%rip),%rax        # 17502 <_ZL4font+0x31a2>
    532a:	eb 19                	jmp    5345 <_ZN3PCI13GetDeviceCodeEhhh+0xff5>
    532c:	48 8d 05 dc 21 01 00 	lea    0x121dc(%rip),%rax        # 1750f <_ZL4font+0x31af>
    5333:	eb 10                	jmp    5345 <_ZN3PCI13GetDeviceCodeEhhh+0xff5>
    5335:	48 8d 05 e1 21 01 00 	lea    0x121e1(%rip),%rax        # 1751d <_ZL4font+0x31bd>
    533c:	eb 07                	jmp    5345 <_ZN3PCI13GetDeviceCodeEhhh+0xff5>
    533e:	48 8d 05 b8 01 01 00 	lea    0x101b8(%rip),%rax        # 154fd <_ZL4font+0x119d>
    5345:	5d                   	pop    %rbp
    5346:	c3                   	ret
    5347:	90                   	nop

0000000000005348 <_ZN3PCI10InitializeEv>:
    5348:	f3 0f 1e fa          	endbr64
    534c:	55                   	push   %rbp
    534d:	48 89 e5             	mov    %rsp,%rbp
    5350:	48 83 ec 10          	sub    $0x10,%rsp
    5354:	48 89 7d f8          	mov    %rdi,-0x8(%rbp)
    5358:	48 8b 45 f8          	mov    -0x8(%rbp),%rax
    535c:	48 89 c7             	mov    %rax,%rdi
    535f:	e8 3a 0d 00 00       	call   609e <_ZN5ArrayI9DeviceKeyE5clearEv>
    5364:	48 8b 45 f8          	mov    -0x8(%rbp),%rax
    5368:	48 89 c7             	mov    %rax,%rdi
    536b:	e8 ec 06 00 00       	call   5a5c <_ZN3PCI13checkAllBusesEv>
    5370:	90                   	nop
    5371:	c9                   	leave
    5372:	c3                   	ret
    5373:	90                   	nop

0000000000005374 <_ZN3PCI11getVendorIDEhhh>:
    5374:	f3 0f 1e fa          	endbr64
    5378:	55                   	push   %rbp
    5379:	48 89 e5             	mov    %rsp,%rbp
    537c:	48 83 ec 20          	sub    $0x20,%rsp
    5380:	48 89 7d f8          	mov    %rdi,-0x8(%rbp)
    5384:	89 c8                	mov    %ecx,%eax
    5386:	89 f1                	mov    %esi,%ecx
    5388:	88 4d f4             	mov    %cl,-0xc(%rbp)
    538b:	88 55 f0             	mov    %dl,-0x10(%rbp)
    538e:	88 45 ec             	mov    %al,-0x14(%rbp)
    5391:	0f b6 4d ec          	movzbl -0x14(%rbp),%ecx
    5395:	0f b6 55 f0          	movzbl -0x10(%rbp),%edx
    5399:	0f b6 75 f4          	movzbl -0xc(%rbp),%esi
    539d:	48 8b 45 f8          	mov    -0x8(%rbp),%rax
    53a1:	41 b8 00 00 00 00    	mov    $0x0,%r8d
    53a7:	48 89 c7             	mov    %rax,%rdi
    53aa:	e8 4b eb ff ff       	call   3efa <_ZN3PCI14ConfigReadWordEhhhh>
    53af:	c9                   	leave
    53b0:	c3                   	ret
    53b1:	90                   	nop

00000000000053b2 <_ZN3PCI13getHeaderTypeEhhh>:
    53b2:	f3 0f 1e fa          	endbr64
    53b6:	55                   	push   %rbp
    53b7:	48 89 e5             	mov    %rsp,%rbp
    53ba:	48 83 ec 20          	sub    $0x20,%rsp
    53be:	48 89 7d f8          	mov    %rdi,-0x8(%rbp)
    53c2:	89 c8                	mov    %ecx,%eax
    53c4:	89 f1                	mov    %esi,%ecx
    53c6:	88 4d f4             	mov    %cl,-0xc(%rbp)
    53c9:	88 55 f0             	mov    %dl,-0x10(%rbp)
    53cc:	88 45 ec             	mov    %al,-0x14(%rbp)
    53cf:	0f b6 4d ec          	movzbl -0x14(%rbp),%ecx
    53d3:	0f b6 55 f0          	movzbl -0x10(%rbp),%edx
    53d7:	0f b6 75 f4          	movzbl -0xc(%rbp),%esi
    53db:	48 8b 45 f8          	mov    -0x8(%rbp),%rax
    53df:	41 b8 0e 00 00 00    	mov    $0xe,%r8d
    53e5:	48 89 c7             	mov    %rax,%rdi
    53e8:	e8 0d eb ff ff       	call   3efa <_ZN3PCI14ConfigReadWordEhhhh>
    53ed:	c9                   	leave
    53ee:	c3                   	ret
    53ef:	90                   	nop

00000000000053f0 <_ZN3PCI18deviceAlreadyFoundEhhh>:
    53f0:	f3 0f 1e fa          	endbr64
    53f4:	55                   	push   %rbp
    53f5:	48 89 e5             	mov    %rsp,%rbp
    53f8:	48 83 ec 30          	sub    $0x30,%rsp
    53fc:	48 89 7d e8          	mov    %rdi,-0x18(%rbp)
    5400:	89 c8                	mov    %ecx,%eax
    5402:	89 f1                	mov    %esi,%ecx
    5404:	88 4d e4             	mov    %cl,-0x1c(%rbp)
    5407:	88 55 e0             	mov    %dl,-0x20(%rbp)
    540a:	88 45 dc             	mov    %al,-0x24(%rbp)
    540d:	48 c7 45 f8 00 00 00 	movq   $0x0,-0x8(%rbp)
    5414:	00 
    5415:	eb 6f                	jmp    5486 <_ZN3PCI18deviceAlreadyFoundEhhh+0x96>
    5417:	48 8b 45 e8          	mov    -0x18(%rbp),%rax
    541b:	48 8b 55 f8          	mov    -0x8(%rbp),%rdx
    541f:	48 89 d6             	mov    %rdx,%rsi
    5422:	48 89 c7             	mov    %rax,%rdi
    5425:	e8 90 0c 00 00       	call   60ba <_ZN5ArrayI9DeviceKeyEixEm>
    542a:	0f b6 00             	movzbl (%rax),%eax
    542d:	38 45 e4             	cmp    %al,-0x1c(%rbp)
    5430:	75 3f                	jne    5471 <_ZN3PCI18deviceAlreadyFoundEhhh+0x81>
    5432:	48 8b 45 e8          	mov    -0x18(%rbp),%rax
    5436:	48 8b 55 f8          	mov    -0x8(%rbp),%rdx
    543a:	48 89 d6             	mov    %rdx,%rsi
    543d:	48 89 c7             	mov    %rax,%rdi
    5440:	e8 75 0c 00 00       	call   60ba <_ZN5ArrayI9DeviceKeyEixEm>
    5445:	0f b6 40 01          	movzbl 0x1(%rax),%eax
    5449:	38 45 e0             	cmp    %al,-0x20(%rbp)
    544c:	75 23                	jne    5471 <_ZN3PCI18deviceAlreadyFoundEhhh+0x81>
    544e:	48 8b 45 e8          	mov    -0x18(%rbp),%rax
    5452:	48 8b 55 f8          	mov    -0x8(%rbp),%rdx
    5456:	48 89 d6             	mov    %rdx,%rsi
    5459:	48 89 c7             	mov    %rax,%rdi
    545c:	e8 59 0c 00 00       	call   60ba <_ZN5ArrayI9DeviceKeyEixEm>
    5461:	0f b6 40 02          	movzbl 0x2(%rax),%eax
    5465:	38 45 dc             	cmp    %al,-0x24(%rbp)
    5468:	75 07                	jne    5471 <_ZN3PCI18deviceAlreadyFoundEhhh+0x81>
    546a:	b8 01 00 00 00       	mov    $0x1,%eax
    546f:	eb 05                	jmp    5476 <_ZN3PCI18deviceAlreadyFoundEhhh+0x86>
    5471:	b8 00 00 00 00       	mov    $0x0,%eax
    5476:	84 c0                	test   %al,%al
    5478:	74 07                	je     5481 <_ZN3PCI18deviceAlreadyFoundEhhh+0x91>
    547a:	b8 01 00 00 00       	mov    $0x1,%eax
    547f:	eb 18                	jmp    5499 <_ZN3PCI18deviceAlreadyFoundEhhh+0xa9>
    5481:	48 83 45 f8 01       	addq   $0x1,-0x8(%rbp)
    5486:	48 8b 45 e8          	mov    -0x18(%rbp),%rax
    548a:	48 8b 40 08          	mov    0x8(%rax),%rax
    548e:	48 39 45 f8          	cmp    %rax,-0x8(%rbp)
    5492:	72 83                	jb     5417 <_ZN3PCI18deviceAlreadyFoundEhhh+0x27>
    5494:	b8 00 00 00 00       	mov    $0x0,%eax
    5499:	c9                   	leave
    549a:	c3                   	ret
    549b:	90                   	nop

000000000000549c <_ZN3PCI9addDeviceEhhhb>:
    549c:	f3 0f 1e fa          	endbr64
    54a0:	55                   	push   %rbp
    54a1:	48 89 e5             	mov    %rsp,%rbp
    54a4:	48 83 ec 30          	sub    $0x30,%rsp
    54a8:	48 89 7d e8          	mov    %rdi,-0x18(%rbp)
    54ac:	89 c8                	mov    %ecx,%eax
    54ae:	44 89 c7             	mov    %r8d,%edi
    54b1:	89 f1                	mov    %esi,%ecx
    54b3:	88 4d e4             	mov    %cl,-0x1c(%rbp)
    54b6:	88 55 e0             	mov    %dl,-0x20(%rbp)
    54b9:	88 45 dc             	mov    %al,-0x24(%rbp)
    54bc:	89 f8                	mov    %edi,%eax
    54be:	88 45 d8             	mov    %al,-0x28(%rbp)
    54c1:	48 8b 45 e8          	mov    -0x18(%rbp),%rax
    54c5:	0f b6 55 e4          	movzbl -0x1c(%rbp),%edx
    54c9:	88 55 fc             	mov    %dl,-0x4(%rbp)
    54cc:	0f b6 55 e0          	movzbl -0x20(%rbp),%edx
    54d0:	88 55 fd             	mov    %dl,-0x3(%rbp)
    54d3:	0f b6 55 dc          	movzbl -0x24(%rbp),%edx
    54d7:	88 55 fe             	mov    %dl,-0x2(%rbp)
    54da:	0f b6 55 d8          	movzbl -0x28(%rbp),%edx
    54de:	88 55 ff             	mov    %dl,-0x1(%rbp)
    54e1:	48 8d 55 fc          	lea    -0x4(%rbp),%rdx
    54e5:	48 89 d6             	mov    %rdx,%rsi
    54e8:	48 89 c7             	mov    %rax,%rdi
    54eb:	e8 ee 0b 00 00       	call   60de <_ZN5ArrayI9DeviceKeyE9push_backERKS0_>
    54f0:	90                   	nop
    54f1:	c9                   	leave
    54f2:	c3                   	ret
    54f3:	90                   	nop

00000000000054f4 <_ZN3PCI13checkFunctionEhhh>:
    54f4:	f3 0f 1e fa          	endbr64
    54f8:	55                   	push   %rbp
    54f9:	48 89 e5             	mov    %rsp,%rbp
    54fc:	53                   	push   %rbx
    54fd:	48 83 ec 38          	sub    $0x38,%rsp
    5501:	48 89 7d d8          	mov    %rdi,-0x28(%rbp)
    5505:	89 c8                	mov    %ecx,%eax
    5507:	89 f1                	mov    %esi,%ecx
    5509:	88 4d d4             	mov    %cl,-0x2c(%rbp)
    550c:	88 55 d0             	mov    %dl,-0x30(%rbp)
    550f:	88 45 cc             	mov    %al,-0x34(%rbp)
    5512:	0f b6 4d cc          	movzbl -0x34(%rbp),%ecx
    5516:	0f b6 55 d0          	movzbl -0x30(%rbp),%edx
    551a:	0f b6 75 d4          	movzbl -0x2c(%rbp),%esi
    551e:	48 8b 45 d8          	mov    -0x28(%rbp),%rax
    5522:	48 89 c7             	mov    %rax,%rdi
    5525:	e8 c6 fe ff ff       	call   53f0 <_ZN3PCI18deviceAlreadyFoundEhhh>
    552a:	84 c0                	test   %al,%al
    552c:	0f 85 d0 01 00 00    	jne    5702 <_ZN3PCI13checkFunctionEhhh+0x20e>
    5532:	c6 45 ef 00          	movb   $0x0,-0x11(%rbp)
    5536:	0f b6 4d cc          	movzbl -0x34(%rbp),%ecx
    553a:	0f b6 55 d0          	movzbl -0x30(%rbp),%edx
    553e:	0f b6 75 d4          	movzbl -0x2c(%rbp),%esi
    5542:	48 8b 45 d8          	mov    -0x28(%rbp),%rax
    5546:	41 b8 06 00 00 00    	mov    $0x6,%r8d
    554c:	48 89 c7             	mov    %rax,%rdi
    554f:	e8 a6 e9 ff ff       	call   3efa <_ZN3PCI14ConfigReadWordEhhhh>
    5554:	66 c1 e8 04          	shr    $0x4,%ax
    5558:	0f b7 c0             	movzwl %ax,%eax
    555b:	83 e0 01             	and    $0x1,%eax
    555e:	85 c0                	test   %eax,%eax
    5560:	0f 95 c0             	setne  %al
    5563:	84 c0                	test   %al,%al
    5565:	74 7f                	je     55e6 <_ZN3PCI13checkFunctionEhhh+0xf2>
    5567:	0f b6 4d cc          	movzbl -0x34(%rbp),%ecx
    556b:	0f b6 55 d0          	movzbl -0x30(%rbp),%edx
    556f:	0f b6 75 d4          	movzbl -0x2c(%rbp),%esi
    5573:	48 8b 45 d8          	mov    -0x28(%rbp),%rax
    5577:	41 b8 34 00 00 00    	mov    $0x34,%r8d
    557d:	48 89 c7             	mov    %rax,%rdi
    5580:	e8 4b eb ff ff       	call   40d0 <_ZN3PCI14ConfigReadByteEhhhh>
    5585:	88 45 ee             	mov    %al,-0x12(%rbp)
    5588:	eb 56                	jmp    55e0 <_ZN3PCI13checkFunctionEhhh+0xec>
    558a:	0f b6 7d ee          	movzbl -0x12(%rbp),%edi
    558e:	0f b6 4d cc          	movzbl -0x34(%rbp),%ecx
    5592:	0f b6 55 d0          	movzbl -0x30(%rbp),%edx
    5596:	0f b6 75 d4          	movzbl -0x2c(%rbp),%esi
    559a:	48 8b 45 d8          	mov    -0x28(%rbp),%rax
    559e:	41 89 f8             	mov    %edi,%r8d
    55a1:	48 89 c7             	mov    %rax,%rdi
    55a4:	e8 27 eb ff ff       	call   40d0 <_ZN3PCI14ConfigReadByteEhhhh>
    55a9:	88 45 ed             	mov    %al,-0x13(%rbp)
    55ac:	80 7d ed 05          	cmpb   $0x5,-0x13(%rbp)
    55b0:	75 06                	jne    55b8 <_ZN3PCI13checkFunctionEhhh+0xc4>
    55b2:	c6 45 ef 01          	movb   $0x1,-0x11(%rbp)
    55b6:	eb 2e                	jmp    55e6 <_ZN3PCI13checkFunctionEhhh+0xf2>
    55b8:	0f b6 45 ee          	movzbl -0x12(%rbp),%eax
    55bc:	83 c0 01             	add    $0x1,%eax
    55bf:	0f b6 f8             	movzbl %al,%edi
    55c2:	0f b6 4d cc          	movzbl -0x34(%rbp),%ecx
    55c6:	0f b6 55 d0          	movzbl -0x30(%rbp),%edx
    55ca:	0f b6 75 d4          	movzbl -0x2c(%rbp),%esi
    55ce:	48 8b 45 d8          	mov    -0x28(%rbp),%rax
    55d2:	41 89 f8             	mov    %edi,%r8d
    55d5:	48 89 c7             	mov    %rax,%rdi
    55d8:	e8 f3 ea ff ff       	call   40d0 <_ZN3PCI14ConfigReadByteEhhhh>
    55dd:	88 45 ee             	mov    %al,-0x12(%rbp)
    55e0:	80 7d ee 00          	cmpb   $0x0,-0x12(%rbp)
    55e4:	75 a4                	jne    558a <_ZN3PCI13checkFunctionEhhh+0x96>
    55e6:	0f b6 7d ef          	movzbl -0x11(%rbp),%edi
    55ea:	0f b6 4d cc          	movzbl -0x34(%rbp),%ecx
    55ee:	0f b6 55 d0          	movzbl -0x30(%rbp),%edx
    55f2:	0f b6 75 d4          	movzbl -0x2c(%rbp),%esi
    55f6:	48 8b 45 d8          	mov    -0x28(%rbp),%rax
    55fa:	41 89 f8             	mov    %edi,%r8d
    55fd:	48 89 c7             	mov    %rax,%rdi
    5600:	e8 97 fe ff ff       	call   549c <_ZN3PCI9addDeviceEhhhb>
    5605:	0f b6 4d cc          	movzbl -0x34(%rbp),%ecx
    5609:	0f b6 55 d0          	movzbl -0x30(%rbp),%edx
    560d:	0f b6 75 d4          	movzbl -0x2c(%rbp),%esi
    5611:	48 8b 45 d8          	mov    -0x28(%rbp),%rax
    5615:	48 89 c7             	mov    %rax,%rdi
    5618:	e8 57 fd ff ff       	call   5374 <_ZN3PCI11getVendorIDEhhh>
    561d:	66 89 45 ea          	mov    %ax,-0x16(%rbp)
    5621:	66 83 7d ea ff       	cmpw   $0xffff,-0x16(%rbp)
    5626:	0f 84 d9 00 00 00    	je     5705 <_ZN3PCI13checkFunctionEhhh+0x211>
    562c:	0f b6 4d cc          	movzbl -0x34(%rbp),%ecx
    5630:	0f b6 55 d0          	movzbl -0x30(%rbp),%edx
    5634:	0f b6 75 d4          	movzbl -0x2c(%rbp),%esi
    5638:	48 8b 45 d8          	mov    -0x28(%rbp),%rax
    563c:	41 b8 0b 00 00 00    	mov    $0xb,%r8d
    5642:	48 89 c7             	mov    %rax,%rdi
    5645:	e8 b0 e8 ff ff       	call   3efa <_ZN3PCI14ConfigReadWordEhhhh>
    564a:	88 45 e9             	mov    %al,-0x17(%rbp)
    564d:	0f b6 4d cc          	movzbl -0x34(%rbp),%ecx
    5651:	0f b6 55 d0          	movzbl -0x30(%rbp),%edx
    5655:	0f b6 75 d4          	movzbl -0x2c(%rbp),%esi
    5659:	48 8b 45 d8          	mov    -0x28(%rbp),%rax
    565d:	41 b8 0a 00 00 00    	mov    $0xa,%r8d
    5663:	48 89 c7             	mov    %rax,%rdi
    5666:	e8 8f e8 ff ff       	call   3efa <_ZN3PCI14ConfigReadWordEhhhh>
    566b:	88 45 e8             	mov    %al,-0x18(%rbp)
    566e:	0f b6 4d cc          	movzbl -0x34(%rbp),%ecx
    5672:	0f b6 55 d0          	movzbl -0x30(%rbp),%edx
    5676:	0f b6 75 d4          	movzbl -0x2c(%rbp),%esi
    567a:	48 8b 45 d8          	mov    -0x28(%rbp),%rax
    567e:	41 b8 09 00 00 00    	mov    $0x9,%r8d
    5684:	48 89 c7             	mov    %rax,%rdi
    5687:	e8 6e e8 ff ff       	call   3efa <_ZN3PCI14ConfigReadWordEhhhh>
    568c:	88 45 e7             	mov    %al,-0x19(%rbp)
    568f:	48 8b 05 6a 12 02 00 	mov    0x2126a(%rip),%rax        # 26900 <ks>
    5696:	48 89 c3             	mov    %rax,%rbx
    5699:	0f b6 4d e7          	movzbl -0x19(%rbp),%ecx
    569d:	0f b6 55 e8          	movzbl -0x18(%rbp),%edx
    56a1:	0f b6 75 e9          	movzbl -0x17(%rbp),%esi
    56a5:	48 8b 45 d8          	mov    -0x28(%rbp),%rax
    56a9:	48 89 c7             	mov    %rax,%rdi
    56ac:	e8 9f ec ff ff       	call   4350 <_ZN3PCI13GetDeviceCodeEhhh>
    56b1:	ba ff ff ff ff       	mov    $0xffffffff,%edx
    56b6:	48 89 c6             	mov    %rax,%rsi
    56b9:	48 89 df             	mov    %rbx,%rdi
    56bc:	e8 79 cf ff ff       	call   263a <_ZN12BasicConsole7PrintlnEPKcj>
    56c1:	80 7d e9 06          	cmpb   $0x6,-0x17(%rbp)
    56c5:	75 3f                	jne    5706 <_ZN3PCI13checkFunctionEhhh+0x212>
    56c7:	80 7d e8 04          	cmpb   $0x4,-0x18(%rbp)
    56cb:	75 39                	jne    5706 <_ZN3PCI13checkFunctionEhhh+0x212>
    56cd:	0f b6 4d cc          	movzbl -0x34(%rbp),%ecx
    56d1:	0f b6 55 d0          	movzbl -0x30(%rbp),%edx
    56d5:	0f b6 75 d4          	movzbl -0x2c(%rbp),%esi
    56d9:	48 8b 45 d8          	mov    -0x28(%rbp),%rax
    56dd:	41 b8 19 00 00 00    	mov    $0x19,%r8d
    56e3:	48 89 c7             	mov    %rax,%rdi
    56e6:	e8 0f e8 ff ff       	call   3efa <_ZN3PCI14ConfigReadWordEhhhh>
    56eb:	88 45 e6             	mov    %al,-0x1a(%rbp)
    56ee:	0f b6 55 e6          	movzbl -0x1a(%rbp),%edx
    56f2:	48 8b 45 d8          	mov    -0x28(%rbp),%rax
    56f6:	89 d6                	mov    %edx,%esi
    56f8:	48 89 c7             	mov    %rax,%rdi
    56fb:	e8 16 03 00 00       	call   5a16 <_ZN3PCI8checkBusEh>
    5700:	eb 04                	jmp    5706 <_ZN3PCI13checkFunctionEhhh+0x212>
    5702:	90                   	nop
    5703:	eb 01                	jmp    5706 <_ZN3PCI13checkFunctionEhhh+0x212>
    5705:	90                   	nop
    5706:	48 8b 5d f8          	mov    -0x8(%rbp),%rbx
    570a:	c9                   	leave
    570b:	c3                   	ret

000000000000570c <_ZN3PCI10GetDevicesEv>:
    570c:	f3 0f 1e fa          	endbr64
    5710:	55                   	push   %rbp
    5711:	48 89 e5             	mov    %rsp,%rbp
    5714:	48 89 7d f8          	mov    %rdi,-0x8(%rbp)
    5718:	48 89 75 f0          	mov    %rsi,-0x10(%rbp)
    571c:	48 8b 4d f8          	mov    -0x8(%rbp),%rcx
    5720:	48 8b 75 f0          	mov    -0x10(%rbp),%rsi
    5724:	48 8b 06             	mov    (%rsi),%rax
    5727:	48 8b 56 08          	mov    0x8(%rsi),%rdx
    572b:	48 89 01             	mov    %rax,(%rcx)
    572e:	48 89 51 08          	mov    %rdx,0x8(%rcx)
    5732:	48 8b 46 10          	mov    0x10(%rsi),%rax
    5736:	48 89 41 10          	mov    %rax,0x10(%rcx)
    573a:	48 8b 45 f8          	mov    -0x8(%rbp),%rax
    573e:	5d                   	pop    %rbp
    573f:	c3                   	ret

0000000000005740 <_ZN3PCI9EnableMSIEhhhh>:
    5740:	f3 0f 1e fa          	endbr64
    5744:	55                   	push   %rbp
    5745:	48 89 e5             	mov    %rsp,%rbp
    5748:	48 83 ec 40          	sub    $0x40,%rsp
    574c:	48 89 7d d8          	mov    %rdi,-0x28(%rbp)
    5750:	89 c8                	mov    %ecx,%eax
    5752:	44 89 c7             	mov    %r8d,%edi
    5755:	89 f1                	mov    %esi,%ecx
    5757:	88 4d d4             	mov    %cl,-0x2c(%rbp)
    575a:	88 55 d0             	mov    %dl,-0x30(%rbp)
    575d:	88 45 cc             	mov    %al,-0x34(%rbp)
    5760:	89 f8                	mov    %edi,%eax
    5762:	88 45 c8             	mov    %al,-0x38(%rbp)
    5765:	0f b6 4d cc          	movzbl -0x34(%rbp),%ecx
    5769:	0f b6 55 d0          	movzbl -0x30(%rbp),%edx
    576d:	0f b6 75 d4          	movzbl -0x2c(%rbp),%esi
    5771:	48 8b 45 d8          	mov    -0x28(%rbp),%rax
    5775:	41 b8 06 00 00 00    	mov    $0x6,%r8d
    577b:	48 89 c7             	mov    %rax,%rdi
    577e:	e8 77 e7 ff ff       	call   3efa <_ZN3PCI14ConfigReadWordEhhhh>
    5783:	66 89 45 f6          	mov    %ax,-0xa(%rbp)
    5787:	0f b7 45 f6          	movzwl -0xa(%rbp),%eax
    578b:	83 e0 10             	and    $0x10,%eax
    578e:	85 c0                	test   %eax,%eax
    5790:	75 0a                	jne    579c <_ZN3PCI9EnableMSIEhhhh+0x5c>
    5792:	b8 00 00 00 00       	mov    $0x0,%eax
    5797:	e9 a0 01 00 00       	jmp    593c <_ZN3PCI9EnableMSIEhhhh+0x1fc>
    579c:	0f b6 4d cc          	movzbl -0x34(%rbp),%ecx
    57a0:	0f b6 55 d0          	movzbl -0x30(%rbp),%edx
    57a4:	0f b6 75 d4          	movzbl -0x2c(%rbp),%esi
    57a8:	48 8b 45 d8          	mov    -0x28(%rbp),%rax
    57ac:	41 b8 34 00 00 00    	mov    $0x34,%r8d
    57b2:	48 89 c7             	mov    %rax,%rdi
    57b5:	e8 16 e9 ff ff       	call   40d0 <_ZN3PCI14ConfigReadByteEhhhh>
    57ba:	88 45 ff             	mov    %al,-0x1(%rbp)
    57bd:	eb 50                	jmp    580f <_ZN3PCI9EnableMSIEhhhh+0xcf>
    57bf:	0f b6 7d ff          	movzbl -0x1(%rbp),%edi
    57c3:	0f b6 4d cc          	movzbl -0x34(%rbp),%ecx
    57c7:	0f b6 55 d0          	movzbl -0x30(%rbp),%edx
    57cb:	0f b6 75 d4          	movzbl -0x2c(%rbp),%esi
    57cf:	48 8b 45 d8          	mov    -0x28(%rbp),%rax
    57d3:	41 89 f8             	mov    %edi,%r8d
    57d6:	48 89 c7             	mov    %rax,%rdi
    57d9:	e8 f2 e8 ff ff       	call   40d0 <_ZN3PCI14ConfigReadByteEhhhh>
    57de:	88 45 f5             	mov    %al,-0xb(%rbp)
    57e1:	80 7d f5 05          	cmpb   $0x5,-0xb(%rbp)
    57e5:	74 30                	je     5817 <_ZN3PCI9EnableMSIEhhhh+0xd7>
    57e7:	0f b6 45 ff          	movzbl -0x1(%rbp),%eax
    57eb:	83 c0 01             	add    $0x1,%eax
    57ee:	0f b6 f8             	movzbl %al,%edi
    57f1:	0f b6 4d cc          	movzbl -0x34(%rbp),%ecx
    57f5:	0f b6 55 d0          	movzbl -0x30(%rbp),%edx
    57f9:	0f b6 75 d4          	movzbl -0x2c(%rbp),%esi
    57fd:	48 8b 45 d8          	mov    -0x28(%rbp),%rax
    5801:	41 89 f8             	mov    %edi,%r8d
    5804:	48 89 c7             	mov    %rax,%rdi
    5807:	e8 c4 e8 ff ff       	call   40d0 <_ZN3PCI14ConfigReadByteEhhhh>
    580c:	88 45 ff             	mov    %al,-0x1(%rbp)
    580f:	80 7d ff 00          	cmpb   $0x0,-0x1(%rbp)
    5813:	75 aa                	jne    57bf <_ZN3PCI9EnableMSIEhhhh+0x7f>
    5815:	eb 01                	jmp    5818 <_ZN3PCI9EnableMSIEhhhh+0xd8>
    5817:	90                   	nop
    5818:	80 7d ff 00          	cmpb   $0x0,-0x1(%rbp)
    581c:	75 0a                	jne    5828 <_ZN3PCI9EnableMSIEhhhh+0xe8>
    581e:	b8 00 00 00 00       	mov    $0x0,%eax
    5823:	e9 14 01 00 00       	jmp    593c <_ZN3PCI9EnableMSIEhhhh+0x1fc>
    5828:	0f b6 45 ff          	movzbl -0x1(%rbp),%eax
    582c:	83 c0 02             	add    $0x2,%eax
    582f:	0f b6 f8             	movzbl %al,%edi
    5832:	0f b6 4d cc          	movzbl -0x34(%rbp),%ecx
    5836:	0f b6 55 d0          	movzbl -0x30(%rbp),%edx
    583a:	0f b6 75 d4          	movzbl -0x2c(%rbp),%esi
    583e:	48 8b 45 d8          	mov    -0x28(%rbp),%rax
    5842:	41 89 f8             	mov    %edi,%r8d
    5845:	48 89 c7             	mov    %rax,%rdi
    5848:	e8 ad e6 ff ff       	call   3efa <_ZN3PCI14ConfigReadWordEhhhh>
    584d:	66 89 45 f2          	mov    %ax,-0xe(%rbp)
    5851:	0f b7 45 f2          	movzwl -0xe(%rbp),%eax
    5855:	25 80 00 00 00       	and    $0x80,%eax
    585a:	85 c0                	test   %eax,%eax
    585c:	0f 95 c0             	setne  %al
    585f:	88 45 f1             	mov    %al,-0xf(%rbp)
    5862:	0f b6 45 ff          	movzbl -0x1(%rbp),%eax
    5866:	83 c0 04             	add    $0x4,%eax
    5869:	89 45 f8             	mov    %eax,-0x8(%rbp)
    586c:	c7 45 ec 00 00 e0 fe 	movl   $0xfee00000,-0x14(%rbp)
    5873:	8b 45 f8             	mov    -0x8(%rbp),%eax
    5876:	0f b6 f8             	movzbl %al,%edi
    5879:	0f b6 4d cc          	movzbl -0x34(%rbp),%ecx
    587d:	0f b6 55 d0          	movzbl -0x30(%rbp),%edx
    5881:	0f b6 75 d4          	movzbl -0x2c(%rbp),%esi
    5885:	44 8b 45 ec          	mov    -0x14(%rbp),%r8d
    5889:	48 8b 45 d8          	mov    -0x28(%rbp),%rax
    588d:	45 89 c1             	mov    %r8d,%r9d
    5890:	41 89 f8             	mov    %edi,%r8d
    5893:	48 89 c7             	mov    %rax,%rdi
    5896:	e8 bd e7 ff ff       	call   4058 <_ZN3PCI16ConfigWriteDWordEhhhhj>
    589b:	83 45 f8 04          	addl   $0x4,-0x8(%rbp)
    589f:	80 7d f1 00          	cmpb   $0x0,-0xf(%rbp)
    58a3:	74 2b                	je     58d0 <_ZN3PCI9EnableMSIEhhhh+0x190>
    58a5:	8b 45 f8             	mov    -0x8(%rbp),%eax
    58a8:	0f b6 f8             	movzbl %al,%edi
    58ab:	0f b6 4d cc          	movzbl -0x34(%rbp),%ecx
    58af:	0f b6 55 d0          	movzbl -0x30(%rbp),%edx
    58b3:	0f b6 75 d4          	movzbl -0x2c(%rbp),%esi
    58b7:	48 8b 45 d8          	mov    -0x28(%rbp),%rax
    58bb:	41 b9 00 00 00 00    	mov    $0x0,%r9d
    58c1:	41 89 f8             	mov    %edi,%r8d
    58c4:	48 89 c7             	mov    %rax,%rdi
    58c7:	e8 8c e7 ff ff       	call   4058 <_ZN3PCI16ConfigWriteDWordEhhhhj>
    58cc:	83 45 f8 04          	addl   $0x4,-0x8(%rbp)
    58d0:	0f b6 45 c8          	movzbl -0x38(%rbp),%eax
    58d4:	66 89 45 ea          	mov    %ax,-0x16(%rbp)
    58d8:	44 0f b7 45 ea       	movzwl -0x16(%rbp),%r8d
    58dd:	8b 45 f8             	mov    -0x8(%rbp),%eax
    58e0:	0f b6 f8             	movzbl %al,%edi
    58e3:	0f b6 4d cc          	movzbl -0x34(%rbp),%ecx
    58e7:	0f b6 55 d0          	movzbl -0x30(%rbp),%edx
    58eb:	0f b6 75 d4          	movzbl -0x2c(%rbp),%esi
    58ef:	48 8b 45 d8          	mov    -0x28(%rbp),%rax
    58f3:	45 89 c1             	mov    %r8d,%r9d
    58f6:	41 89 f8             	mov    %edi,%r8d
    58f9:	48 89 c7             	mov    %rax,%rdi
    58fc:	e8 95 e6 ff ff       	call   3f96 <_ZN3PCI15ConfigWriteWordEhhhht>
    5901:	83 45 f8 02          	addl   $0x2,-0x8(%rbp)
    5905:	66 83 4d f2 01       	orw    $0x1,-0xe(%rbp)
    590a:	44 0f b7 45 f2       	movzwl -0xe(%rbp),%r8d
    590f:	0f b6 45 ff          	movzbl -0x1(%rbp),%eax
    5913:	83 c0 02             	add    $0x2,%eax
    5916:	0f b6 f8             	movzbl %al,%edi
    5919:	0f b6 4d cc          	movzbl -0x34(%rbp),%ecx
    591d:	0f b6 55 d0          	movzbl -0x30(%rbp),%edx
    5921:	0f b6 75 d4          	movzbl -0x2c(%rbp),%esi
    5925:	48 8b 45 d8          	mov    -0x28(%rbp),%rax
    5929:	45 89 c1             	mov    %r8d,%r9d
    592c:	41 89 f8             	mov    %edi,%r8d
    592f:	48 89 c7             	mov    %rax,%rdi
    5932:	e8 5f e6 ff ff       	call   3f96 <_ZN3PCI15ConfigWriteWordEhhhht>
    5937:	b8 01 00 00 00       	mov    $0x1,%eax
    593c:	c9                   	leave
    593d:	c3                   	ret

000000000000593e <_ZN3PCI11checkDeviceEhh>:
    593e:	f3 0f 1e fa          	endbr64
    5942:	55                   	push   %rbp
    5943:	48 89 e5             	mov    %rsp,%rbp
    5946:	48 83 ec 20          	sub    $0x20,%rsp
    594a:	48 89 7d e8          	mov    %rdi,-0x18(%rbp)
    594e:	89 f1                	mov    %esi,%ecx
    5950:	89 d0                	mov    %edx,%eax
    5952:	89 ca                	mov    %ecx,%edx
    5954:	88 55 e4             	mov    %dl,-0x1c(%rbp)
    5957:	88 45 e0             	mov    %al,-0x20(%rbp)
    595a:	c6 45 ff 00          	movb   $0x0,-0x1(%rbp)
    595e:	0f b6 4d ff          	movzbl -0x1(%rbp),%ecx
    5962:	0f b6 55 e0          	movzbl -0x20(%rbp),%edx
    5966:	0f b6 75 e4          	movzbl -0x1c(%rbp),%esi
    596a:	48 8b 45 e8          	mov    -0x18(%rbp),%rax
    596e:	48 89 c7             	mov    %rax,%rdi
    5971:	e8 fe f9 ff ff       	call   5374 <_ZN3PCI11getVendorIDEhhh>
    5976:	66 89 45 fc          	mov    %ax,-0x4(%rbp)
    597a:	66 83 7d fc ff       	cmpw   $0xffff,-0x4(%rbp)
    597f:	0f 84 8e 00 00 00    	je     5a13 <_ZN3PCI11checkDeviceEhh+0xd5>
    5985:	0f b6 4d ff          	movzbl -0x1(%rbp),%ecx
    5989:	0f b6 55 e0          	movzbl -0x20(%rbp),%edx
    598d:	0f b6 75 e4          	movzbl -0x1c(%rbp),%esi
    5991:	48 8b 45 e8          	mov    -0x18(%rbp),%rax
    5995:	48 89 c7             	mov    %rax,%rdi
    5998:	e8 57 fb ff ff       	call   54f4 <_ZN3PCI13checkFunctionEhhh>
    599d:	0f b6 4d ff          	movzbl -0x1(%rbp),%ecx
    59a1:	0f b6 55 e0          	movzbl -0x20(%rbp),%edx
    59a5:	0f b6 75 e4          	movzbl -0x1c(%rbp),%esi
    59a9:	48 8b 45 e8          	mov    -0x18(%rbp),%rax
    59ad:	48 89 c7             	mov    %rax,%rdi
    59b0:	e8 fd f9 ff ff       	call   53b2 <_ZN3PCI13getHeaderTypeEhhh>
    59b5:	88 45 fb             	mov    %al,-0x5(%rbp)
    59b8:	0f b6 45 fb          	movzbl -0x5(%rbp),%eax
    59bc:	84 c0                	test   %al,%al
    59be:	79 54                	jns    5a14 <_ZN3PCI11checkDeviceEhh+0xd6>
    59c0:	c6 45 ff 01          	movb   $0x1,-0x1(%rbp)
    59c4:	eb 45                	jmp    5a0b <_ZN3PCI11checkDeviceEhh+0xcd>
    59c6:	0f b6 4d ff          	movzbl -0x1(%rbp),%ecx
    59ca:	0f b6 55 e0          	movzbl -0x20(%rbp),%edx
    59ce:	0f b6 75 e4          	movzbl -0x1c(%rbp),%esi
    59d2:	48 8b 45 e8          	mov    -0x18(%rbp),%rax
    59d6:	48 89 c7             	mov    %rax,%rdi
    59d9:	e8 96 f9 ff ff       	call   5374 <_ZN3PCI11getVendorIDEhhh>
    59de:	66 83 f8 ff          	cmp    $0xffff,%ax
    59e2:	0f 95 c0             	setne  %al
    59e5:	84 c0                	test   %al,%al
    59e7:	74 18                	je     5a01 <_ZN3PCI11checkDeviceEhh+0xc3>
    59e9:	0f b6 4d ff          	movzbl -0x1(%rbp),%ecx
    59ed:	0f b6 55 e0          	movzbl -0x20(%rbp),%edx
    59f1:	0f b6 75 e4          	movzbl -0x1c(%rbp),%esi
    59f5:	48 8b 45 e8          	mov    -0x18(%rbp),%rax
    59f9:	48 89 c7             	mov    %rax,%rdi
    59fc:	e8 f3 fa ff ff       	call   54f4 <_ZN3PCI13checkFunctionEhhh>
    5a01:	0f b6 45 ff          	movzbl -0x1(%rbp),%eax
    5a05:	83 c0 01             	add    $0x1,%eax
    5a08:	88 45 ff             	mov    %al,-0x1(%rbp)
    5a0b:	80 7d ff 07          	cmpb   $0x7,-0x1(%rbp)
    5a0f:	76 b5                	jbe    59c6 <_ZN3PCI11checkDeviceEhh+0x88>
    5a11:	eb 01                	jmp    5a14 <_ZN3PCI11checkDeviceEhh+0xd6>
    5a13:	90                   	nop
    5a14:	c9                   	leave
    5a15:	c3                   	ret

0000000000005a16 <_ZN3PCI8checkBusEh>:
    5a16:	f3 0f 1e fa          	endbr64
    5a1a:	55                   	push   %rbp
    5a1b:	48 89 e5             	mov    %rsp,%rbp
    5a1e:	48 83 ec 20          	sub    $0x20,%rsp
    5a22:	48 89 7d e8          	mov    %rdi,-0x18(%rbp)
    5a26:	89 f0                	mov    %esi,%eax
    5a28:	88 45 e4             	mov    %al,-0x1c(%rbp)
    5a2b:	c6 45 ff 00          	movb   $0x0,-0x1(%rbp)
    5a2f:	eb 20                	jmp    5a51 <_ZN3PCI8checkBusEh+0x3b>
    5a31:	0f b6 55 ff          	movzbl -0x1(%rbp),%edx
    5a35:	0f b6 4d e4          	movzbl -0x1c(%rbp),%ecx
    5a39:	48 8b 45 e8          	mov    -0x18(%rbp),%rax
    5a3d:	89 ce                	mov    %ecx,%esi
    5a3f:	48 89 c7             	mov    %rax,%rdi
    5a42:	e8 f7 fe ff ff       	call   593e <_ZN3PCI11checkDeviceEhh>
    5a47:	0f b6 45 ff          	movzbl -0x1(%rbp),%eax
    5a4b:	83 c0 01             	add    $0x1,%eax
    5a4e:	88 45 ff             	mov    %al,-0x1(%rbp)
    5a51:	80 7d ff 1f          	cmpb   $0x1f,-0x1(%rbp)
    5a55:	76 da                	jbe    5a31 <_ZN3PCI8checkBusEh+0x1b>
    5a57:	90                   	nop
    5a58:	90                   	nop
    5a59:	c9                   	leave
    5a5a:	c3                   	ret
    5a5b:	90                   	nop

0000000000005a5c <_ZN3PCI13checkAllBusesEv>:
    5a5c:	f3 0f 1e fa          	endbr64
    5a60:	55                   	push   %rbp
    5a61:	48 89 e5             	mov    %rsp,%rbp
    5a64:	48 83 ec 10          	sub    $0x10,%rsp
    5a68:	48 89 7d f8          	mov    %rdi,-0x8(%rbp)
    5a6c:	48 8b 45 f8          	mov    -0x8(%rbp),%rax
    5a70:	be 00 00 00 00       	mov    $0x0,%esi
    5a75:	48 89 c7             	mov    %rax,%rdi
    5a78:	e8 99 ff ff ff       	call   5a16 <_ZN3PCI8checkBusEh>
    5a7d:	90                   	nop
    5a7e:	c9                   	leave
    5a7f:	c3                   	ret

0000000000005a80 <_ZN10PCI_Header10SetIOSpaceEb>:
    5a80:	f3 0f 1e fa          	endbr64
    5a84:	55                   	push   %rbp
    5a85:	48 89 e5             	mov    %rsp,%rbp
    5a88:	48 89 7d f8          	mov    %rdi,-0x8(%rbp)
    5a8c:	89 f0                	mov    %esi,%eax
    5a8e:	88 45 f4             	mov    %al,-0xc(%rbp)
    5a91:	80 7d f4 00          	cmpb   $0x0,-0xc(%rbp)
    5a95:	74 17                	je     5aae <_ZN10PCI_Header10SetIOSpaceEb+0x2e>
    5a97:	48 8b 45 f8          	mov    -0x8(%rbp),%rax
    5a9b:	0f b7 40 04          	movzwl 0x4(%rax),%eax
    5a9f:	83 c8 01             	or     $0x1,%eax
    5aa2:	89 c2                	mov    %eax,%edx
    5aa4:	48 8b 45 f8          	mov    -0x8(%rbp),%rax
    5aa8:	66 89 50 04          	mov    %dx,0x4(%rax)
    5aac:	eb 15                	jmp    5ac3 <_ZN10PCI_Header10SetIOSpaceEb+0x43>
    5aae:	48 8b 45 f8          	mov    -0x8(%rbp),%rax
    5ab2:	0f b7 40 04          	movzwl 0x4(%rax),%eax
    5ab6:	83 e0 fe             	and    $0xfffffffe,%eax
    5ab9:	89 c2                	mov    %eax,%edx
    5abb:	48 8b 45 f8          	mov    -0x8(%rbp),%rax
    5abf:	66 89 50 04          	mov    %dx,0x4(%rax)
    5ac3:	90                   	nop
    5ac4:	5d                   	pop    %rbp
    5ac5:	c3                   	ret

0000000000005ac6 <_ZN10PCI_Header7IOSpaceEv>:
    5ac6:	f3 0f 1e fa          	endbr64
    5aca:	55                   	push   %rbp
    5acb:	48 89 e5             	mov    %rsp,%rbp
    5ace:	48 89 7d f8          	mov    %rdi,-0x8(%rbp)
    5ad2:	48 8b 45 f8          	mov    -0x8(%rbp),%rax
    5ad6:	0f b7 40 04          	movzwl 0x4(%rax),%eax
    5ada:	0f b7 c0             	movzwl %ax,%eax
    5add:	83 e0 01             	and    $0x1,%eax
    5ae0:	85 c0                	test   %eax,%eax
    5ae2:	0f 95 c0             	setne  %al
    5ae5:	5d                   	pop    %rbp
    5ae6:	c3                   	ret
    5ae7:	90                   	nop

0000000000005ae8 <_ZN10PCI_Header14SetMemorySpaceEb>:
    5ae8:	f3 0f 1e fa          	endbr64
    5aec:	55                   	push   %rbp
    5aed:	48 89 e5             	mov    %rsp,%rbp
    5af0:	48 89 7d f8          	mov    %rdi,-0x8(%rbp)
    5af4:	89 f0                	mov    %esi,%eax
    5af6:	88 45 f4             	mov    %al,-0xc(%rbp)
    5af9:	80 7d f4 00          	cmpb   $0x0,-0xc(%rbp)
    5afd:	74 17                	je     5b16 <_ZN10PCI_Header14SetMemorySpaceEb+0x2e>
    5aff:	48 8b 45 f8          	mov    -0x8(%rbp),%rax
    5b03:	0f b7 40 04          	movzwl 0x4(%rax),%eax
    5b07:	83 c8 02             	or     $0x2,%eax
    5b0a:	89 c2                	mov    %eax,%edx
    5b0c:	48 8b 45 f8          	mov    -0x8(%rbp),%rax
    5b10:	66 89 50 04          	mov    %dx,0x4(%rax)
    5b14:	eb 15                	jmp    5b2b <_ZN10PCI_Header14SetMemorySpaceEb+0x43>
    5b16:	48 8b 45 f8          	mov    -0x8(%rbp),%rax
    5b1a:	0f b7 40 04          	movzwl 0x4(%rax),%eax
    5b1e:	83 e0 fd             	and    $0xfffffffd,%eax
    5b21:	89 c2                	mov    %eax,%edx
    5b23:	48 8b 45 f8          	mov    -0x8(%rbp),%rax
    5b27:	66 89 50 04          	mov    %dx,0x4(%rax)
    5b2b:	90                   	nop
    5b2c:	5d                   	pop    %rbp
    5b2d:	c3                   	ret

0000000000005b2e <_ZN10PCI_Header11MemorySpaceEv>:
    5b2e:	f3 0f 1e fa          	endbr64
    5b32:	55                   	push   %rbp
    5b33:	48 89 e5             	mov    %rsp,%rbp
    5b36:	48 89 7d f8          	mov    %rdi,-0x8(%rbp)
    5b3a:	48 8b 45 f8          	mov    -0x8(%rbp),%rax
    5b3e:	0f b7 40 04          	movzwl 0x4(%rax),%eax
    5b42:	0f b7 c0             	movzwl %ax,%eax
    5b45:	83 e0 02             	and    $0x2,%eax
    5b48:	85 c0                	test   %eax,%eax
    5b4a:	0f 95 c0             	setne  %al
    5b4d:	5d                   	pop    %rbp
    5b4e:	c3                   	ret
    5b4f:	90                   	nop

0000000000005b50 <_ZN10PCI_Header12SetBusMasterEb>:
    5b50:	f3 0f 1e fa          	endbr64
    5b54:	55                   	push   %rbp
    5b55:	48 89 e5             	mov    %rsp,%rbp
    5b58:	48 89 7d f8          	mov    %rdi,-0x8(%rbp)
    5b5c:	89 f0                	mov    %esi,%eax
    5b5e:	88 45 f4             	mov    %al,-0xc(%rbp)
    5b61:	80 7d f4 00          	cmpb   $0x0,-0xc(%rbp)
    5b65:	74 17                	je     5b7e <_ZN10PCI_Header12SetBusMasterEb+0x2e>
    5b67:	48 8b 45 f8          	mov    -0x8(%rbp),%rax
    5b6b:	0f b7 40 04          	movzwl 0x4(%rax),%eax
    5b6f:	83 c8 04             	or     $0x4,%eax
    5b72:	89 c2                	mov    %eax,%edx
    5b74:	48 8b 45 f8          	mov    -0x8(%rbp),%rax
    5b78:	66 89 50 04          	mov    %dx,0x4(%rax)
    5b7c:	eb 15                	jmp    5b93 <_ZN10PCI_Header12SetBusMasterEb+0x43>
    5b7e:	48 8b 45 f8          	mov    -0x8(%rbp),%rax
    5b82:	0f b7 40 04          	movzwl 0x4(%rax),%eax
    5b86:	83 e0 fb             	and    $0xfffffffb,%eax
    5b89:	89 c2                	mov    %eax,%edx
    5b8b:	48 8b 45 f8          	mov    -0x8(%rbp),%rax
    5b8f:	66 89 50 04          	mov    %dx,0x4(%rax)
    5b93:	90                   	nop
    5b94:	5d                   	pop    %rbp
    5b95:	c3                   	ret

0000000000005b96 <_ZN10PCI_Header9BusMasterEv>:
    5b96:	f3 0f 1e fa          	endbr64
    5b9a:	55                   	push   %rbp
    5b9b:	48 89 e5             	mov    %rsp,%rbp
    5b9e:	48 89 7d f8          	mov    %rdi,-0x8(%rbp)
    5ba2:	48 8b 45 f8          	mov    -0x8(%rbp),%rax
    5ba6:	0f b7 40 04          	movzwl 0x4(%rax),%eax
    5baa:	0f b7 c0             	movzwl %ax,%eax
    5bad:	83 e0 04             	and    $0x4,%eax
    5bb0:	85 c0                	test   %eax,%eax
    5bb2:	0f 95 c0             	setne  %al
    5bb5:	5d                   	pop    %rbp
    5bb6:	c3                   	ret
    5bb7:	90                   	nop

0000000000005bb8 <_ZN10PCI_Header13SpecialCyclesEv>:
    5bb8:	f3 0f 1e fa          	endbr64
    5bbc:	55                   	push   %rbp
    5bbd:	48 89 e5             	mov    %rsp,%rbp
    5bc0:	48 89 7d f8          	mov    %rdi,-0x8(%rbp)
    5bc4:	48 8b 45 f8          	mov    -0x8(%rbp),%rax
    5bc8:	0f b7 40 04          	movzwl 0x4(%rax),%eax
    5bcc:	0f b7 c0             	movzwl %ax,%eax
    5bcf:	83 e0 08             	and    $0x8,%eax
    5bd2:	85 c0                	test   %eax,%eax
    5bd4:	0f 95 c0             	setne  %al
    5bd7:	5d                   	pop    %rbp
    5bd8:	c3                   	ret
    5bd9:	90                   	nop

0000000000005bda <_ZN10PCI_Header8MemWriteEv>:
    5bda:	f3 0f 1e fa          	endbr64
    5bde:	55                   	push   %rbp
    5bdf:	48 89 e5             	mov    %rsp,%rbp
    5be2:	48 89 7d f8          	mov    %rdi,-0x8(%rbp)
    5be6:	48 8b 45 f8          	mov    -0x8(%rbp),%rax
    5bea:	0f b7 40 04          	movzwl 0x4(%rax),%eax
    5bee:	0f b7 c0             	movzwl %ax,%eax
    5bf1:	83 e0 10             	and    $0x10,%eax
    5bf4:	85 c0                	test   %eax,%eax
    5bf6:	0f 95 c0             	setne  %al
    5bf9:	5d                   	pop    %rbp
    5bfa:	c3                   	ret
    5bfb:	90                   	nop

0000000000005bfc <_ZN10PCI_Header15VGAPaletteSnoopEv>:
    5bfc:	f3 0f 1e fa          	endbr64
    5c00:	55                   	push   %rbp
    5c01:	48 89 e5             	mov    %rsp,%rbp
    5c04:	48 89 7d f8          	mov    %rdi,-0x8(%rbp)
    5c08:	48 8b 45 f8          	mov    -0x8(%rbp),%rax
    5c0c:	0f b7 40 04          	movzwl 0x4(%rax),%eax
    5c10:	0f b7 c0             	movzwl %ax,%eax
    5c13:	83 e0 20             	and    $0x20,%eax
    5c16:	85 c0                	test   %eax,%eax
    5c18:	0f 95 c0             	setne  %al
    5c1b:	5d                   	pop    %rbp
    5c1c:	c3                   	ret
    5c1d:	90                   	nop

0000000000005c1e <_ZN10PCI_Header22SetParityErrorResponseEb>:
    5c1e:	f3 0f 1e fa          	endbr64
    5c22:	55                   	push   %rbp
    5c23:	48 89 e5             	mov    %rsp,%rbp
    5c26:	48 89 7d f8          	mov    %rdi,-0x8(%rbp)
    5c2a:	89 f0                	mov    %esi,%eax
    5c2c:	88 45 f4             	mov    %al,-0xc(%rbp)
    5c2f:	80 7d f4 00          	cmpb   $0x0,-0xc(%rbp)
    5c33:	74 17                	je     5c4c <_ZN10PCI_Header22SetParityErrorResponseEb+0x2e>
    5c35:	48 8b 45 f8          	mov    -0x8(%rbp),%rax
    5c39:	0f b7 40 04          	movzwl 0x4(%rax),%eax
    5c3d:	83 c8 40             	or     $0x40,%eax
    5c40:	89 c2                	mov    %eax,%edx
    5c42:	48 8b 45 f8          	mov    -0x8(%rbp),%rax
    5c46:	66 89 50 04          	mov    %dx,0x4(%rax)
    5c4a:	eb 15                	jmp    5c61 <_ZN10PCI_Header22SetParityErrorResponseEb+0x43>
    5c4c:	48 8b 45 f8          	mov    -0x8(%rbp),%rax
    5c50:	0f b7 40 04          	movzwl 0x4(%rax),%eax
    5c54:	83 e0 bf             	and    $0xffffffbf,%eax
    5c57:	89 c2                	mov    %eax,%edx
    5c59:	48 8b 45 f8          	mov    -0x8(%rbp),%rax
    5c5d:	66 89 50 04          	mov    %dx,0x4(%rax)
    5c61:	90                   	nop
    5c62:	5d                   	pop    %rbp
    5c63:	c3                   	ret

0000000000005c64 <_ZN10PCI_Header19ParityErrorResponseEv>:
    5c64:	f3 0f 1e fa          	endbr64
    5c68:	55                   	push   %rbp
    5c69:	48 89 e5             	mov    %rsp,%rbp
    5c6c:	48 89 7d f8          	mov    %rdi,-0x8(%rbp)
    5c70:	48 8b 45 f8          	mov    -0x8(%rbp),%rax
    5c74:	0f b7 40 04          	movzwl 0x4(%rax),%eax
    5c78:	0f b7 c0             	movzwl %ax,%eax
    5c7b:	83 e0 40             	and    $0x40,%eax
    5c7e:	85 c0                	test   %eax,%eax
    5c80:	0f 95 c0             	setne  %al
    5c83:	5d                   	pop    %rbp
    5c84:	c3                   	ret
    5c85:	90                   	nop

0000000000005c86 <_ZN10PCI_Header13SetSERREnableEb>:
    5c86:	f3 0f 1e fa          	endbr64
    5c8a:	55                   	push   %rbp
    5c8b:	48 89 e5             	mov    %rsp,%rbp
    5c8e:	48 89 7d f8          	mov    %rdi,-0x8(%rbp)
    5c92:	89 f0                	mov    %esi,%eax
    5c94:	88 45 f4             	mov    %al,-0xc(%rbp)
    5c97:	80 7d f4 00          	cmpb   $0x0,-0xc(%rbp)
    5c9b:	74 17                	je     5cb4 <_ZN10PCI_Header13SetSERREnableEb+0x2e>
    5c9d:	48 8b 45 f8          	mov    -0x8(%rbp),%rax
    5ca1:	0f b7 40 04          	movzwl 0x4(%rax),%eax
    5ca5:	80 cc 01             	or     $0x1,%ah
    5ca8:	89 c2                	mov    %eax,%edx
    5caa:	48 8b 45 f8          	mov    -0x8(%rbp),%rax
    5cae:	66 89 50 04          	mov    %dx,0x4(%rax)
    5cb2:	eb 15                	jmp    5cc9 <_ZN10PCI_Header13SetSERREnableEb+0x43>
    5cb4:	48 8b 45 f8          	mov    -0x8(%rbp),%rax
    5cb8:	0f b7 40 04          	movzwl 0x4(%rax),%eax
    5cbc:	80 e4 fe             	and    $0xfe,%ah
    5cbf:	89 c2                	mov    %eax,%edx
    5cc1:	48 8b 45 f8          	mov    -0x8(%rbp),%rax
    5cc5:	66 89 50 04          	mov    %dx,0x4(%rax)
    5cc9:	90                   	nop
    5cca:	5d                   	pop    %rbp
    5ccb:	c3                   	ret

0000000000005ccc <_ZN10PCI_Header10SERREnableEv>:
    5ccc:	f3 0f 1e fa          	endbr64
    5cd0:	55                   	push   %rbp
    5cd1:	48 89 e5             	mov    %rsp,%rbp
    5cd4:	48 89 7d f8          	mov    %rdi,-0x8(%rbp)
    5cd8:	48 8b 45 f8          	mov    -0x8(%rbp),%rax
    5cdc:	0f b7 40 04          	movzwl 0x4(%rax),%eax
    5ce0:	0f b7 c0             	movzwl %ax,%eax
    5ce3:	25 00 01 00 00       	and    $0x100,%eax
    5ce8:	85 c0                	test   %eax,%eax
    5cea:	0f 95 c0             	setne  %al
    5ced:	5d                   	pop    %rbp
    5cee:	c3                   	ret
    5cef:	90                   	nop

0000000000005cf0 <_ZN10PCI_Header12FastBBEnableEv>:
    5cf0:	f3 0f 1e fa          	endbr64
    5cf4:	55                   	push   %rbp
    5cf5:	48 89 e5             	mov    %rsp,%rbp
    5cf8:	48 89 7d f8          	mov    %rdi,-0x8(%rbp)
    5cfc:	48 8b 45 f8          	mov    -0x8(%rbp),%rax
    5d00:	0f b7 40 04          	movzwl 0x4(%rax),%eax
    5d04:	0f b7 c0             	movzwl %ax,%eax
    5d07:	25 00 02 00 00       	and    $0x200,%eax
    5d0c:	85 c0                	test   %eax,%eax
    5d0e:	0f 95 c0             	setne  %al
    5d11:	5d                   	pop    %rbp
    5d12:	c3                   	ret
    5d13:	90                   	nop

0000000000005d14 <_ZN10PCI_Header19SetInterruptDisableEb>:
    5d14:	f3 0f 1e fa          	endbr64
    5d18:	55                   	push   %rbp
    5d19:	48 89 e5             	mov    %rsp,%rbp
    5d1c:	48 89 7d f8          	mov    %rdi,-0x8(%rbp)
    5d20:	89 f0                	mov    %esi,%eax
    5d22:	88 45 f4             	mov    %al,-0xc(%rbp)
    5d25:	80 7d f4 00          	cmpb   $0x0,-0xc(%rbp)
    5d29:	74 17                	je     5d42 <_ZN10PCI_Header19SetInterruptDisableEb+0x2e>
    5d2b:	48 8b 45 f8          	mov    -0x8(%rbp),%rax
    5d2f:	0f b7 40 04          	movzwl 0x4(%rax),%eax
    5d33:	80 cc 04             	or     $0x4,%ah
    5d36:	89 c2                	mov    %eax,%edx
    5d38:	48 8b 45 f8          	mov    -0x8(%rbp),%rax
    5d3c:	66 89 50 04          	mov    %dx,0x4(%rax)
    5d40:	eb 15                	jmp    5d57 <_ZN10PCI_Header19SetInterruptDisableEb+0x43>
    5d42:	48 8b 45 f8          	mov    -0x8(%rbp),%rax
    5d46:	0f b7 40 04          	movzwl 0x4(%rax),%eax
    5d4a:	80 e4 fb             	and    $0xfb,%ah
    5d4d:	89 c2                	mov    %eax,%edx
    5d4f:	48 8b 45 f8          	mov    -0x8(%rbp),%rax
    5d53:	66 89 50 04          	mov    %dx,0x4(%rax)
    5d57:	90                   	nop
    5d58:	5d                   	pop    %rbp
    5d59:	c3                   	ret

0000000000005d5a <_ZN10PCI_Header16InterruptDisableEv>:
    5d5a:	f3 0f 1e fa          	endbr64
    5d5e:	55                   	push   %rbp
    5d5f:	48 89 e5             	mov    %rsp,%rbp
    5d62:	48 89 7d f8          	mov    %rdi,-0x8(%rbp)
    5d66:	48 8b 45 f8          	mov    -0x8(%rbp),%rax
    5d6a:	0f b7 40 04          	movzwl 0x4(%rax),%eax
    5d6e:	0f b7 c0             	movzwl %ax,%eax
    5d71:	25 00 04 00 00       	and    $0x400,%eax
    5d76:	85 c0                	test   %eax,%eax
    5d78:	0f 95 c0             	setne  %al
    5d7b:	5d                   	pop    %rbp
    5d7c:	c3                   	ret
    5d7d:	90                   	nop

0000000000005d7e <_ZN10PCI_Header15InterruptStatusEv>:
    5d7e:	f3 0f 1e fa          	endbr64
    5d82:	55                   	push   %rbp
    5d83:	48 89 e5             	mov    %rsp,%rbp
    5d86:	48 89 7d f8          	mov    %rdi,-0x8(%rbp)
    5d8a:	48 8b 45 f8          	mov    -0x8(%rbp),%rax
    5d8e:	0f b7 40 06          	movzwl 0x6(%rax),%eax
    5d92:	0f b7 c0             	movzwl %ax,%eax
    5d95:	83 e0 08             	and    $0x8,%eax
    5d98:	85 c0                	test   %eax,%eax
    5d9a:	0f 95 c0             	setne  %al
    5d9d:	5d                   	pop    %rbp
    5d9e:	c3                   	ret
    5d9f:	90                   	nop

0000000000005da0 <_ZN10PCI_Header16CapabilitiesListEv>:
    5da0:	f3 0f 1e fa          	endbr64
    5da4:	55                   	push   %rbp
    5da5:	48 89 e5             	mov    %rsp,%rbp
    5da8:	48 89 7d f8          	mov    %rdi,-0x8(%rbp)
    5dac:	48 8b 45 f8          	mov    -0x8(%rbp),%rax
    5db0:	0f b7 40 06          	movzwl 0x6(%rax),%eax
    5db4:	0f b7 c0             	movzwl %ax,%eax
    5db7:	83 e0 10             	and    $0x10,%eax
    5dba:	85 c0                	test   %eax,%eax
    5dbc:	0f 95 c0             	setne  %al
    5dbf:	5d                   	pop    %rbp
    5dc0:	c3                   	ret
    5dc1:	90                   	nop

0000000000005dc2 <_ZN10PCI_Header10MHzCapableEv>:
    5dc2:	f3 0f 1e fa          	endbr64
    5dc6:	55                   	push   %rbp
    5dc7:	48 89 e5             	mov    %rsp,%rbp
    5dca:	48 89 7d f8          	mov    %rdi,-0x8(%rbp)
    5dce:	48 8b 45 f8          	mov    -0x8(%rbp),%rax
    5dd2:	0f b7 40 06          	movzwl 0x6(%rax),%eax
    5dd6:	0f b7 c0             	movzwl %ax,%eax
    5dd9:	83 e0 20             	and    $0x20,%eax
    5ddc:	85 c0                	test   %eax,%eax
    5dde:	0f 95 c0             	setne  %al
    5de1:	5d                   	pop    %rbp
    5de2:	c3                   	ret
    5de3:	90                   	nop

0000000000005de4 <_ZN10PCI_Header13FastBBCapableEv>:
    5de4:	f3 0f 1e fa          	endbr64
    5de8:	55                   	push   %rbp
    5de9:	48 89 e5             	mov    %rsp,%rbp
    5dec:	48 89 7d f8          	mov    %rdi,-0x8(%rbp)
    5df0:	48 8b 45 f8          	mov    -0x8(%rbp),%rax
    5df4:	0f b7 40 06          	movzwl 0x6(%rax),%eax
    5df8:	0f b7 c0             	movzwl %ax,%eax
    5dfb:	25 80 00 00 00       	and    $0x80,%eax
    5e00:	85 c0                	test   %eax,%eax
    5e02:	0f 95 c0             	setne  %al
    5e05:	5d                   	pop    %rbp
    5e06:	c3                   	ret
    5e07:	90                   	nop

0000000000005e08 <_ZN10PCI_Header24SetMasterDataParityErrorEv>:
    5e08:	f3 0f 1e fa          	endbr64
    5e0c:	55                   	push   %rbp
    5e0d:	48 89 e5             	mov    %rsp,%rbp
    5e10:	48 89 7d f8          	mov    %rdi,-0x8(%rbp)
    5e14:	48 8b 45 f8          	mov    -0x8(%rbp),%rax
    5e18:	0f b7 40 06          	movzwl 0x6(%rax),%eax
    5e1c:	80 cc 01             	or     $0x1,%ah
    5e1f:	89 c2                	mov    %eax,%edx
    5e21:	48 8b 45 f8          	mov    -0x8(%rbp),%rax
    5e25:	66 89 50 06          	mov    %dx,0x6(%rax)
    5e29:	90                   	nop
    5e2a:	5d                   	pop    %rbp
    5e2b:	c3                   	ret

0000000000005e2c <_ZN10PCI_Header21MasterDataParityErrorEv>:
    5e2c:	f3 0f 1e fa          	endbr64
    5e30:	55                   	push   %rbp
    5e31:	48 89 e5             	mov    %rsp,%rbp
    5e34:	48 89 7d f8          	mov    %rdi,-0x8(%rbp)
    5e38:	48 8b 45 f8          	mov    -0x8(%rbp),%rax
    5e3c:	0f b7 40 06          	movzwl 0x6(%rax),%eax
    5e40:	0f b7 c0             	movzwl %ax,%eax
    5e43:	25 00 01 00 00       	and    $0x100,%eax
    5e48:	85 c0                	test   %eax,%eax
    5e4a:	0f 95 c0             	setne  %al
    5e4d:	5d                   	pop    %rbp
    5e4e:	c3                   	ret
    5e4f:	90                   	nop

0000000000005e50 <_ZN10PCI_Header12DEVSELTimingEv>:
    5e50:	f3 0f 1e fa          	endbr64
    5e54:	55                   	push   %rbp
    5e55:	48 89 e5             	mov    %rsp,%rbp
    5e58:	48 89 7d f8          	mov    %rdi,-0x8(%rbp)
    5e5c:	48 8b 45 f8          	mov    -0x8(%rbp),%rax
    5e60:	0f b7 40 06          	movzwl 0x6(%rax),%eax
    5e64:	66 c1 e8 09          	shr    $0x9,%ax
    5e68:	83 e0 03             	and    $0x3,%eax
    5e6b:	5d                   	pop    %rbp
    5e6c:	c3                   	ret
    5e6d:	90                   	nop

0000000000005e6e <_ZN10PCI_Header22SetSignaledTargetAbortEv>:
    5e6e:	f3 0f 1e fa          	endbr64
    5e72:	55                   	push   %rbp
    5e73:	48 89 e5             	mov    %rsp,%rbp
    5e76:	48 89 7d f8          	mov    %rdi,-0x8(%rbp)
    5e7a:	48 8b 45 f8          	mov    -0x8(%rbp),%rax
    5e7e:	0f b7 40 06          	movzwl 0x6(%rax),%eax
    5e82:	80 cc 08             	or     $0x8,%ah
    5e85:	89 c2                	mov    %eax,%edx
    5e87:	48 8b 45 f8          	mov    -0x8(%rbp),%rax
    5e8b:	66 89 50 06          	mov    %dx,0x6(%rax)
    5e8f:	90                   	nop
    5e90:	5d                   	pop    %rbp
    5e91:	c3                   	ret

0000000000005e92 <_ZN10PCI_Header19SignaledTargetAbortEv>:
    5e92:	f3 0f 1e fa          	endbr64
    5e96:	55                   	push   %rbp
    5e97:	48 89 e5             	mov    %rsp,%rbp
    5e9a:	48 89 7d f8          	mov    %rdi,-0x8(%rbp)
    5e9e:	48 8b 45 f8          	mov    -0x8(%rbp),%rax
    5ea2:	0f b7 40 06          	movzwl 0x6(%rax),%eax
    5ea6:	0f b7 c0             	movzwl %ax,%eax
    5ea9:	25 00 08 00 00       	and    $0x800,%eax
    5eae:	85 c0                	test   %eax,%eax
    5eb0:	0f 95 c0             	setne  %al
    5eb3:	5d                   	pop    %rbp
    5eb4:	c3                   	ret
    5eb5:	90                   	nop

0000000000005eb6 <_ZN10PCI_Header22SetRecievedTargetAbortEv>:
    5eb6:	f3 0f 1e fa          	endbr64
    5eba:	55                   	push   %rbp
    5ebb:	48 89 e5             	mov    %rsp,%rbp
    5ebe:	48 89 7d f8          	mov    %rdi,-0x8(%rbp)
    5ec2:	48 8b 45 f8          	mov    -0x8(%rbp),%rax
    5ec6:	0f b7 40 06          	movzwl 0x6(%rax),%eax
    5eca:	80 cc 10             	or     $0x10,%ah
    5ecd:	89 c2                	mov    %eax,%edx
    5ecf:	48 8b 45 f8          	mov    -0x8(%rbp),%rax
    5ed3:	66 89 50 06          	mov    %dx,0x6(%rax)
    5ed7:	90                   	nop
    5ed8:	5d                   	pop    %rbp
    5ed9:	c3                   	ret

0000000000005eda <_ZN10PCI_Header19RecievedTargetAbortEv>:
    5eda:	f3 0f 1e fa          	endbr64
    5ede:	55                   	push   %rbp
    5edf:	48 89 e5             	mov    %rsp,%rbp
    5ee2:	48 89 7d f8          	mov    %rdi,-0x8(%rbp)
    5ee6:	48 8b 45 f8          	mov    -0x8(%rbp),%rax
    5eea:	0f b7 40 06          	movzwl 0x6(%rax),%eax
    5eee:	0f b7 c0             	movzwl %ax,%eax
    5ef1:	25 00 10 00 00       	and    $0x1000,%eax
    5ef6:	85 c0                	test   %eax,%eax
    5ef8:	0f 95 c0             	setne  %al
    5efb:	5d                   	pop    %rbp
    5efc:	c3                   	ret
    5efd:	90                   	nop

0000000000005efe <_ZN10PCI_Header22SetRecievedMasterAbortEv>:
    5efe:	f3 0f 1e fa          	endbr64
    5f02:	55                   	push   %rbp
    5f03:	48 89 e5             	mov    %rsp,%rbp
    5f06:	48 89 7d f8          	mov    %rdi,-0x8(%rbp)
    5f0a:	48 8b 45 f8          	mov    -0x8(%rbp),%rax
    5f0e:	0f b7 40 06          	movzwl 0x6(%rax),%eax
    5f12:	80 cc 20             	or     $0x20,%ah
    5f15:	89 c2                	mov    %eax,%edx
    5f17:	48 8b 45 f8          	mov    -0x8(%rbp),%rax
    5f1b:	66 89 50 06          	mov    %dx,0x6(%rax)
    5f1f:	90                   	nop
    5f20:	5d                   	pop    %rbp
    5f21:	c3                   	ret

0000000000005f22 <_ZN10PCI_Header19RecievedMasterAbortEv>:
    5f22:	f3 0f 1e fa          	endbr64
    5f26:	55                   	push   %rbp
    5f27:	48 89 e5             	mov    %rsp,%rbp
    5f2a:	48 89 7d f8          	mov    %rdi,-0x8(%rbp)
    5f2e:	48 8b 45 f8          	mov    -0x8(%rbp),%rax
    5f32:	0f b7 40 06          	movzwl 0x6(%rax),%eax
    5f36:	0f b7 c0             	movzwl %ax,%eax
    5f39:	25 00 20 00 00       	and    $0x2000,%eax
    5f3e:	85 c0                	test   %eax,%eax
    5f40:	0f 95 c0             	setne  %al
    5f43:	5d                   	pop    %rbp
    5f44:	c3                   	ret
    5f45:	90                   	nop

0000000000005f46 <_ZN10PCI_Header22SetSignaledSystemErrorEv>:
    5f46:	f3 0f 1e fa          	endbr64
    5f4a:	55                   	push   %rbp
    5f4b:	48 89 e5             	mov    %rsp,%rbp
    5f4e:	48 89 7d f8          	mov    %rdi,-0x8(%rbp)
    5f52:	48 8b 45 f8          	mov    -0x8(%rbp),%rax
    5f56:	0f b7 40 06          	movzwl 0x6(%rax),%eax
    5f5a:	80 cc 40             	or     $0x40,%ah
    5f5d:	89 c2                	mov    %eax,%edx
    5f5f:	48 8b 45 f8          	mov    -0x8(%rbp),%rax
    5f63:	66 89 50 06          	mov    %dx,0x6(%rax)
    5f67:	90                   	nop
    5f68:	5d                   	pop    %rbp
    5f69:	c3                   	ret

0000000000005f6a <_ZN10PCI_Header19SignaledSystemErrorEv>:
    5f6a:	f3 0f 1e fa          	endbr64
    5f6e:	55                   	push   %rbp
    5f6f:	48 89 e5             	mov    %rsp,%rbp
    5f72:	48 89 7d f8          	mov    %rdi,-0x8(%rbp)
    5f76:	48 8b 45 f8          	mov    -0x8(%rbp),%rax
    5f7a:	0f b7 40 06          	movzwl 0x6(%rax),%eax
    5f7e:	0f b7 c0             	movzwl %ax,%eax
    5f81:	25 00 40 00 00       	and    $0x4000,%eax
    5f86:	85 c0                	test   %eax,%eax
    5f88:	0f 95 c0             	setne  %al
    5f8b:	5d                   	pop    %rbp
    5f8c:	c3                   	ret
    5f8d:	90                   	nop

0000000000005f8e <_ZN10PCI_Header19DetectedParityErrorEv>:
    5f8e:	f3 0f 1e fa          	endbr64
    5f92:	55                   	push   %rbp
    5f93:	48 89 e5             	mov    %rsp,%rbp
    5f96:	48 89 7d f8          	mov    %rdi,-0x8(%rbp)
    5f9a:	48 8b 45 f8          	mov    -0x8(%rbp),%rax
    5f9e:	0f b7 40 06          	movzwl 0x6(%rax),%eax
    5fa2:	66 c1 e8 0f          	shr    $0xf,%ax
    5fa6:	5d                   	pop    %rbp
    5fa7:	c3                   	ret

0000000000005fa8 <_ZN10PCI_Header22SetDetectedParityErrorEv>:
    5fa8:	f3 0f 1e fa          	endbr64
    5fac:	55                   	push   %rbp
    5fad:	48 89 e5             	mov    %rsp,%rbp
    5fb0:	48 89 7d f8          	mov    %rdi,-0x8(%rbp)
    5fb4:	48 8b 45 f8          	mov    -0x8(%rbp),%rax
    5fb8:	0f b7 40 06          	movzwl 0x6(%rax),%eax
    5fbc:	66 0d 00 80          	or     $0x8000,%ax
    5fc0:	89 c2                	mov    %eax,%edx
    5fc2:	48 8b 45 f8          	mov    -0x8(%rbp),%rax
    5fc6:	66 89 50 06          	mov    %dx,0x6(%rax)
    5fca:	90                   	nop
    5fcb:	5d                   	pop    %rbp
    5fcc:	c3                   	ret
    5fcd:	90                   	nop

0000000000005fce <_ZN10PCI_Header13GetHeaderTypeEv>:
    5fce:	f3 0f 1e fa          	endbr64
    5fd2:	55                   	push   %rbp
    5fd3:	48 89 e5             	mov    %rsp,%rbp
    5fd6:	48 89 7d f8          	mov    %rdi,-0x8(%rbp)
    5fda:	48 8b 45 f8          	mov    -0x8(%rbp),%rax
    5fde:	0f b6 40 0e          	movzbl 0xe(%rax),%eax
    5fe2:	83 e0 7f             	and    $0x7f,%eax
    5fe5:	5d                   	pop    %rbp
    5fe6:	c3                   	ret
    5fe7:	90                   	nop

0000000000005fe8 <_ZN10PCI_Header15IsMultiFunctionEv>:
    5fe8:	f3 0f 1e fa          	endbr64
    5fec:	55                   	push   %rbp
    5fed:	48 89 e5             	mov    %rsp,%rbp
    5ff0:	48 89 7d f8          	mov    %rdi,-0x8(%rbp)
    5ff4:	48 8b 45 f8          	mov    -0x8(%rbp),%rax
    5ff8:	0f b6 40 0e          	movzbl 0xe(%rax),%eax
    5ffc:	c0 e8 07             	shr    $0x7,%al
    5fff:	5d                   	pop    %rbp
    6000:	c3                   	ret
    6001:	90                   	nop

0000000000006002 <_ZN10PCI_Header17GetCompletionCodeEv>:
    6002:	f3 0f 1e fa          	endbr64
    6006:	55                   	push   %rbp
    6007:	48 89 e5             	mov    %rsp,%rbp
    600a:	48 89 7d f8          	mov    %rdi,-0x8(%rbp)
    600e:	48 8b 45 f8          	mov    -0x8(%rbp),%rax
    6012:	0f b6 40 0f          	movzbl 0xf(%rax),%eax
    6016:	83 e0 0f             	and    $0xf,%eax
    6019:	5d                   	pop    %rbp
    601a:	c3                   	ret
    601b:	90                   	nop

000000000000601c <_ZN10PCI_Header12SetStartBISTEb>:
    601c:	f3 0f 1e fa          	endbr64
    6020:	55                   	push   %rbp
    6021:	48 89 e5             	mov    %rsp,%rbp
    6024:	48 89 7d f8          	mov    %rdi,-0x8(%rbp)
    6028:	89 f0                	mov    %esi,%eax
    602a:	88 45 f4             	mov    %al,-0xc(%rbp)
    602d:	80 7d f4 00          	cmpb   $0x0,-0xc(%rbp)
    6031:	74 16                	je     6049 <_ZN10PCI_Header12SetStartBISTEb+0x2d>
    6033:	48 8b 45 f8          	mov    -0x8(%rbp),%rax
    6037:	0f b6 40 0f          	movzbl 0xf(%rax),%eax
    603b:	83 c8 40             	or     $0x40,%eax
    603e:	89 c2                	mov    %eax,%edx
    6040:	48 8b 45 f8          	mov    -0x8(%rbp),%rax
    6044:	88 50 0f             	mov    %dl,0xf(%rax)
    6047:	eb 14                	jmp    605d <_ZN10PCI_Header12SetStartBISTEb+0x41>
    6049:	48 8b 45 f8          	mov    -0x8(%rbp),%rax
    604d:	0f b6 40 0f          	movzbl 0xf(%rax),%eax
    6051:	83 e0 bf             	and    $0xffffffbf,%eax
    6054:	89 c2                	mov    %eax,%edx
    6056:	48 8b 45 f8          	mov    -0x8(%rbp),%rax
    605a:	88 50 0f             	mov    %dl,0xf(%rax)
    605d:	90                   	nop
    605e:	5d                   	pop    %rbp
    605f:	c3                   	ret

0000000000006060 <_ZN10PCI_Header11IsStartBISTEv>:
    6060:	f3 0f 1e fa          	endbr64
    6064:	55                   	push   %rbp
    6065:	48 89 e5             	mov    %rsp,%rbp
    6068:	48 89 7d f8          	mov    %rdi,-0x8(%rbp)
    606c:	48 8b 45 f8          	mov    -0x8(%rbp),%rax
    6070:	0f b6 40 0f          	movzbl 0xf(%rax),%eax
    6074:	c0 e8 06             	shr    $0x6,%al
    6077:	0f b6 c0             	movzbl %al,%eax
    607a:	83 e0 01             	and    $0x1,%eax
    607d:	85 c0                	test   %eax,%eax
    607f:	0f 95 c0             	setne  %al
    6082:	5d                   	pop    %rbp
    6083:	c3                   	ret

0000000000006084 <_ZN10PCI_Header13IsBISTCapableEv>:
    6084:	f3 0f 1e fa          	endbr64
    6088:	55                   	push   %rbp
    6089:	48 89 e5             	mov    %rsp,%rbp
    608c:	48 89 7d f8          	mov    %rdi,-0x8(%rbp)
    6090:	48 8b 45 f8          	mov    -0x8(%rbp),%rax
    6094:	0f b6 40 0f          	movzbl 0xf(%rax),%eax
    6098:	c0 e8 07             	shr    $0x7,%al
    609b:	5d                   	pop    %rbp
    609c:	c3                   	ret
    609d:	90                   	nop

000000000000609e <_ZN5ArrayI9DeviceKeyE5clearEv>:
    609e:	f3 0f 1e fa          	endbr64
    60a2:	55                   	push   %rbp
    60a3:	48 89 e5             	mov    %rsp,%rbp
    60a6:	48 89 7d f8          	mov    %rdi,-0x8(%rbp)
    60aa:	48 8b 45 f8          	mov    -0x8(%rbp),%rax
    60ae:	48 c7 40 08 00 00 00 	movq   $0x0,0x8(%rax)
    60b5:	00 
    60b6:	90                   	nop
    60b7:	5d                   	pop    %rbp
    60b8:	c3                   	ret
    60b9:	90                   	nop

00000000000060ba <_ZN5ArrayI9DeviceKeyEixEm>:
    60ba:	f3 0f 1e fa          	endbr64
    60be:	55                   	push   %rbp
    60bf:	48 89 e5             	mov    %rsp,%rbp
    60c2:	48 89 7d f8          	mov    %rdi,-0x8(%rbp)
    60c6:	48 89 75 f0          	mov    %rsi,-0x10(%rbp)
    60ca:	48 8b 45 f8          	mov    -0x8(%rbp),%rax
    60ce:	48 8b 00             	mov    (%rax),%rax
    60d1:	48 8b 55 f0          	mov    -0x10(%rbp),%rdx
    60d5:	48 c1 e2 02          	shl    $0x2,%rdx
    60d9:	48 01 d0             	add    %rdx,%rax
    60dc:	5d                   	pop    %rbp
    60dd:	c3                   	ret

00000000000060de <_ZN5ArrayI9DeviceKeyE9push_backERKS0_>:
    60de:	f3 0f 1e fa          	endbr64
    60e2:	55                   	push   %rbp
    60e3:	48 89 e5             	mov    %rsp,%rbp
    60e6:	48 83 ec 10          	sub    $0x10,%rsp
    60ea:	48 89 7d f8          	mov    %rdi,-0x8(%rbp)
    60ee:	48 89 75 f0          	mov    %rsi,-0x10(%rbp)
    60f2:	48 8b 45 f8          	mov    -0x8(%rbp),%rax
    60f6:	48 8b 50 08          	mov    0x8(%rax),%rdx
    60fa:	48 8b 45 f8          	mov    -0x8(%rbp),%rax
    60fe:	48 8b 40 10          	mov    0x10(%rax),%rax
    6102:	48 39 c2             	cmp    %rax,%rdx
    6105:	72 0c                	jb     6113 <_ZN5ArrayI9DeviceKeyE9push_backERKS0_+0x35>
    6107:	48 8b 45 f8          	mov    -0x8(%rbp),%rax
    610b:	48 89 c7             	mov    %rax,%rdi
    610e:	e8 4b 00 00 00       	call   615e <_ZN5ArrayI9DeviceKeyE4growEv>
    6113:	48 8b 45 f8          	mov    -0x8(%rbp),%rax
    6117:	48 8b 00             	mov    (%rax),%rax
    611a:	48 85 c0             	test   %rax,%rax
    611d:	74 2d                	je     614c <_ZN5ArrayI9DeviceKeyE9push_backERKS0_+0x6e>
    611f:	48 8b 45 f8          	mov    -0x8(%rbp),%rax
    6123:	48 8b 30             	mov    (%rax),%rsi
    6126:	48 8b 45 f8          	mov    -0x8(%rbp),%rax
    612a:	48 8b 40 08          	mov    0x8(%rax),%rax
    612e:	48 8d 48 01          	lea    0x1(%rax),%rcx
    6132:	48 8b 55 f8          	mov    -0x8(%rbp),%rdx
    6136:	48 89 4a 08          	mov    %rcx,0x8(%rdx)
    613a:	48 c1 e0 02          	shl    $0x2,%rax
    613e:	48 8d 14 06          	lea    (%rsi,%rax,1),%rdx
    6142:	48 8b 45 f0          	mov    -0x10(%rbp),%rax
    6146:	8b 00                	mov    (%rax),%eax
    6148:	89 02                	mov    %eax,(%rdx)
    614a:	eb 0f                	jmp    615b <_ZN5ArrayI9DeviceKeyE9push_backERKS0_+0x7d>
    614c:	48 8d 05 c9 17 01 00 	lea    0x117c9(%rip),%rax        # 1791c <_ZL4font+0x35bc>
    6153:	48 89 c7             	mov    %rax,%rdi
    6156:	e8 92 c2 ff ff       	call   23ed <_Z5PrintPKc>
    615b:	90                   	nop
    615c:	c9                   	leave
    615d:	c3                   	ret

000000000000615e <_ZN5ArrayI9DeviceKeyE4growEv>:
    615e:	f3 0f 1e fa          	endbr64
    6162:	55                   	push   %rbp
    6163:	48 89 e5             	mov    %rsp,%rbp
    6166:	48 83 ec 30          	sub    $0x30,%rsp
    616a:	48 89 7d d8          	mov    %rdi,-0x28(%rbp)
    616e:	48 8b 45 d8          	mov    -0x28(%rbp),%rax
    6172:	48 8b 40 10          	mov    0x10(%rax),%rax
    6176:	48 85 c0             	test   %rax,%rax
    6179:	74 0d                	je     6188 <_ZN5ArrayI9DeviceKeyE4growEv+0x2a>
    617b:	48 8b 45 d8          	mov    -0x28(%rbp),%rax
    617f:	48 8b 40 10          	mov    0x10(%rax),%rax
    6183:	48 01 c0             	add    %rax,%rax
    6186:	eb 05                	jmp    618d <_ZN5ArrayI9DeviceKeyE4growEv+0x2f>
    6188:	b8 10 00 00 00       	mov    $0x10,%eax
    618d:	48 89 45 f0          	mov    %rax,-0x10(%rbp)
    6191:	48 8b 45 f0          	mov    -0x10(%rbp),%rax
    6195:	48 c1 e0 02          	shl    $0x2,%rax
    6199:	48 89 c7             	mov    %rax,%rdi
    619c:	e8 83 25 00 00       	call   8724 <_Z6mallocm>
    61a1:	48 89 45 e8          	mov    %rax,-0x18(%rbp)
    61a5:	48 83 7d e8 00       	cmpq   $0x0,-0x18(%rbp)
    61aa:	75 11                	jne    61bd <_ZN5ArrayI9DeviceKeyE4growEv+0x5f>
    61ac:	48 8d 05 75 17 01 00 	lea    0x11775(%rip),%rax        # 17928 <_ZL4font+0x35c8>
    61b3:	48 89 c7             	mov    %rax,%rdi
    61b6:	e8 32 c2 ff ff       	call   23ed <_Z5PrintPKc>
    61bb:	eb 78                	jmp    6235 <_ZN5ArrayI9DeviceKeyE4growEv+0xd7>
    61bd:	48 c7 45 f8 00 00 00 	movq   $0x0,-0x8(%rbp)
    61c4:	00 
    61c5:	eb 2e                	jmp    61f5 <_ZN5ArrayI9DeviceKeyE4growEv+0x97>
    61c7:	48 8b 45 d8          	mov    -0x28(%rbp),%rax
    61cb:	48 8b 00             	mov    (%rax),%rax
    61ce:	48 8b 55 f8          	mov    -0x8(%rbp),%rdx
    61d2:	48 c1 e2 02          	shl    $0x2,%rdx
    61d6:	48 01 d0             	add    %rdx,%rax
    61d9:	48 8b 55 f8          	mov    -0x8(%rbp),%rdx
    61dd:	48 8d 0c 95 00 00 00 	lea    0x0(,%rdx,4),%rcx
    61e4:	00 
    61e5:	48 8b 55 e8          	mov    -0x18(%rbp),%rdx
    61e9:	48 01 ca             	add    %rcx,%rdx
    61ec:	8b 00                	mov    (%rax),%eax
    61ee:	89 02                	mov    %eax,(%rdx)
    61f0:	48 83 45 f8 01       	addq   $0x1,-0x8(%rbp)
    61f5:	48 8b 45 d8          	mov    -0x28(%rbp),%rax
    61f9:	48 8b 40 08          	mov    0x8(%rax),%rax
    61fd:	48 39 45 f8          	cmp    %rax,-0x8(%rbp)
    6201:	72 c4                	jb     61c7 <_ZN5ArrayI9DeviceKeyE4growEv+0x69>
    6203:	48 8b 45 d8          	mov    -0x28(%rbp),%rax
    6207:	48 8b 00             	mov    (%rax),%rax
    620a:	48 85 c0             	test   %rax,%rax
    620d:	74 0f                	je     621e <_ZN5ArrayI9DeviceKeyE4growEv+0xc0>
    620f:	48 8b 45 d8          	mov    -0x28(%rbp),%rax
    6213:	48 8b 00             	mov    (%rax),%rax
    6216:	48 89 c7             	mov    %rax,%rdi
    6219:	e8 35 25 00 00       	call   8753 <_Z4freePv>
    621e:	48 8b 45 d8          	mov    -0x28(%rbp),%rax
    6222:	48 8b 55 e8          	mov    -0x18(%rbp),%rdx
    6226:	48 89 10             	mov    %rdx,(%rax)
    6229:	48 8b 45 d8          	mov    -0x28(%rbp),%rax
    622d:	48 8b 55 f0          	mov    -0x10(%rbp),%rdx
    6231:	48 89 50 10          	mov    %rdx,0x10(%rax)
    6235:	c9                   	leave
    6236:	c3                   	ret
    6237:	90                   	nop

0000000000006238 <_ZN4PCIe10InitializeEv>:
    6238:	f3 0f 1e fa          	endbr64
    623c:	55                   	push   %rbp
    623d:	48 89 e5             	mov    %rsp,%rbp
    6240:	48 83 ec 10          	sub    $0x10,%rsp
    6244:	48 89 7d f8          	mov    %rdi,-0x8(%rbp)
    6248:	48 8b 45 f8          	mov    -0x8(%rbp),%rax
    624c:	48 8b 40 18          	mov    0x18(%rax),%rax
    6250:	8b 40 04             	mov    0x4(%rax),%eax
    6253:	89 c0                	mov    %eax,%eax
    6255:	48 83 e8 30          	sub    $0x30,%rax
    6259:	48 c1 e8 04          	shr    $0x4,%rax
    625d:	89 c2                	mov    %eax,%edx
    625f:	48 8b 45 f8          	mov    -0x8(%rbp),%rax
    6263:	89 50 20             	mov    %edx,0x20(%rax)
    6266:	48 8b 45 f8          	mov    -0x8(%rbp),%rax
    626a:	48 89 c7             	mov    %rax,%rdi
    626d:	e8 7a 00 00 00       	call   62ec <_ZN4PCIe16checkAllSegmentsEv>
    6272:	90                   	nop
    6273:	c9                   	leave
    6274:	c3                   	ret
    6275:	90                   	nop

0000000000006276 <_ZN4PCIe14InitializePCIeEP4MCFG>:
    6276:	f3 0f 1e fa          	endbr64
    627a:	55                   	push   %rbp
    627b:	48 89 e5             	mov    %rsp,%rbp
    627e:	48 83 ec 10          	sub    $0x10,%rsp
    6282:	48 89 7d f8          	mov    %rdi,-0x8(%rbp)
    6286:	48 89 75 f0          	mov    %rsi,-0x10(%rbp)
    628a:	48 8b 45 f8          	mov    -0x8(%rbp),%rax
    628e:	48 8b 55 f0          	mov    -0x10(%rbp),%rdx
    6292:	48 89 50 18          	mov    %rdx,0x18(%rax)
    6296:	48 8b 45 f8          	mov    -0x8(%rbp),%rax
    629a:	48 89 c7             	mov    %rax,%rdi
    629d:	e8 a0 1b 00 00       	call   7e42 <_ZN5ArrayI13PCIeDeviceKeyE5clearEv>
    62a2:	90                   	nop
    62a3:	c9                   	leave
    62a4:	c3                   	ret
    62a5:	90                   	nop

00000000000062a6 <_ZN4PCIe10PCIeExistsEv>:
    62a6:	f3 0f 1e fa          	endbr64
    62aa:	55                   	push   %rbp
    62ab:	48 89 e5             	mov    %rsp,%rbp
    62ae:	48 89 7d f8          	mov    %rdi,-0x8(%rbp)
    62b2:	48 8b 45 f8          	mov    -0x8(%rbp),%rax
    62b6:	48 8b 40 18          	mov    0x18(%rax),%rax
    62ba:	48 85 c0             	test   %rax,%rax
    62bd:	75 07                	jne    62c6 <_ZN4PCIe10PCIeExistsEv+0x20>
    62bf:	b8 00 00 00 00       	mov    $0x0,%eax
    62c4:	eb 23                	jmp    62e9 <_ZN4PCIe10PCIeExistsEv+0x43>
    62c6:	48 8b 45 f8          	mov    -0x8(%rbp),%rax
    62ca:	48 8b 40 18          	mov    0x18(%rax),%rax
    62ce:	48 89 c2             	mov    %rax,%rdx
    62d1:	48 8d 05 68 26 01 00 	lea    0x12668(%rip),%rax        # 18940 <_ZL4font+0x1000>
    62d8:	48 39 c2             	cmp    %rax,%rdx
    62db:	75 07                	jne    62e4 <_ZN4PCIe10PCIeExistsEv+0x3e>
    62dd:	b8 01 00 00 00       	mov    $0x1,%eax
    62e2:	eb 05                	jmp    62e9 <_ZN4PCIe10PCIeExistsEv+0x43>
    62e4:	b8 00 00 00 00       	mov    $0x0,%eax
    62e9:	5d                   	pop    %rbp
    62ea:	c3                   	ret
    62eb:	90                   	nop

00000000000062ec <_ZN4PCIe16checkAllSegmentsEv>:
    62ec:	f3 0f 1e fa          	endbr64
    62f0:	55                   	push   %rbp
    62f1:	48 89 e5             	mov    %rsp,%rbp
    62f4:	48 83 ec 30          	sub    $0x30,%rsp
    62f8:	48 89 7d d8          	mov    %rdi,-0x28(%rbp)
    62fc:	48 c7 45 f8 00 00 00 	movq   $0x0,-0x8(%rbp)
    6303:	00 
    6304:	eb 45                	jmp    634b <_ZN4PCIe16checkAllSegmentsEv+0x5f>
    6306:	48 8b 45 d8          	mov    -0x28(%rbp),%rax
    630a:	48 8b 40 18          	mov    0x18(%rax),%rax
    630e:	48 8b 55 f8          	mov    -0x8(%rbp),%rdx
    6312:	48 83 c2 03          	add    $0x3,%rdx
    6316:	48 c1 e2 04          	shl    $0x4,%rdx
    631a:	48 01 d0             	add    %rdx,%rax
    631d:	48 8b 50 08          	mov    0x8(%rax),%rdx
    6321:	48 8b 00             	mov    (%rax),%rax
    6324:	48 89 45 e0          	mov    %rax,-0x20(%rbp)
    6328:	48 89 55 e8          	mov    %rdx,-0x18(%rbp)
    632c:	0f b7 45 e8          	movzwl -0x18(%rbp),%eax
    6330:	0f b7 c8             	movzwl %ax,%ecx
    6333:	48 8b 45 d8          	mov    -0x28(%rbp),%rax
    6337:	ba 00 00 00 00       	mov    $0x0,%edx
    633c:	89 ce                	mov    %ecx,%esi
    633e:	48 89 c7             	mov    %rax,%rdi
    6341:	e8 18 00 00 00       	call   635e <_ZN4PCIe8checkBusEth>
    6346:	48 83 45 f8 01       	addq   $0x1,-0x8(%rbp)
    634b:	48 8b 45 d8          	mov    -0x28(%rbp),%rax
    634f:	8b 40 20             	mov    0x20(%rax),%eax
    6352:	48 98                	cltq
    6354:	48 39 45 f8          	cmp    %rax,-0x8(%rbp)
    6358:	72 ac                	jb     6306 <_ZN4PCIe16checkAllSegmentsEv+0x1a>
    635a:	90                   	nop
    635b:	90                   	nop
    635c:	c9                   	leave
    635d:	c3                   	ret

000000000000635e <_ZN4PCIe8checkBusEth>:
    635e:	f3 0f 1e fa          	endbr64
    6362:	55                   	push   %rbp
    6363:	48 89 e5             	mov    %rsp,%rbp
    6366:	48 83 ec 20          	sub    $0x20,%rsp
    636a:	48 89 7d e8          	mov    %rdi,-0x18(%rbp)
    636e:	89 f1                	mov    %esi,%ecx
    6370:	89 d0                	mov    %edx,%eax
    6372:	89 ca                	mov    %ecx,%edx
    6374:	66 89 55 e4          	mov    %dx,-0x1c(%rbp)
    6378:	88 45 e0             	mov    %al,-0x20(%rbp)
    637b:	c6 45 ff 00          	movb   $0x0,-0x1(%rbp)
    637f:	eb 22                	jmp    63a3 <_ZN4PCIe8checkBusEth+0x45>
    6381:	0f b6 4d ff          	movzbl -0x1(%rbp),%ecx
    6385:	0f b6 55 e0          	movzbl -0x20(%rbp),%edx
    6389:	0f b7 75 e4          	movzwl -0x1c(%rbp),%esi
    638d:	48 8b 45 e8          	mov    -0x18(%rbp),%rax
    6391:	48 89 c7             	mov    %rax,%rdi
    6394:	e8 15 00 00 00       	call   63ae <_ZN4PCIe11checkDeviceEthh>
    6399:	0f b6 45 ff          	movzbl -0x1(%rbp),%eax
    639d:	83 c0 01             	add    $0x1,%eax
    63a0:	88 45 ff             	mov    %al,-0x1(%rbp)
    63a3:	80 7d ff 1f          	cmpb   $0x1f,-0x1(%rbp)
    63a7:	76 d8                	jbe    6381 <_ZN4PCIe8checkBusEth+0x23>
    63a9:	90                   	nop
    63aa:	90                   	nop
    63ab:	c9                   	leave
    63ac:	c3                   	ret
    63ad:	90                   	nop

00000000000063ae <_ZN4PCIe11checkDeviceEthh>:
    63ae:	f3 0f 1e fa          	endbr64
    63b2:	55                   	push   %rbp
    63b3:	48 89 e5             	mov    %rsp,%rbp
    63b6:	48 83 ec 30          	sub    $0x30,%rsp
    63ba:	48 89 7d e8          	mov    %rdi,-0x18(%rbp)
    63be:	89 c8                	mov    %ecx,%eax
    63c0:	89 f1                	mov    %esi,%ecx
    63c2:	66 89 4d e4          	mov    %cx,-0x1c(%rbp)
    63c6:	88 55 e0             	mov    %dl,-0x20(%rbp)
    63c9:	88 45 dc             	mov    %al,-0x24(%rbp)
    63cc:	c6 45 ff 00          	movb   $0x0,-0x1(%rbp)
    63d0:	0f b6 7d ff          	movzbl -0x1(%rbp),%edi
    63d4:	0f b6 4d dc          	movzbl -0x24(%rbp),%ecx
    63d8:	0f b6 55 e0          	movzbl -0x20(%rbp),%edx
    63dc:	0f b7 75 e4          	movzwl -0x1c(%rbp),%esi
    63e0:	48 8b 45 e8          	mov    -0x18(%rbp),%rax
    63e4:	41 89 f8             	mov    %edi,%r8d
    63e7:	48 89 c7             	mov    %rax,%rdi
    63ea:	e8 e9 17 00 00       	call   7bd8 <_ZN4PCIe11getVendorIDEthhh>
    63ef:	66 89 45 fc          	mov    %ax,-0x4(%rbp)
    63f3:	66 83 7d fc ff       	cmpw   $0xffff,-0x4(%rbp)
    63f8:	0f 84 aa 00 00 00    	je     64a8 <_ZN4PCIe11checkDeviceEthh+0xfa>
    63fe:	0f b6 7d ff          	movzbl -0x1(%rbp),%edi
    6402:	0f b6 4d dc          	movzbl -0x24(%rbp),%ecx
    6406:	0f b6 55 e0          	movzbl -0x20(%rbp),%edx
    640a:	0f b7 75 e4          	movzwl -0x1c(%rbp),%esi
    640e:	48 8b 45 e8          	mov    -0x18(%rbp),%rax
    6412:	41 89 f8             	mov    %edi,%r8d
    6415:	48 89 c7             	mov    %rax,%rdi
    6418:	e8 8f 00 00 00       	call   64ac <_ZN4PCIe13checkFunctionEthhh>
    641d:	0f b6 7d ff          	movzbl -0x1(%rbp),%edi
    6421:	0f b6 4d dc          	movzbl -0x24(%rbp),%ecx
    6425:	0f b6 55 e0          	movzbl -0x20(%rbp),%edx
    6429:	0f b7 75 e4          	movzwl -0x1c(%rbp),%esi
    642d:	48 8b 45 e8          	mov    -0x18(%rbp),%rax
    6431:	41 89 f8             	mov    %edi,%r8d
    6434:	48 89 c7             	mov    %rax,%rdi
    6437:	e8 ea 17 00 00       	call   7c26 <_ZN4PCIe13getHeaderTypeEthhh>
    643c:	88 45 fb             	mov    %al,-0x5(%rbp)
    643f:	0f b6 45 fb          	movzbl -0x5(%rbp),%eax
    6443:	84 c0                	test   %al,%al
    6445:	79 62                	jns    64a9 <_ZN4PCIe11checkDeviceEthh+0xfb>
    6447:	c6 45 ff 01          	movb   $0x1,-0x1(%rbp)
    644b:	eb 53                	jmp    64a0 <_ZN4PCIe11checkDeviceEthh+0xf2>
    644d:	0f b6 7d ff          	movzbl -0x1(%rbp),%edi
    6451:	0f b6 4d dc          	movzbl -0x24(%rbp),%ecx
    6455:	0f b6 55 e0          	movzbl -0x20(%rbp),%edx
    6459:	0f b7 75 e4          	movzwl -0x1c(%rbp),%esi
    645d:	48 8b 45 e8          	mov    -0x18(%rbp),%rax
    6461:	41 89 f8             	mov    %edi,%r8d
    6464:	48 89 c7             	mov    %rax,%rdi
    6467:	e8 6c 17 00 00       	call   7bd8 <_ZN4PCIe11getVendorIDEthhh>
    646c:	66 83 f8 ff          	cmp    $0xffff,%ax
    6470:	0f 95 c0             	setne  %al
    6473:	84 c0                	test   %al,%al
    6475:	74 1f                	je     6496 <_ZN4PCIe11checkDeviceEthh+0xe8>
    6477:	0f b6 7d ff          	movzbl -0x1(%rbp),%edi
    647b:	0f b6 4d dc          	movzbl -0x24(%rbp),%ecx
    647f:	0f b6 55 e0          	movzbl -0x20(%rbp),%edx
    6483:	0f b7 75 e4          	movzwl -0x1c(%rbp),%esi
    6487:	48 8b 45 e8          	mov    -0x18(%rbp),%rax
    648b:	41 89 f8             	mov    %edi,%r8d
    648e:	48 89 c7             	mov    %rax,%rdi
    6491:	e8 16 00 00 00       	call   64ac <_ZN4PCIe13checkFunctionEthhh>
    6496:	0f b6 45 ff          	movzbl -0x1(%rbp),%eax
    649a:	83 c0 01             	add    $0x1,%eax
    649d:	88 45 ff             	mov    %al,-0x1(%rbp)
    64a0:	80 7d ff 07          	cmpb   $0x7,-0x1(%rbp)
    64a4:	76 a7                	jbe    644d <_ZN4PCIe11checkDeviceEthh+0x9f>
    64a6:	eb 01                	jmp    64a9 <_ZN4PCIe11checkDeviceEthh+0xfb>
    64a8:	90                   	nop
    64a9:	c9                   	leave
    64aa:	c3                   	ret
    64ab:	90                   	nop

00000000000064ac <_ZN4PCIe13checkFunctionEthhh>:
    64ac:	f3 0f 1e fa          	endbr64
    64b0:	55                   	push   %rbp
    64b1:	48 89 e5             	mov    %rsp,%rbp
    64b4:	53                   	push   %rbx
    64b5:	48 83 ec 38          	sub    $0x38,%rsp
    64b9:	48 89 7d d8          	mov    %rdi,-0x28(%rbp)
    64bd:	89 c8                	mov    %ecx,%eax
    64bf:	44 89 c7             	mov    %r8d,%edi
    64c2:	89 f1                	mov    %esi,%ecx
    64c4:	66 89 4d d4          	mov    %cx,-0x2c(%rbp)
    64c8:	88 55 d0             	mov    %dl,-0x30(%rbp)
    64cb:	88 45 cc             	mov    %al,-0x34(%rbp)
    64ce:	89 f8                	mov    %edi,%eax
    64d0:	88 45 c8             	mov    %al,-0x38(%rbp)
    64d3:	0f b6 7d c8          	movzbl -0x38(%rbp),%edi
    64d7:	0f b6 4d cc          	movzbl -0x34(%rbp),%ecx
    64db:	0f b6 55 d0          	movzbl -0x30(%rbp),%edx
    64df:	0f b7 75 d4          	movzwl -0x2c(%rbp),%esi
    64e3:	48 8b 45 d8          	mov    -0x28(%rbp),%rax
    64e7:	41 89 f8             	mov    %edi,%r8d
    64ea:	48 89 c7             	mov    %rax,%rdi
    64ed:	e8 82 17 00 00       	call   7c74 <_ZN4PCIe18deviceAlreadyFoundEthhh>
    64f2:	84 c0                	test   %al,%al
    64f4:	0f 85 21 02 00 00    	jne    671b <_ZN4PCIe13checkFunctionEthhh+0x26f>
    64fa:	c6 45 ef 00          	movb   $0x0,-0x11(%rbp)
    64fe:	0f b6 7d c8          	movzbl -0x38(%rbp),%edi
    6502:	0f b6 4d cc          	movzbl -0x34(%rbp),%ecx
    6506:	0f b6 55 d0          	movzbl -0x30(%rbp),%edx
    650a:	0f b7 75 d4          	movzwl -0x2c(%rbp),%esi
    650e:	48 8b 45 d8          	mov    -0x28(%rbp),%rax
    6512:	41 b9 06 00 00 00    	mov    $0x6,%r9d
    6518:	41 89 f8             	mov    %edi,%r8d
    651b:	48 89 c7             	mov    %rax,%rdi
    651e:	e8 ab 13 00 00       	call   78ce <_ZN4PCIe14ConfigReadWordEthhhh>
    6523:	66 c1 e8 04          	shr    $0x4,%ax
    6527:	0f b7 c0             	movzwl %ax,%eax
    652a:	83 e0 01             	and    $0x1,%eax
    652d:	85 c0                	test   %eax,%eax
    652f:	0f 95 c0             	setne  %al
    6532:	84 c0                	test   %al,%al
    6534:	0f 84 96 00 00 00    	je     65d0 <_ZN4PCIe13checkFunctionEthhh+0x124>
    653a:	0f b6 7d c8          	movzbl -0x38(%rbp),%edi
    653e:	0f b6 4d cc          	movzbl -0x34(%rbp),%ecx
    6542:	0f b6 55 d0          	movzbl -0x30(%rbp),%edx
    6546:	0f b7 75 d4          	movzwl -0x2c(%rbp),%esi
    654a:	48 8b 45 d8          	mov    -0x28(%rbp),%rax
    654e:	41 b9 34 00 00 00    	mov    $0x34,%r9d
    6554:	41 89 f8             	mov    %edi,%r8d
    6557:	48 89 c7             	mov    %rax,%rdi
    655a:	e8 67 15 00 00       	call   7ac6 <_ZN4PCIe14ConfigReadByteEthhhh>
    655f:	88 45 ee             	mov    %al,-0x12(%rbp)
    6562:	eb 66                	jmp    65ca <_ZN4PCIe13checkFunctionEthhh+0x11e>
    6564:	44 0f b6 45 ee       	movzbl -0x12(%rbp),%r8d
    6569:	0f b6 7d c8          	movzbl -0x38(%rbp),%edi
    656d:	0f b6 4d cc          	movzbl -0x34(%rbp),%ecx
    6571:	0f b6 55 d0          	movzbl -0x30(%rbp),%edx
    6575:	0f b7 75 d4          	movzwl -0x2c(%rbp),%esi
    6579:	48 8b 45 d8          	mov    -0x28(%rbp),%rax
    657d:	45 89 c1             	mov    %r8d,%r9d
    6580:	41 89 f8             	mov    %edi,%r8d
    6583:	48 89 c7             	mov    %rax,%rdi
    6586:	e8 3b 15 00 00       	call   7ac6 <_ZN4PCIe14ConfigReadByteEthhhh>
    658b:	88 45 ed             	mov    %al,-0x13(%rbp)
    658e:	80 7d ed 11          	cmpb   $0x11,-0x13(%rbp)
    6592:	75 06                	jne    659a <_ZN4PCIe13checkFunctionEthhh+0xee>
    6594:	c6 45 ef 01          	movb   $0x1,-0x11(%rbp)
    6598:	eb 36                	jmp    65d0 <_ZN4PCIe13checkFunctionEthhh+0x124>
    659a:	0f b6 45 ee          	movzbl -0x12(%rbp),%eax
    659e:	83 c0 01             	add    $0x1,%eax
    65a1:	44 0f b6 c0          	movzbl %al,%r8d
    65a5:	0f b6 7d c8          	movzbl -0x38(%rbp),%edi
    65a9:	0f b6 4d cc          	movzbl -0x34(%rbp),%ecx
    65ad:	0f b6 55 d0          	movzbl -0x30(%rbp),%edx
    65b1:	0f b7 75 d4          	movzwl -0x2c(%rbp),%esi
    65b5:	48 8b 45 d8          	mov    -0x28(%rbp),%rax
    65b9:	45 89 c1             	mov    %r8d,%r9d
    65bc:	41 89 f8             	mov    %edi,%r8d
    65bf:	48 89 c7             	mov    %rax,%rdi
    65c2:	e8 ff 14 00 00       	call   7ac6 <_ZN4PCIe14ConfigReadByteEthhhh>
    65c7:	88 45 ee             	mov    %al,-0x12(%rbp)
    65ca:	80 7d ee 00          	cmpb   $0x0,-0x12(%rbp)
    65ce:	75 94                	jne    6564 <_ZN4PCIe13checkFunctionEthhh+0xb8>
    65d0:	44 0f b6 45 ef       	movzbl -0x11(%rbp),%r8d
    65d5:	0f b6 7d c8          	movzbl -0x38(%rbp),%edi
    65d9:	0f b6 4d cc          	movzbl -0x34(%rbp),%ecx
    65dd:	0f b6 55 d0          	movzbl -0x30(%rbp),%edx
    65e1:	0f b7 75 d4          	movzwl -0x2c(%rbp),%esi
    65e5:	48 8b 45 d8          	mov    -0x28(%rbp),%rax
    65e9:	45 89 c1             	mov    %r8d,%r9d
    65ec:	41 89 f8             	mov    %edi,%r8d
    65ef:	48 89 c7             	mov    %rax,%rdi
    65f2:	e8 61 17 00 00       	call   7d58 <_ZN4PCIe9addDeviceEthhhb>
    65f7:	0f b6 7d c8          	movzbl -0x38(%rbp),%edi
    65fb:	0f b6 4d cc          	movzbl -0x34(%rbp),%ecx
    65ff:	0f b6 55 d0          	movzbl -0x30(%rbp),%edx
    6603:	0f b7 75 d4          	movzwl -0x2c(%rbp),%esi
    6607:	48 8b 45 d8          	mov    -0x28(%rbp),%rax
    660b:	41 89 f8             	mov    %edi,%r8d
    660e:	48 89 c7             	mov    %rax,%rdi
    6611:	e8 c2 15 00 00       	call   7bd8 <_ZN4PCIe11getVendorIDEthhh>
    6616:	66 89 45 ea          	mov    %ax,-0x16(%rbp)
    661a:	66 83 7d ea ff       	cmpw   $0xffff,-0x16(%rbp)
    661f:	0f 84 f9 00 00 00    	je     671e <_ZN4PCIe13checkFunctionEthhh+0x272>
    6625:	0f b6 7d c8          	movzbl -0x38(%rbp),%edi
    6629:	0f b6 4d cc          	movzbl -0x34(%rbp),%ecx
    662d:	0f b6 55 d0          	movzbl -0x30(%rbp),%edx
    6631:	0f b7 75 d4          	movzwl -0x2c(%rbp),%esi
    6635:	48 8b 45 d8          	mov    -0x28(%rbp),%rax
    6639:	41 b9 0b 00 00 00    	mov    $0xb,%r9d
    663f:	41 89 f8             	mov    %edi,%r8d
    6642:	48 89 c7             	mov    %rax,%rdi
    6645:	e8 84 12 00 00       	call   78ce <_ZN4PCIe14ConfigReadWordEthhhh>
    664a:	88 45 e9             	mov    %al,-0x17(%rbp)
    664d:	0f b6 7d c8          	movzbl -0x38(%rbp),%edi
    6651:	0f b6 4d cc          	movzbl -0x34(%rbp),%ecx
    6655:	0f b6 55 d0          	movzbl -0x30(%rbp),%edx
    6659:	0f b7 75 d4          	movzwl -0x2c(%rbp),%esi
    665d:	48 8b 45 d8          	mov    -0x28(%rbp),%rax
    6661:	41 b9 0a 00 00 00    	mov    $0xa,%r9d
    6667:	41 89 f8             	mov    %edi,%r8d
    666a:	48 89 c7             	mov    %rax,%rdi
    666d:	e8 5c 12 00 00       	call   78ce <_ZN4PCIe14ConfigReadWordEthhhh>
    6672:	88 45 e8             	mov    %al,-0x18(%rbp)
    6675:	0f b6 7d c8          	movzbl -0x38(%rbp),%edi
    6679:	0f b6 4d cc          	movzbl -0x34(%rbp),%ecx
    667d:	0f b6 55 d0          	movzbl -0x30(%rbp),%edx
    6681:	0f b7 75 d4          	movzwl -0x2c(%rbp),%esi
    6685:	48 8b 45 d8          	mov    -0x28(%rbp),%rax
    6689:	41 b9 09 00 00 00    	mov    $0x9,%r9d
    668f:	41 89 f8             	mov    %edi,%r8d
    6692:	48 89 c7             	mov    %rax,%rdi
    6695:	e8 34 12 00 00       	call   78ce <_ZN4PCIe14ConfigReadWordEthhhh>
    669a:	88 45 e7             	mov    %al,-0x19(%rbp)
    669d:	48 8b 05 5c 02 02 00 	mov    0x2025c(%rip),%rax        # 26900 <ks>
    66a4:	48 89 c3             	mov    %rax,%rbx
    66a7:	0f b6 4d e7          	movzbl -0x19(%rbp),%ecx
    66ab:	0f b6 55 e8          	movzbl -0x18(%rbp),%edx
    66af:	0f b6 75 e9          	movzbl -0x17(%rbp),%esi
    66b3:	48 8b 45 d8          	mov    -0x28(%rbp),%rax
    66b7:	48 89 c7             	mov    %rax,%rdi
    66ba:	e8 a1 01 00 00       	call   6860 <_ZN4PCIe13GetDeviceCodeEhhh>
    66bf:	ba ff ff ff ff       	mov    $0xffffffff,%edx
    66c4:	48 89 c6             	mov    %rax,%rsi
    66c7:	48 89 df             	mov    %rbx,%rdi
    66ca:	e8 6b bf ff ff       	call   263a <_ZN12BasicConsole7PrintlnEPKcj>
    66cf:	80 7d e9 06          	cmpb   $0x6,-0x17(%rbp)
    66d3:	75 4a                	jne    671f <_ZN4PCIe13checkFunctionEthhh+0x273>
    66d5:	80 7d e8 04          	cmpb   $0x4,-0x18(%rbp)
    66d9:	75 44                	jne    671f <_ZN4PCIe13checkFunctionEthhh+0x273>
    66db:	0f b6 7d c8          	movzbl -0x38(%rbp),%edi
    66df:	0f b6 4d cc          	movzbl -0x34(%rbp),%ecx
    66e3:	0f b6 55 d0          	movzbl -0x30(%rbp),%edx
    66e7:	0f b7 75 d4          	movzwl -0x2c(%rbp),%esi
    66eb:	48 8b 45 d8          	mov    -0x28(%rbp),%rax
    66ef:	41 b9 19 00 00 00    	mov    $0x19,%r9d
    66f5:	41 89 f8             	mov    %edi,%r8d
    66f8:	48 89 c7             	mov    %rax,%rdi
    66fb:	e8 ce 11 00 00       	call   78ce <_ZN4PCIe14ConfigReadWordEthhhh>
    6700:	88 45 e6             	mov    %al,-0x1a(%rbp)
    6703:	0f b6 55 e6          	movzbl -0x1a(%rbp),%edx
    6707:	0f b7 4d d4          	movzwl -0x2c(%rbp),%ecx
    670b:	48 8b 45 d8          	mov    -0x28(%rbp),%rax
    670f:	89 ce                	mov    %ecx,%esi
    6711:	48 89 c7             	mov    %rax,%rdi
    6714:	e8 45 fc ff ff       	call   635e <_ZN4PCIe8checkBusEth>
    6719:	eb 04                	jmp    671f <_ZN4PCIe13checkFunctionEthhh+0x273>
    671b:	90                   	nop
    671c:	eb 01                	jmp    671f <_ZN4PCIe13checkFunctionEthhh+0x273>
    671e:	90                   	nop
    671f:	48 8b 5d f8          	mov    -0x8(%rbp),%rbx
    6723:	c9                   	leave
    6724:	c3                   	ret
    6725:	90                   	nop

0000000000006726 <_ZN4PCIe14GetDeviceClassEhhh>:
    6726:	f3 0f 1e fa          	endbr64
    672a:	55                   	push   %rbp
    672b:	48 89 e5             	mov    %rsp,%rbp
    672e:	48 89 7d f8          	mov    %rdi,-0x8(%rbp)
    6732:	89 c8                	mov    %ecx,%eax
    6734:	89 f1                	mov    %esi,%ecx
    6736:	88 4d f4             	mov    %cl,-0xc(%rbp)
    6739:	88 55 f0             	mov    %dl,-0x10(%rbp)
    673c:	88 45 ec             	mov    %al,-0x14(%rbp)
    673f:	0f b6 45 f4          	movzbl -0xc(%rbp),%eax
    6743:	c1 e0 18             	shl    $0x18,%eax
    6746:	89 c2                	mov    %eax,%edx
    6748:	0f b6 45 f0          	movzbl -0x10(%rbp),%eax
    674c:	c1 e0 10             	shl    $0x10,%eax
    674f:	09 c2                	or     %eax,%edx
    6751:	0f b6 45 ec          	movzbl -0x14(%rbp),%eax
    6755:	c1 e0 08             	shl    $0x8,%eax
    6758:	09 d0                	or     %edx,%eax
    675a:	5d                   	pop    %rbp
    675b:	c3                   	ret

000000000000675c <_ZN4PCIe12GetClassCodeEh>:
    675c:	f3 0f 1e fa          	endbr64
    6760:	55                   	push   %rbp
    6761:	48 89 e5             	mov    %rsp,%rbp
    6764:	48 89 7d f8          	mov    %rdi,-0x8(%rbp)
    6768:	89 f0                	mov    %esi,%eax
    676a:	88 45 f4             	mov    %al,-0xc(%rbp)
    676d:	0f b6 45 f4          	movzbl -0xc(%rbp),%eax
    6771:	83 f8 12             	cmp    $0x12,%eax
    6774:	0f 87 dd 00 00 00    	ja     6857 <_ZN4PCIe12GetClassCodeEh+0xfb>
    677a:	89 c0                	mov    %eax,%eax
    677c:	48 8d 14 85 00 00 00 	lea    0x0(,%rax,4),%rdx
    6783:	00 
    6784:	48 8d 05 65 23 01 00 	lea    0x12365(%rip),%rax        # 18af0 <_ZL4font+0x11b0>
    678b:	8b 04 02             	mov    (%rdx,%rax,1),%eax
    678e:	48 98                	cltq
    6790:	48 8d 15 59 23 01 00 	lea    0x12359(%rip),%rdx        # 18af0 <_ZL4font+0x11b0>
    6797:	48 01 d0             	add    %rdx,%rax
    679a:	3e ff e0             	notrack jmp *%rax
    679d:	48 8d 05 a1 21 01 00 	lea    0x121a1(%rip),%rax        # 18945 <_ZL4font+0x1005>
    67a4:	e9 b5 00 00 00       	jmp    685e <_ZN4PCIe12GetClassCodeEh+0x102>
    67a9:	48 8d 05 a2 21 01 00 	lea    0x121a2(%rip),%rax        # 18952 <_ZL4font+0x1012>
    67b0:	e9 a9 00 00 00       	jmp    685e <_ZN4PCIe12GetClassCodeEh+0x102>
    67b5:	48 8d 05 ae 21 01 00 	lea    0x121ae(%rip),%rax        # 1896a <_ZL4font+0x102a>
    67bc:	e9 9d 00 00 00       	jmp    685e <_ZN4PCIe12GetClassCodeEh+0x102>
    67c1:	48 8d 05 b5 21 01 00 	lea    0x121b5(%rip),%rax        # 1897d <_ZL4font+0x103d>
    67c8:	e9 91 00 00 00       	jmp    685e <_ZN4PCIe12GetClassCodeEh+0x102>
    67cd:	48 8d 05 bc 21 01 00 	lea    0x121bc(%rip),%rax        # 18990 <_ZL4font+0x1050>
    67d4:	e9 85 00 00 00       	jmp    685e <_ZN4PCIe12GetClassCodeEh+0x102>
    67d9:	48 8d 05 c6 21 01 00 	lea    0x121c6(%rip),%rax        # 189a6 <_ZL4font+0x1066>
    67e0:	eb 7c                	jmp    685e <_ZN4PCIe12GetClassCodeEh+0x102>
    67e2:	48 8d 05 cf 21 01 00 	lea    0x121cf(%rip),%rax        # 189b8 <_ZL4font+0x1078>
    67e9:	eb 73                	jmp    685e <_ZN4PCIe12GetClassCodeEh+0x102>
    67eb:	48 8d 05 ce 21 01 00 	lea    0x121ce(%rip),%rax        # 189c0 <_ZL4font+0x1080>
    67f2:	eb 6a                	jmp    685e <_ZN4PCIe12GetClassCodeEh+0x102>
    67f4:	48 8d 05 e5 21 01 00 	lea    0x121e5(%rip),%rax        # 189e0 <_ZL4font+0x10a0>
    67fb:	eb 61                	jmp    685e <_ZN4PCIe12GetClassCodeEh+0x102>
    67fd:	48 8d 05 f3 21 01 00 	lea    0x121f3(%rip),%rax        # 189f7 <_ZL4font+0x10b7>
    6804:	eb 58                	jmp    685e <_ZN4PCIe12GetClassCodeEh+0x102>
    6806:	48 8d 05 02 22 01 00 	lea    0x12202(%rip),%rax        # 18a0f <_ZL4font+0x10cf>
    680d:	eb 4f                	jmp    685e <_ZN4PCIe12GetClassCodeEh+0x102>
    680f:	48 8d 05 09 22 01 00 	lea    0x12209(%rip),%rax        # 18a1f <_ZL4font+0x10df>
    6816:	eb 46                	jmp    685e <_ZN4PCIe12GetClassCodeEh+0x102>
    6818:	48 8d 05 0a 22 01 00 	lea    0x1220a(%rip),%rax        # 18a29 <_ZL4font+0x10e9>
    681f:	eb 3d                	jmp    685e <_ZN4PCIe12GetClassCodeEh+0x102>
    6821:	48 8d 05 17 22 01 00 	lea    0x12217(%rip),%rax        # 18a3f <_ZL4font+0x10ff>
    6828:	eb 34                	jmp    685e <_ZN4PCIe12GetClassCodeEh+0x102>
    682a:	48 8d 05 22 22 01 00 	lea    0x12222(%rip),%rax        # 18a53 <_ZL4font+0x1113>
    6831:	eb 2b                	jmp    685e <_ZN4PCIe12GetClassCodeEh+0x102>
    6833:	48 8d 05 36 22 01 00 	lea    0x12236(%rip),%rax        # 18a70 <_ZL4font+0x1130>
    683a:	eb 22                	jmp    685e <_ZN4PCIe12GetClassCodeEh+0x102>
    683c:	48 8d 05 50 22 01 00 	lea    0x12250(%rip),%rax        # 18a93 <_ZL4font+0x1153>
    6843:	eb 19                	jmp    685e <_ZN4PCIe12GetClassCodeEh+0x102>
    6845:	48 8d 05 5d 22 01 00 	lea    0x1225d(%rip),%rax        # 18aa9 <_ZL4font+0x1169>
    684c:	eb 10                	jmp    685e <_ZN4PCIe12GetClassCodeEh+0x102>
    684e:	48 8d 05 71 22 01 00 	lea    0x12271(%rip),%rax        # 18ac6 <_ZL4font+0x1186>
    6855:	eb 07                	jmp    685e <_ZN4PCIe12GetClassCodeEh+0x102>
    6857:	48 8d 05 7f 22 01 00 	lea    0x1227f(%rip),%rax        # 18add <_ZL4font+0x119d>
    685e:	5d                   	pop    %rbp
    685f:	c3                   	ret

0000000000006860 <_ZN4PCIe13GetDeviceCodeEhhh>:
    6860:	f3 0f 1e fa          	endbr64
    6864:	55                   	push   %rbp
    6865:	48 89 e5             	mov    %rsp,%rbp
    6868:	48 89 7d f8          	mov    %rdi,-0x8(%rbp)
    686c:	89 c8                	mov    %ecx,%eax
    686e:	89 f1                	mov    %esi,%ecx
    6870:	88 4d f4             	mov    %cl,-0xc(%rbp)
    6873:	88 55 f0             	mov    %dl,-0x10(%rbp)
    6876:	88 45 ec             	mov    %al,-0x14(%rbp)
    6879:	0f b6 45 f4          	movzbl -0xc(%rbp),%eax
    687d:	83 f8 41             	cmp    $0x41,%eax
    6880:	7f 34                	jg     68b6 <_ZN4PCIe13GetDeviceCodeEhhh+0x56>
    6882:	85 c0                	test   %eax,%eax
    6884:	0f 88 c4 0f 00 00    	js     784e <_ZN4PCIe13GetDeviceCodeEhhh+0xfee>
    688a:	83 f8 41             	cmp    $0x41,%eax
    688d:	0f 87 bb 0f 00 00    	ja     784e <_ZN4PCIe13GetDeviceCodeEhhh+0xfee>
    6893:	89 c0                	mov    %eax,%eax
    6895:	48 8d 14 85 00 00 00 	lea    0x0(,%rax,4),%rdx
    689c:	00 
    689d:	48 8d 05 6c 42 01 00 	lea    0x1426c(%rip),%rax        # 1ab10 <_ZL4font+0x31d0>
    68a4:	8b 04 02             	mov    (%rdx,%rax,1),%eax
    68a7:	48 98                	cltq
    68a9:	48 8d 15 60 42 01 00 	lea    0x14260(%rip),%rdx        # 1ab10 <_ZL4font+0x31d0>
    68b0:	48 01 d0             	add    %rdx,%rax
    68b3:	3e ff e0             	notrack jmp *%rax
    68b6:	3d ff 00 00 00       	cmp    $0xff,%eax
    68bb:	0f 84 84 0f 00 00    	je     7845 <_ZN4PCIe13GetDeviceCodeEhhh+0xfe5>
    68c1:	e9 88 0f 00 00       	jmp    784e <_ZN4PCIe13GetDeviceCodeEhhh+0xfee>
    68c6:	0f b6 45 f0          	movzbl -0x10(%rbp),%eax
    68ca:	85 c0                	test   %eax,%eax
    68cc:	74 07                	je     68d5 <_ZN4PCIe13GetDeviceCodeEhhh+0x75>
    68ce:	83 f8 01             	cmp    $0x1,%eax
    68d1:	74 0e                	je     68e1 <_ZN4PCIe13GetDeviceCodeEhhh+0x81>
    68d3:	eb 18                	jmp    68ed <_ZN4PCIe13GetDeviceCodeEhhh+0x8d>
    68d5:	48 8d 05 64 22 01 00 	lea    0x12264(%rip),%rax        # 18b40 <_ZL4font+0x1200>
    68dc:	e9 74 0f 00 00       	jmp    7855 <_ZN4PCIe13GetDeviceCodeEhhh+0xff5>
    68e1:	48 8d 05 79 22 01 00 	lea    0x12279(%rip),%rax        # 18b61 <_ZL4font+0x1221>
    68e8:	e9 68 0f 00 00       	jmp    7855 <_ZN4PCIe13GetDeviceCodeEhhh+0xff5>
    68ed:	48 8d 05 8a 22 01 00 	lea    0x1228a(%rip),%rax        # 18b7e <_ZL4font+0x123e>
    68f4:	e9 5c 0f 00 00       	jmp    7855 <_ZN4PCIe13GetDeviceCodeEhhh+0xff5>
    68f9:	0f b6 45 f0          	movzbl -0x10(%rbp),%eax
    68fd:	83 f8 08             	cmp    $0x8,%eax
    6900:	7f 34                	jg     6936 <_ZN4PCIe13GetDeviceCodeEhhh+0xd6>
    6902:	85 c0                	test   %eax,%eax
    6904:	0f 88 37 02 00 00    	js     6b41 <_ZN4PCIe13GetDeviceCodeEhhh+0x2e1>
    690a:	83 f8 08             	cmp    $0x8,%eax
    690d:	0f 87 2e 02 00 00    	ja     6b41 <_ZN4PCIe13GetDeviceCodeEhhh+0x2e1>
    6913:	89 c0                	mov    %eax,%eax
    6915:	48 8d 14 85 00 00 00 	lea    0x0(,%rax,4),%rdx
    691c:	00 
    691d:	48 8d 05 f4 42 01 00 	lea    0x142f4(%rip),%rax        # 1ac18 <_ZL4font+0x32d8>
    6924:	8b 04 02             	mov    (%rdx,%rax,1),%eax
    6927:	48 98                	cltq
    6929:	48 8d 15 e8 42 01 00 	lea    0x142e8(%rip),%rdx        # 1ac18 <_ZL4font+0x32d8>
    6930:	48 01 d0             	add    %rdx,%rax
    6933:	3e ff e0             	notrack jmp *%rax
    6936:	3d 80 00 00 00       	cmp    $0x80,%eax
    693b:	0f 84 f4 01 00 00    	je     6b35 <_ZN4PCIe13GetDeviceCodeEhhh+0x2d5>
    6941:	e9 fb 01 00 00       	jmp    6b41 <_ZN4PCIe13GetDeviceCodeEhhh+0x2e1>
    6946:	48 8d 05 47 22 01 00 	lea    0x12247(%rip),%rax        # 18b94 <_ZL4font+0x1254>
    694d:	e9 03 0f 00 00       	jmp    7855 <_ZN4PCIe13GetDeviceCodeEhhh+0xff5>
    6952:	0f b6 45 ec          	movzbl -0x14(%rbp),%eax
    6956:	3d 8f 00 00 00       	cmp    $0x8f,%eax
    695b:	0f 84 b4 00 00 00    	je     6a15 <_ZN4PCIe13GetDeviceCodeEhhh+0x1b5>
    6961:	3d 8f 00 00 00       	cmp    $0x8f,%eax
    6966:	0f 8f b5 00 00 00    	jg     6a21 <_ZN4PCIe13GetDeviceCodeEhhh+0x1c1>
    696c:	3d 8a 00 00 00       	cmp    $0x8a,%eax
    6971:	0f 84 92 00 00 00    	je     6a09 <_ZN4PCIe13GetDeviceCodeEhhh+0x1a9>
    6977:	3d 8a 00 00 00       	cmp    $0x8a,%eax
    697c:	0f 8f 9f 00 00 00    	jg     6a21 <_ZN4PCIe13GetDeviceCodeEhhh+0x1c1>
    6982:	3d 85 00 00 00       	cmp    $0x85,%eax
    6987:	74 74                	je     69fd <_ZN4PCIe13GetDeviceCodeEhhh+0x19d>
    6989:	3d 85 00 00 00       	cmp    $0x85,%eax
    698e:	0f 8f 8d 00 00 00    	jg     6a21 <_ZN4PCIe13GetDeviceCodeEhhh+0x1c1>
    6994:	3d 80 00 00 00       	cmp    $0x80,%eax
    6999:	74 56                	je     69f1 <_ZN4PCIe13GetDeviceCodeEhhh+0x191>
    699b:	3d 80 00 00 00       	cmp    $0x80,%eax
    69a0:	7f 7f                	jg     6a21 <_ZN4PCIe13GetDeviceCodeEhhh+0x1c1>
    69a2:	83 f8 0f             	cmp    $0xf,%eax
    69a5:	74 3e                	je     69e5 <_ZN4PCIe13GetDeviceCodeEhhh+0x185>
    69a7:	83 f8 0f             	cmp    $0xf,%eax
    69aa:	7f 75                	jg     6a21 <_ZN4PCIe13GetDeviceCodeEhhh+0x1c1>
    69ac:	83 f8 0a             	cmp    $0xa,%eax
    69af:	74 28                	je     69d9 <_ZN4PCIe13GetDeviceCodeEhhh+0x179>
    69b1:	83 f8 0a             	cmp    $0xa,%eax
    69b4:	7f 6b                	jg     6a21 <_ZN4PCIe13GetDeviceCodeEhhh+0x1c1>
    69b6:	85 c0                	test   %eax,%eax
    69b8:	74 07                	je     69c1 <_ZN4PCIe13GetDeviceCodeEhhh+0x161>
    69ba:	83 f8 05             	cmp    $0x5,%eax
    69bd:	74 0e                	je     69cd <_ZN4PCIe13GetDeviceCodeEhhh+0x16d>
    69bf:	eb 60                	jmp    6a21 <_ZN4PCIe13GetDeviceCodeEhhh+0x1c1>
    69c1:	48 8d 05 f0 21 01 00 	lea    0x121f0(%rip),%rax        # 18bb8 <_ZL4font+0x1278>
    69c8:	e9 88 0e 00 00       	jmp    7855 <_ZN4PCIe13GetDeviceCodeEhhh+0xff5>
    69cd:	48 8d 05 24 22 01 00 	lea    0x12224(%rip),%rax        # 18bf8 <_ZL4font+0x12b8>
    69d4:	e9 7c 0e 00 00       	jmp    7855 <_ZN4PCIe13GetDeviceCodeEhhh+0xff5>
    69d9:	48 8d 05 50 22 01 00 	lea    0x12250(%rip),%rax        # 18c30 <_ZL4font+0x12f0>
    69e0:	e9 70 0e 00 00       	jmp    7855 <_ZN4PCIe13GetDeviceCodeEhhh+0xff5>
    69e5:	48 8d 05 7c 22 01 00 	lea    0x1227c(%rip),%rax        # 18c68 <_ZL4font+0x1328>
    69ec:	e9 64 0e 00 00       	jmp    7855 <_ZN4PCIe13GetDeviceCodeEhhh+0xff5>
    69f1:	48 8d 05 a0 22 01 00 	lea    0x122a0(%rip),%rax        # 18c98 <_ZL4font+0x1358>
    69f8:	e9 58 0e 00 00       	jmp    7855 <_ZN4PCIe13GetDeviceCodeEhhh+0xff5>
    69fd:	48 8d 05 e4 22 01 00 	lea    0x122e4(%rip),%rax        # 18ce8 <_ZL4font+0x13a8>
    6a04:	e9 4c 0e 00 00       	jmp    7855 <_ZN4PCIe13GetDeviceCodeEhhh+0xff5>
    6a09:	48 8d 05 20 23 01 00 	lea    0x12320(%rip),%rax        # 18d30 <_ZL4font+0x13f0>
    6a10:	e9 40 0e 00 00       	jmp    7855 <_ZN4PCIe13GetDeviceCodeEhhh+0xff5>
    6a15:	48 8d 05 5c 23 01 00 	lea    0x1235c(%rip),%rax        # 18d78 <_ZL4font+0x1438>
    6a1c:	e9 34 0e 00 00       	jmp    7855 <_ZN4PCIe13GetDeviceCodeEhhh+0xff5>
    6a21:	48 8d 05 90 23 01 00 	lea    0x12390(%rip),%rax        # 18db8 <_ZL4font+0x1478>
    6a28:	e9 28 0e 00 00       	jmp    7855 <_ZN4PCIe13GetDeviceCodeEhhh+0xff5>
    6a2d:	48 8d 05 ac 23 01 00 	lea    0x123ac(%rip),%rax        # 18de0 <_ZL4font+0x14a0>
    6a34:	e9 1c 0e 00 00       	jmp    7855 <_ZN4PCIe13GetDeviceCodeEhhh+0xff5>
    6a39:	48 8d 05 c5 23 01 00 	lea    0x123c5(%rip),%rax        # 18e05 <_ZL4font+0x14c5>
    6a40:	e9 10 0e 00 00       	jmp    7855 <_ZN4PCIe13GetDeviceCodeEhhh+0xff5>
    6a45:	48 8d 05 d6 23 01 00 	lea    0x123d6(%rip),%rax        # 18e22 <_ZL4font+0x14e2>
    6a4c:	e9 04 0e 00 00       	jmp    7855 <_ZN4PCIe13GetDeviceCodeEhhh+0xff5>
    6a51:	0f b6 45 ec          	movzbl -0x14(%rbp),%eax
    6a55:	83 f8 20             	cmp    $0x20,%eax
    6a58:	74 07                	je     6a61 <_ZN4PCIe13GetDeviceCodeEhhh+0x201>
    6a5a:	83 f8 30             	cmp    $0x30,%eax
    6a5d:	74 0e                	je     6a6d <_ZN4PCIe13GetDeviceCodeEhhh+0x20d>
    6a5f:	eb 18                	jmp    6a79 <_ZN4PCIe13GetDeviceCodeEhhh+0x219>
    6a61:	48 8d 05 d8 23 01 00 	lea    0x123d8(%rip),%rax        # 18e40 <_ZL4font+0x1500>
    6a68:	e9 e8 0d 00 00       	jmp    7855 <_ZN4PCIe13GetDeviceCodeEhhh+0xff5>
    6a6d:	48 8d 05 fc 23 01 00 	lea    0x123fc(%rip),%rax        # 18e70 <_ZL4font+0x1530>
    6a74:	e9 dc 0d 00 00       	jmp    7855 <_ZN4PCIe13GetDeviceCodeEhhh+0xff5>
    6a79:	48 8d 05 20 24 01 00 	lea    0x12420(%rip),%rax        # 18ea0 <_ZL4font+0x1560>
    6a80:	e9 d0 0d 00 00       	jmp    7855 <_ZN4PCIe13GetDeviceCodeEhhh+0xff5>
    6a85:	0f b6 45 ec          	movzbl -0x14(%rbp),%eax
    6a89:	83 f8 02             	cmp    $0x2,%eax
    6a8c:	74 28                	je     6ab6 <_ZN4PCIe13GetDeviceCodeEhhh+0x256>
    6a8e:	83 f8 02             	cmp    $0x2,%eax
    6a91:	7f 2f                	jg     6ac2 <_ZN4PCIe13GetDeviceCodeEhhh+0x262>
    6a93:	85 c0                	test   %eax,%eax
    6a95:	74 07                	je     6a9e <_ZN4PCIe13GetDeviceCodeEhhh+0x23e>
    6a97:	83 f8 01             	cmp    $0x1,%eax
    6a9a:	74 0e                	je     6aaa <_ZN4PCIe13GetDeviceCodeEhhh+0x24a>
    6a9c:	eb 24                	jmp    6ac2 <_ZN4PCIe13GetDeviceCodeEhhh+0x262>
    6a9e:	48 8d 05 23 24 01 00 	lea    0x12423(%rip),%rax        # 18ec8 <_ZL4font+0x1588>
    6aa5:	e9 ab 0d 00 00       	jmp    7855 <_ZN4PCIe13GetDeviceCodeEhhh+0xff5>
    6aaa:	48 8d 05 57 24 01 00 	lea    0x12457(%rip),%rax        # 18f08 <_ZL4font+0x15c8>
    6ab1:	e9 9f 0d 00 00       	jmp    7855 <_ZN4PCIe13GetDeviceCodeEhhh+0xff5>
    6ab6:	48 8d 05 7b 24 01 00 	lea    0x1247b(%rip),%rax        # 18f38 <_ZL4font+0x15f8>
    6abd:	e9 93 0d 00 00       	jmp    7855 <_ZN4PCIe13GetDeviceCodeEhhh+0xff5>
    6ac2:	48 8d 05 a7 24 01 00 	lea    0x124a7(%rip),%rax        # 18f70 <_ZL4font+0x1630>
    6ac9:	e9 87 0d 00 00       	jmp    7855 <_ZN4PCIe13GetDeviceCodeEhhh+0xff5>
    6ace:	0f b6 45 ec          	movzbl -0x14(%rbp),%eax
    6ad2:	85 c0                	test   %eax,%eax
    6ad4:	74 07                	je     6add <_ZN4PCIe13GetDeviceCodeEhhh+0x27d>
    6ad6:	83 f8 01             	cmp    $0x1,%eax
    6ad9:	74 0e                	je     6ae9 <_ZN4PCIe13GetDeviceCodeEhhh+0x289>
    6adb:	eb 18                	jmp    6af5 <_ZN4PCIe13GetDeviceCodeEhhh+0x295>
    6add:	48 8d 05 bc 24 01 00 	lea    0x124bc(%rip),%rax        # 18fa0 <_ZL4font+0x1660>
    6ae4:	e9 6c 0d 00 00       	jmp    7855 <_ZN4PCIe13GetDeviceCodeEhhh+0xff5>
    6ae9:	48 8d 05 e0 24 01 00 	lea    0x124e0(%rip),%rax        # 18fd0 <_ZL4font+0x1690>
    6af0:	e9 60 0d 00 00       	jmp    7855 <_ZN4PCIe13GetDeviceCodeEhhh+0xff5>
    6af5:	48 8d 05 1c 25 01 00 	lea    0x1251c(%rip),%rax        # 19018 <_ZL4font+0x16d8>
    6afc:	e9 54 0d 00 00       	jmp    7855 <_ZN4PCIe13GetDeviceCodeEhhh+0xff5>
    6b01:	0f b6 45 ec          	movzbl -0x14(%rbp),%eax
    6b05:	83 f8 01             	cmp    $0x1,%eax
    6b08:	74 07                	je     6b11 <_ZN4PCIe13GetDeviceCodeEhhh+0x2b1>
    6b0a:	83 f8 02             	cmp    $0x2,%eax
    6b0d:	74 0e                	je     6b1d <_ZN4PCIe13GetDeviceCodeEhhh+0x2bd>
    6b0f:	eb 18                	jmp    6b29 <_ZN4PCIe13GetDeviceCodeEhhh+0x2c9>
    6b11:	48 8d 05 38 25 01 00 	lea    0x12538(%rip),%rax        # 19050 <_ZL4font+0x1710>
    6b18:	e9 38 0d 00 00       	jmp    7855 <_ZN4PCIe13GetDeviceCodeEhhh+0xff5>
    6b1d:	48 8d 05 64 25 01 00 	lea    0x12564(%rip),%rax        # 19088 <_ZL4font+0x1748>
    6b24:	e9 2c 0d 00 00       	jmp    7855 <_ZN4PCIe13GetDeviceCodeEhhh+0xff5>
    6b29:	48 8d 05 98 25 01 00 	lea    0x12598(%rip),%rax        # 190c8 <_ZL4font+0x1788>
    6b30:	e9 20 0d 00 00       	jmp    7855 <_ZN4PCIe13GetDeviceCodeEhhh+0xff5>
    6b35:	48 8d 05 c4 25 01 00 	lea    0x125c4(%rip),%rax        # 19100 <_ZL4font+0x17c0>
    6b3c:	e9 14 0d 00 00       	jmp    7855 <_ZN4PCIe13GetDeviceCodeEhhh+0xff5>
    6b41:	48 8d 05 d8 25 01 00 	lea    0x125d8(%rip),%rax        # 19120 <_ZL4font+0x17e0>
    6b48:	e9 08 0d 00 00       	jmp    7855 <_ZN4PCIe13GetDeviceCodeEhhh+0xff5>
    6b4d:	0f b6 45 f0          	movzbl -0x10(%rbp),%eax
    6b51:	83 f8 08             	cmp    $0x8,%eax
    6b54:	7f 34                	jg     6b8a <_ZN4PCIe13GetDeviceCodeEhhh+0x32a>
    6b56:	85 c0                	test   %eax,%eax
    6b58:	0f 88 ad 00 00 00    	js     6c0b <_ZN4PCIe13GetDeviceCodeEhhh+0x3ab>
    6b5e:	83 f8 08             	cmp    $0x8,%eax
    6b61:	0f 87 a4 00 00 00    	ja     6c0b <_ZN4PCIe13GetDeviceCodeEhhh+0x3ab>
    6b67:	89 c0                	mov    %eax,%eax
    6b69:	48 8d 14 85 00 00 00 	lea    0x0(,%rax,4),%rdx
    6b70:	00 
    6b71:	48 8d 05 c4 40 01 00 	lea    0x140c4(%rip),%rax        # 1ac3c <_ZL4font+0x32fc>
    6b78:	8b 04 02             	mov    (%rdx,%rax,1),%eax
    6b7b:	48 98                	cltq
    6b7d:	48 8d 15 b8 40 01 00 	lea    0x140b8(%rip),%rdx        # 1ac3c <_ZL4font+0x32fc>
    6b84:	48 01 d0             	add    %rdx,%rax
    6b87:	3e ff e0             	notrack jmp *%rax
    6b8a:	3d 80 00 00 00       	cmp    $0x80,%eax
    6b8f:	74 6e                	je     6bff <_ZN4PCIe13GetDeviceCodeEhhh+0x39f>
    6b91:	eb 78                	jmp    6c0b <_ZN4PCIe13GetDeviceCodeEhhh+0x3ab>
    6b93:	48 8d 05 a7 25 01 00 	lea    0x125a7(%rip),%rax        # 19141 <_ZL4font+0x1801>
    6b9a:	e9 b6 0c 00 00       	jmp    7855 <_ZN4PCIe13GetDeviceCodeEhhh+0xff5>
    6b9f:	48 8d 05 ba 25 01 00 	lea    0x125ba(%rip),%rax        # 19160 <_ZL4font+0x1820>
    6ba6:	e9 aa 0c 00 00       	jmp    7855 <_ZN4PCIe13GetDeviceCodeEhhh+0xff5>
    6bab:	48 8d 05 cd 25 01 00 	lea    0x125cd(%rip),%rax        # 1917f <_ZL4font+0x183f>
    6bb2:	e9 9e 0c 00 00       	jmp    7855 <_ZN4PCIe13GetDeviceCodeEhhh+0xff5>
    6bb7:	48 8d 05 da 25 01 00 	lea    0x125da(%rip),%rax        # 19198 <_ZL4font+0x1858>
    6bbe:	e9 92 0c 00 00       	jmp    7855 <_ZN4PCIe13GetDeviceCodeEhhh+0xff5>
    6bc3:	48 8d 05 e6 25 01 00 	lea    0x125e6(%rip),%rax        # 191b0 <_ZL4font+0x1870>
    6bca:	e9 86 0c 00 00       	jmp    7855 <_ZN4PCIe13GetDeviceCodeEhhh+0xff5>
    6bcf:	48 8d 05 f3 25 01 00 	lea    0x125f3(%rip),%rax        # 191c9 <_ZL4font+0x1889>
    6bd6:	e9 7a 0c 00 00       	jmp    7855 <_ZN4PCIe13GetDeviceCodeEhhh+0xff5>
    6bdb:	48 8d 05 04 26 01 00 	lea    0x12604(%rip),%rax        # 191e6 <_ZL4font+0x18a6>
    6be2:	e9 6e 0c 00 00       	jmp    7855 <_ZN4PCIe13GetDeviceCodeEhhh+0xff5>
    6be7:	48 8d 05 12 26 01 00 	lea    0x12612(%rip),%rax        # 19200 <_ZL4font+0x18c0>
    6bee:	e9 62 0c 00 00       	jmp    7855 <_ZN4PCIe13GetDeviceCodeEhhh+0xff5>
    6bf3:	48 8d 05 25 26 01 00 	lea    0x12625(%rip),%rax        # 1921f <_ZL4font+0x18df>
    6bfa:	e9 56 0c 00 00       	jmp    7855 <_ZN4PCIe13GetDeviceCodeEhhh+0xff5>
    6bff:	48 8d 05 34 26 01 00 	lea    0x12634(%rip),%rax        # 1923a <_ZL4font+0x18fa>
    6c06:	e9 4a 0c 00 00       	jmp    7855 <_ZN4PCIe13GetDeviceCodeEhhh+0xff5>
    6c0b:	48 8d 05 42 26 01 00 	lea    0x12642(%rip),%rax        # 19254 <_ZL4font+0x1914>
    6c12:	e9 3e 0c 00 00       	jmp    7855 <_ZN4PCIe13GetDeviceCodeEhhh+0xff5>
    6c17:	0f b6 45 f0          	movzbl -0x10(%rbp),%eax
    6c1b:	3d 80 00 00 00       	cmp    $0x80,%eax
    6c20:	74 67                	je     6c89 <_ZN4PCIe13GetDeviceCodeEhhh+0x429>
    6c22:	3d 80 00 00 00       	cmp    $0x80,%eax
    6c27:	7f 6c                	jg     6c95 <_ZN4PCIe13GetDeviceCodeEhhh+0x435>
    6c29:	83 f8 02             	cmp    $0x2,%eax
    6c2c:	74 4f                	je     6c7d <_ZN4PCIe13GetDeviceCodeEhhh+0x41d>
    6c2e:	83 f8 02             	cmp    $0x2,%eax
    6c31:	7f 62                	jg     6c95 <_ZN4PCIe13GetDeviceCodeEhhh+0x435>
    6c33:	85 c0                	test   %eax,%eax
    6c35:	74 07                	je     6c3e <_ZN4PCIe13GetDeviceCodeEhhh+0x3de>
    6c37:	83 f8 01             	cmp    $0x1,%eax
    6c3a:	74 35                	je     6c71 <_ZN4PCIe13GetDeviceCodeEhhh+0x411>
    6c3c:	eb 57                	jmp    6c95 <_ZN4PCIe13GetDeviceCodeEhhh+0x435>
    6c3e:	0f b6 45 ec          	movzbl -0x14(%rbp),%eax
    6c42:	85 c0                	test   %eax,%eax
    6c44:	74 07                	je     6c4d <_ZN4PCIe13GetDeviceCodeEhhh+0x3ed>
    6c46:	83 f8 01             	cmp    $0x1,%eax
    6c49:	74 0e                	je     6c59 <_ZN4PCIe13GetDeviceCodeEhhh+0x3f9>
    6c4b:	eb 18                	jmp    6c65 <_ZN4PCIe13GetDeviceCodeEhhh+0x405>
    6c4d:	48 8d 05 1c 26 01 00 	lea    0x1261c(%rip),%rax        # 19270 <_ZL4font+0x1930>
    6c54:	e9 fc 0b 00 00       	jmp    7855 <_ZN4PCIe13GetDeviceCodeEhhh+0xff5>
    6c59:	48 8d 05 28 26 01 00 	lea    0x12628(%rip),%rax        # 19288 <_ZL4font+0x1948>
    6c60:	e9 f0 0b 00 00       	jmp    7855 <_ZN4PCIe13GetDeviceCodeEhhh+0xff5>
    6c65:	48 8d 05 44 26 01 00 	lea    0x12644(%rip),%rax        # 192b0 <_ZL4font+0x1970>
    6c6c:	e9 e4 0b 00 00       	jmp    7855 <_ZN4PCIe13GetDeviceCodeEhhh+0xff5>
    6c71:	48 8d 05 59 26 01 00 	lea    0x12659(%rip),%rax        # 192d1 <_ZL4font+0x1991>
    6c78:	e9 d8 0b 00 00       	jmp    7855 <_ZN4PCIe13GetDeviceCodeEhhh+0xff5>
    6c7d:	48 8d 05 65 26 01 00 	lea    0x12665(%rip),%rax        # 192e9 <_ZL4font+0x19a9>
    6c84:	e9 cc 0b 00 00       	jmp    7855 <_ZN4PCIe13GetDeviceCodeEhhh+0xff5>
    6c89:	48 8d 05 70 26 01 00 	lea    0x12670(%rip),%rax        # 19300 <_ZL4font+0x19c0>
    6c90:	e9 c0 0b 00 00       	jmp    7855 <_ZN4PCIe13GetDeviceCodeEhhh+0xff5>
    6c95:	48 8d 05 7e 26 01 00 	lea    0x1267e(%rip),%rax        # 1931a <_ZL4font+0x19da>
    6c9c:	e9 b4 0b 00 00       	jmp    7855 <_ZN4PCIe13GetDeviceCodeEhhh+0xff5>
    6ca1:	0f b6 45 f0          	movzbl -0x10(%rbp),%eax
    6ca5:	3d 80 00 00 00       	cmp    $0x80,%eax
    6caa:	74 56                	je     6d02 <_ZN4PCIe13GetDeviceCodeEhhh+0x4a2>
    6cac:	3d 80 00 00 00       	cmp    $0x80,%eax
    6cb1:	7f 5b                	jg     6d0e <_ZN4PCIe13GetDeviceCodeEhhh+0x4ae>
    6cb3:	83 f8 03             	cmp    $0x3,%eax
    6cb6:	74 3e                	je     6cf6 <_ZN4PCIe13GetDeviceCodeEhhh+0x496>
    6cb8:	83 f8 03             	cmp    $0x3,%eax
    6cbb:	7f 51                	jg     6d0e <_ZN4PCIe13GetDeviceCodeEhhh+0x4ae>
    6cbd:	83 f8 02             	cmp    $0x2,%eax
    6cc0:	74 28                	je     6cea <_ZN4PCIe13GetDeviceCodeEhhh+0x48a>
    6cc2:	83 f8 02             	cmp    $0x2,%eax
    6cc5:	7f 47                	jg     6d0e <_ZN4PCIe13GetDeviceCodeEhhh+0x4ae>
    6cc7:	85 c0                	test   %eax,%eax
    6cc9:	74 07                	je     6cd2 <_ZN4PCIe13GetDeviceCodeEhhh+0x472>
    6ccb:	83 f8 01             	cmp    $0x1,%eax
    6cce:	74 0e                	je     6cde <_ZN4PCIe13GetDeviceCodeEhhh+0x47e>
    6cd0:	eb 3c                	jmp    6d0e <_ZN4PCIe13GetDeviceCodeEhhh+0x4ae>
    6cd2:	48 8d 05 5d 26 01 00 	lea    0x1265d(%rip),%rax        # 19336 <_ZL4font+0x19f6>
    6cd9:	e9 77 0b 00 00       	jmp    7855 <_ZN4PCIe13GetDeviceCodeEhhh+0xff5>
    6cde:	48 8d 05 6e 26 01 00 	lea    0x1266e(%rip),%rax        # 19353 <_ZL4font+0x1a13>
    6ce5:	e9 6b 0b 00 00       	jmp    7855 <_ZN4PCIe13GetDeviceCodeEhhh+0xff5>
    6cea:	48 8d 05 7f 26 01 00 	lea    0x1267f(%rip),%rax        # 19370 <_ZL4font+0x1a30>
    6cf1:	e9 5f 0b 00 00       	jmp    7855 <_ZN4PCIe13GetDeviceCodeEhhh+0xff5>
    6cf6:	48 8d 05 ab 26 01 00 	lea    0x126ab(%rip),%rax        # 193a8 <_ZL4font+0x1a68>
    6cfd:	e9 53 0b 00 00       	jmp    7855 <_ZN4PCIe13GetDeviceCodeEhhh+0xff5>
    6d02:	48 8d 05 c3 26 01 00 	lea    0x126c3(%rip),%rax        # 193cc <_ZL4font+0x1a8c>
    6d09:	e9 47 0b 00 00       	jmp    7855 <_ZN4PCIe13GetDeviceCodeEhhh+0xff5>
    6d0e:	48 8d 05 db 26 01 00 	lea    0x126db(%rip),%rax        # 193f0 <_ZL4font+0x1ab0>
    6d15:	e9 3b 0b 00 00       	jmp    7855 <_ZN4PCIe13GetDeviceCodeEhhh+0xff5>
    6d1a:	0f b6 45 f0          	movzbl -0x10(%rbp),%eax
    6d1e:	3d 80 00 00 00       	cmp    $0x80,%eax
    6d23:	74 2a                	je     6d4f <_ZN4PCIe13GetDeviceCodeEhhh+0x4ef>
    6d25:	3d 80 00 00 00       	cmp    $0x80,%eax
    6d2a:	7f 2f                	jg     6d5b <_ZN4PCIe13GetDeviceCodeEhhh+0x4fb>
    6d2c:	85 c0                	test   %eax,%eax
    6d2e:	74 07                	je     6d37 <_ZN4PCIe13GetDeviceCodeEhhh+0x4d7>
    6d30:	83 f8 01             	cmp    $0x1,%eax
    6d33:	74 0e                	je     6d43 <_ZN4PCIe13GetDeviceCodeEhhh+0x4e3>
    6d35:	eb 24                	jmp    6d5b <_ZN4PCIe13GetDeviceCodeEhhh+0x4fb>
    6d37:	48 8d 05 d1 26 01 00 	lea    0x126d1(%rip),%rax        # 1940f <_ZL4font+0x1acf>
    6d3e:	e9 12 0b 00 00       	jmp    7855 <_ZN4PCIe13GetDeviceCodeEhhh+0xff5>
    6d43:	48 8d 05 dc 26 01 00 	lea    0x126dc(%rip),%rax        # 19426 <_ZL4font+0x1ae6>
    6d4a:	e9 06 0b 00 00       	jmp    7855 <_ZN4PCIe13GetDeviceCodeEhhh+0xff5>
    6d4f:	48 8d 05 e9 26 01 00 	lea    0x126e9(%rip),%rax        # 1943f <_ZL4font+0x1aff>
    6d56:	e9 fa 0a 00 00       	jmp    7855 <_ZN4PCIe13GetDeviceCodeEhhh+0xff5>
    6d5b:	48 8d 05 f6 26 01 00 	lea    0x126f6(%rip),%rax        # 19458 <_ZL4font+0x1b18>
    6d62:	e9 ee 0a 00 00       	jmp    7855 <_ZN4PCIe13GetDeviceCodeEhhh+0xff5>
    6d67:	0f b6 45 f0          	movzbl -0x10(%rbp),%eax
    6d6b:	83 f8 0a             	cmp    $0xa,%eax
    6d6e:	7f 34                	jg     6da4 <_ZN4PCIe13GetDeviceCodeEhhh+0x544>
    6d70:	85 c0                	test   %eax,%eax
    6d72:	0f 88 44 01 00 00    	js     6ebc <_ZN4PCIe13GetDeviceCodeEhhh+0x65c>
    6d78:	83 f8 0a             	cmp    $0xa,%eax
    6d7b:	0f 87 3b 01 00 00    	ja     6ebc <_ZN4PCIe13GetDeviceCodeEhhh+0x65c>
    6d81:	89 c0                	mov    %eax,%eax
    6d83:	48 8d 14 85 00 00 00 	lea    0x0(,%rax,4),%rdx
    6d8a:	00 
    6d8b:	48 8d 05 ce 3e 01 00 	lea    0x13ece(%rip),%rax        # 1ac60 <_ZL4font+0x3320>
    6d92:	8b 04 02             	mov    (%rdx,%rax,1),%eax
    6d95:	48 98                	cltq
    6d97:	48 8d 15 c2 3e 01 00 	lea    0x13ec2(%rip),%rdx        # 1ac60 <_ZL4font+0x3320>
    6d9e:	48 01 d0             	add    %rdx,%rax
    6da1:	3e ff e0             	notrack jmp *%rax
    6da4:	3d 80 00 00 00       	cmp    $0x80,%eax
    6da9:	0f 84 01 01 00 00    	je     6eb0 <_ZN4PCIe13GetDeviceCodeEhhh+0x650>
    6daf:	e9 08 01 00 00       	jmp    6ebc <_ZN4PCIe13GetDeviceCodeEhhh+0x65c>
    6db4:	48 8d 05 b8 26 01 00 	lea    0x126b8(%rip),%rax        # 19473 <_ZL4font+0x1b33>
    6dbb:	e9 95 0a 00 00       	jmp    7855 <_ZN4PCIe13GetDeviceCodeEhhh+0xff5>
    6dc0:	48 8d 05 b9 26 01 00 	lea    0x126b9(%rip),%rax        # 19480 <_ZL4font+0x1b40>
    6dc7:	e9 89 0a 00 00       	jmp    7855 <_ZN4PCIe13GetDeviceCodeEhhh+0xff5>
    6dcc:	48 8d 05 b9 26 01 00 	lea    0x126b9(%rip),%rax        # 1948c <_ZL4font+0x1b4c>
    6dd3:	e9 7d 0a 00 00       	jmp    7855 <_ZN4PCIe13GetDeviceCodeEhhh+0xff5>
    6dd8:	48 8d 05 ba 26 01 00 	lea    0x126ba(%rip),%rax        # 19499 <_ZL4font+0x1b59>
    6ddf:	e9 71 0a 00 00       	jmp    7855 <_ZN4PCIe13GetDeviceCodeEhhh+0xff5>
    6de4:	0f b6 45 ec          	movzbl -0x14(%rbp),%eax
    6de8:	85 c0                	test   %eax,%eax
    6dea:	74 07                	je     6df3 <_ZN4PCIe13GetDeviceCodeEhhh+0x593>
    6dec:	83 f8 01             	cmp    $0x1,%eax
    6def:	74 0e                	je     6dff <_ZN4PCIe13GetDeviceCodeEhhh+0x59f>
    6df1:	eb 18                	jmp    6e0b <_ZN4PCIe13GetDeviceCodeEhhh+0x5ab>
    6df3:	48 8d 05 ae 26 01 00 	lea    0x126ae(%rip),%rax        # 194a8 <_ZL4font+0x1b68>
    6dfa:	e9 56 0a 00 00       	jmp    7855 <_ZN4PCIe13GetDeviceCodeEhhh+0xff5>
    6dff:	48 8d 05 ca 26 01 00 	lea    0x126ca(%rip),%rax        # 194d0 <_ZL4font+0x1b90>
    6e06:	e9 4a 0a 00 00       	jmp    7855 <_ZN4PCIe13GetDeviceCodeEhhh+0xff5>
    6e0b:	48 8d 05 e5 26 01 00 	lea    0x126e5(%rip),%rax        # 194f7 <_ZL4font+0x1bb7>
    6e12:	e9 3e 0a 00 00       	jmp    7855 <_ZN4PCIe13GetDeviceCodeEhhh+0xff5>
    6e17:	48 8d 05 f5 26 01 00 	lea    0x126f5(%rip),%rax        # 19513 <_ZL4font+0x1bd3>
    6e1e:	e9 32 0a 00 00       	jmp    7855 <_ZN4PCIe13GetDeviceCodeEhhh+0xff5>
    6e23:	48 8d 05 f8 26 01 00 	lea    0x126f8(%rip),%rax        # 19522 <_ZL4font+0x1be2>
    6e2a:	e9 26 0a 00 00       	jmp    7855 <_ZN4PCIe13GetDeviceCodeEhhh+0xff5>
    6e2f:	48 8d 05 fa 26 01 00 	lea    0x126fa(%rip),%rax        # 19530 <_ZL4font+0x1bf0>
    6e36:	e9 1a 0a 00 00       	jmp    7855 <_ZN4PCIe13GetDeviceCodeEhhh+0xff5>
    6e3b:	0f b6 45 ec          	movzbl -0x14(%rbp),%eax
    6e3f:	85 c0                	test   %eax,%eax
    6e41:	74 07                	je     6e4a <_ZN4PCIe13GetDeviceCodeEhhh+0x5ea>
    6e43:	83 f8 01             	cmp    $0x1,%eax
    6e46:	74 0e                	je     6e56 <_ZN4PCIe13GetDeviceCodeEhhh+0x5f6>
    6e48:	eb 18                	jmp    6e62 <_ZN4PCIe13GetDeviceCodeEhhh+0x602>
    6e4a:	48 8d 05 ef 26 01 00 	lea    0x126ef(%rip),%rax        # 19540 <_ZL4font+0x1c00>
    6e51:	e9 ff 09 00 00       	jmp    7855 <_ZN4PCIe13GetDeviceCodeEhhh+0xff5>
    6e56:	48 8d 05 0b 27 01 00 	lea    0x1270b(%rip),%rax        # 19568 <_ZL4font+0x1c28>
    6e5d:	e9 f3 09 00 00       	jmp    7855 <_ZN4PCIe13GetDeviceCodeEhhh+0xff5>
    6e62:	48 8d 05 1e 27 01 00 	lea    0x1271e(%rip),%rax        # 19587 <_ZL4font+0x1c47>
    6e69:	e9 e7 09 00 00       	jmp    7855 <_ZN4PCIe13GetDeviceCodeEhhh+0xff5>
    6e6e:	0f b6 45 ec          	movzbl -0x14(%rbp),%eax
    6e72:	83 f8 40             	cmp    $0x40,%eax
    6e75:	74 09                	je     6e80 <_ZN4PCIe13GetDeviceCodeEhhh+0x620>
    6e77:	3d 80 00 00 00       	cmp    $0x80,%eax
    6e7c:	74 0e                	je     6e8c <_ZN4PCIe13GetDeviceCodeEhhh+0x62c>
    6e7e:	eb 18                	jmp    6e98 <_ZN4PCIe13GetDeviceCodeEhhh+0x638>
    6e80:	48 8d 05 19 27 01 00 	lea    0x12719(%rip),%rax        # 195a0 <_ZL4font+0x1c60>
    6e87:	e9 c9 09 00 00       	jmp    7855 <_ZN4PCIe13GetDeviceCodeEhhh+0xff5>
    6e8c:	48 8d 05 45 27 01 00 	lea    0x12745(%rip),%rax        # 195d8 <_ZL4font+0x1c98>
    6e93:	e9 bd 09 00 00       	jmp    7855 <_ZN4PCIe13GetDeviceCodeEhhh+0xff5>
    6e98:	48 8d 05 58 26 01 00 	lea    0x12658(%rip),%rax        # 194f7 <_ZL4font+0x1bb7>
    6e9f:	e9 b1 09 00 00       	jmp    7855 <_ZN4PCIe13GetDeviceCodeEhhh+0xff5>
    6ea4:	48 8d 05 65 27 01 00 	lea    0x12765(%rip),%rax        # 19610 <_ZL4font+0x1cd0>
    6eab:	e9 a5 09 00 00       	jmp    7855 <_ZN4PCIe13GetDeviceCodeEhhh+0xff5>
    6eb0:	48 8d 05 78 27 01 00 	lea    0x12778(%rip),%rax        # 1962f <_ZL4font+0x1cef>
    6eb7:	e9 99 09 00 00       	jmp    7855 <_ZN4PCIe13GetDeviceCodeEhhh+0xff5>
    6ebc:	48 8d 05 7a 27 01 00 	lea    0x1277a(%rip),%rax        # 1963d <_ZL4font+0x1cfd>
    6ec3:	e9 8d 09 00 00       	jmp    7855 <_ZN4PCIe13GetDeviceCodeEhhh+0xff5>
    6ec8:	0f b6 45 f0          	movzbl -0x10(%rbp),%eax
    6ecc:	83 f8 05             	cmp    $0x5,%eax
    6ecf:	7f 34                	jg     6f05 <_ZN4PCIe13GetDeviceCodeEhhh+0x6a5>
    6ed1:	85 c0                	test   %eax,%eax
    6ed3:	0f 88 e5 01 00 00    	js     70be <_ZN4PCIe13GetDeviceCodeEhhh+0x85e>
    6ed9:	83 f8 05             	cmp    $0x5,%eax
    6edc:	0f 87 dc 01 00 00    	ja     70be <_ZN4PCIe13GetDeviceCodeEhhh+0x85e>
    6ee2:	89 c0                	mov    %eax,%eax
    6ee4:	48 8d 14 85 00 00 00 	lea    0x0(,%rax,4),%rdx
    6eeb:	00 
    6eec:	48 8d 05 99 3d 01 00 	lea    0x13d99(%rip),%rax        # 1ac8c <_ZL4font+0x334c>
    6ef3:	8b 04 02             	mov    (%rdx,%rax,1),%eax
    6ef6:	48 98                	cltq
    6ef8:	48 8d 15 8d 3d 01 00 	lea    0x13d8d(%rip),%rdx        # 1ac8c <_ZL4font+0x334c>
    6eff:	48 01 d0             	add    %rdx,%rax
    6f02:	3e ff e0             	notrack jmp *%rax
    6f05:	3d 80 00 00 00       	cmp    $0x80,%eax
    6f0a:	0f 84 a2 01 00 00    	je     70b2 <_ZN4PCIe13GetDeviceCodeEhhh+0x852>
    6f10:	e9 a9 01 00 00       	jmp    70be <_ZN4PCIe13GetDeviceCodeEhhh+0x85e>
    6f15:	0f b6 45 ec          	movzbl -0x14(%rbp),%eax
    6f19:	83 f8 06             	cmp    $0x6,%eax
    6f1c:	77 77                	ja     6f95 <_ZN4PCIe13GetDeviceCodeEhhh+0x735>
    6f1e:	89 c0                	mov    %eax,%eax
    6f20:	48 8d 14 85 00 00 00 	lea    0x0(,%rax,4),%rdx
    6f27:	00 
    6f28:	48 8d 05 75 3d 01 00 	lea    0x13d75(%rip),%rax        # 1aca4 <_ZL4font+0x3364>
    6f2f:	8b 04 02             	mov    (%rdx,%rax,1),%eax
    6f32:	48 98                	cltq
    6f34:	48 8d 15 69 3d 01 00 	lea    0x13d69(%rip),%rdx        # 1aca4 <_ZL4font+0x3364>
    6f3b:	48 01 d0             	add    %rdx,%rax
    6f3e:	3e ff e0             	notrack jmp *%rax
    6f41:	48 8d 05 08 27 01 00 	lea    0x12708(%rip),%rax        # 19650 <_ZL4font+0x1d10>
    6f48:	e9 08 09 00 00       	jmp    7855 <_ZN4PCIe13GetDeviceCodeEhhh+0xff5>
    6f4d:	48 8d 05 3c 27 01 00 	lea    0x1273c(%rip),%rax        # 19690 <_ZL4font+0x1d50>
    6f54:	e9 fc 08 00 00       	jmp    7855 <_ZN4PCIe13GetDeviceCodeEhhh+0xff5>
    6f59:	48 8d 05 70 27 01 00 	lea    0x12770(%rip),%rax        # 196d0 <_ZL4font+0x1d90>
    6f60:	e9 f0 08 00 00       	jmp    7855 <_ZN4PCIe13GetDeviceCodeEhhh+0xff5>
    6f65:	48 8d 05 a4 27 01 00 	lea    0x127a4(%rip),%rax        # 19710 <_ZL4font+0x1dd0>
    6f6c:	e9 e4 08 00 00       	jmp    7855 <_ZN4PCIe13GetDeviceCodeEhhh+0xff5>
    6f71:	48 8d 05 d8 27 01 00 	lea    0x127d8(%rip),%rax        # 19750 <_ZL4font+0x1e10>
    6f78:	e9 d8 08 00 00       	jmp    7855 <_ZN4PCIe13GetDeviceCodeEhhh+0xff5>
    6f7d:	48 8d 05 0c 28 01 00 	lea    0x1280c(%rip),%rax        # 19790 <_ZL4font+0x1e50>
    6f84:	e9 cc 08 00 00       	jmp    7855 <_ZN4PCIe13GetDeviceCodeEhhh+0xff5>
    6f89:	48 8d 05 40 28 01 00 	lea    0x12840(%rip),%rax        # 197d0 <_ZL4font+0x1e90>
    6f90:	e9 c0 08 00 00       	jmp    7855 <_ZN4PCIe13GetDeviceCodeEhhh+0xff5>
    6f95:	48 8d 05 74 28 01 00 	lea    0x12874(%rip),%rax        # 19810 <_ZL4font+0x1ed0>
    6f9c:	e9 b4 08 00 00       	jmp    7855 <_ZN4PCIe13GetDeviceCodeEhhh+0xff5>
    6fa1:	0f b6 45 ec          	movzbl -0x14(%rbp),%eax
    6fa5:	3d fe 00 00 00       	cmp    $0xfe,%eax
    6faa:	74 56                	je     7002 <_ZN4PCIe13GetDeviceCodeEhhh+0x7a2>
    6fac:	3d fe 00 00 00       	cmp    $0xfe,%eax
    6fb1:	7f 5b                	jg     700e <_ZN4PCIe13GetDeviceCodeEhhh+0x7ae>
    6fb3:	83 f8 03             	cmp    $0x3,%eax
    6fb6:	74 3e                	je     6ff6 <_ZN4PCIe13GetDeviceCodeEhhh+0x796>
    6fb8:	83 f8 03             	cmp    $0x3,%eax
    6fbb:	7f 51                	jg     700e <_ZN4PCIe13GetDeviceCodeEhhh+0x7ae>
    6fbd:	83 f8 02             	cmp    $0x2,%eax
    6fc0:	74 28                	je     6fea <_ZN4PCIe13GetDeviceCodeEhhh+0x78a>
    6fc2:	83 f8 02             	cmp    $0x2,%eax
    6fc5:	7f 47                	jg     700e <_ZN4PCIe13GetDeviceCodeEhhh+0x7ae>
    6fc7:	85 c0                	test   %eax,%eax
    6fc9:	74 07                	je     6fd2 <_ZN4PCIe13GetDeviceCodeEhhh+0x772>
    6fcb:	83 f8 01             	cmp    $0x1,%eax
    6fce:	74 0e                	je     6fde <_ZN4PCIe13GetDeviceCodeEhhh+0x77e>
    6fd0:	eb 3c                	jmp    700e <_ZN4PCIe13GetDeviceCodeEhhh+0x7ae>
    6fd2:	48 8d 05 6f 28 01 00 	lea    0x1286f(%rip),%rax        # 19848 <_ZL4font+0x1f08>
    6fd9:	e9 77 08 00 00       	jmp    7855 <_ZN4PCIe13GetDeviceCodeEhhh+0xff5>
    6fde:	48 8d 05 9b 28 01 00 	lea    0x1289b(%rip),%rax        # 19880 <_ZL4font+0x1f40>
    6fe5:	e9 6b 08 00 00       	jmp    7855 <_ZN4PCIe13GetDeviceCodeEhhh+0xff5>
    6fea:	48 8d 05 cf 28 01 00 	lea    0x128cf(%rip),%rax        # 198c0 <_ZL4font+0x1f80>
    6ff1:	e9 5f 08 00 00       	jmp    7855 <_ZN4PCIe13GetDeviceCodeEhhh+0xff5>
    6ff6:	48 8d 05 03 29 01 00 	lea    0x12903(%rip),%rax        # 19900 <_ZL4font+0x1fc0>
    6ffd:	e9 53 08 00 00       	jmp    7855 <_ZN4PCIe13GetDeviceCodeEhhh+0xff5>
    7002:	48 8d 05 37 29 01 00 	lea    0x12937(%rip),%rax        # 19940 <_ZL4font+0x2000>
    7009:	e9 47 08 00 00       	jmp    7855 <_ZN4PCIe13GetDeviceCodeEhhh+0xff5>
    700e:	48 8d 05 73 29 01 00 	lea    0x12973(%rip),%rax        # 19988 <_ZL4font+0x2048>
    7015:	e9 3b 08 00 00       	jmp    7855 <_ZN4PCIe13GetDeviceCodeEhhh+0xff5>
    701a:	48 8d 05 9f 29 01 00 	lea    0x1299f(%rip),%rax        # 199c0 <_ZL4font+0x2080>
    7021:	e9 2f 08 00 00       	jmp    7855 <_ZN4PCIe13GetDeviceCodeEhhh+0xff5>
    7026:	0f b6 45 ec          	movzbl -0x14(%rbp),%eax
    702a:	83 f8 04             	cmp    $0x4,%eax
    702d:	77 5f                	ja     708e <_ZN4PCIe13GetDeviceCodeEhhh+0x82e>
    702f:	89 c0                	mov    %eax,%eax
    7031:	48 8d 14 85 00 00 00 	lea    0x0(,%rax,4),%rdx
    7038:	00 
    7039:	48 8d 05 80 3c 01 00 	lea    0x13c80(%rip),%rax        # 1acc0 <_ZL4font+0x3380>
    7040:	8b 04 02             	mov    (%rdx,%rax,1),%eax
    7043:	48 98                	cltq
    7045:	48 8d 15 74 3c 01 00 	lea    0x13c74(%rip),%rdx        # 1acc0 <_ZL4font+0x3380>
    704c:	48 01 d0             	add    %rdx,%rax
    704f:	3e ff e0             	notrack jmp *%rax
    7052:	48 8d 05 9f 29 01 00 	lea    0x1299f(%rip),%rax        # 199f8 <_ZL4font+0x20b8>
    7059:	e9 f7 07 00 00       	jmp    7855 <_ZN4PCIe13GetDeviceCodeEhhh+0xff5>
    705e:	48 8d 05 c3 29 01 00 	lea    0x129c3(%rip),%rax        # 19a28 <_ZL4font+0x20e8>
    7065:	e9 eb 07 00 00       	jmp    7855 <_ZN4PCIe13GetDeviceCodeEhhh+0xff5>
    706a:	48 8d 05 f7 29 01 00 	lea    0x129f7(%rip),%rax        # 19a68 <_ZL4font+0x2128>
    7071:	e9 df 07 00 00       	jmp    7855 <_ZN4PCIe13GetDeviceCodeEhhh+0xff5>
    7076:	48 8d 05 2b 2a 01 00 	lea    0x12a2b(%rip),%rax        # 19aa8 <_ZL4font+0x2168>
    707d:	e9 d3 07 00 00       	jmp    7855 <_ZN4PCIe13GetDeviceCodeEhhh+0xff5>
    7082:	48 8d 05 5f 2a 01 00 	lea    0x12a5f(%rip),%rax        # 19ae8 <_ZL4font+0x21a8>
    7089:	e9 c7 07 00 00       	jmp    7855 <_ZN4PCIe13GetDeviceCodeEhhh+0xff5>
    708e:	48 8d 05 93 2a 01 00 	lea    0x12a93(%rip),%rax        # 19b28 <_ZL4font+0x21e8>
    7095:	e9 bb 07 00 00       	jmp    7855 <_ZN4PCIe13GetDeviceCodeEhhh+0xff5>
    709a:	48 8d 05 b7 2a 01 00 	lea    0x12ab7(%rip),%rax        # 19b58 <_ZL4font+0x2218>
    70a1:	e9 af 07 00 00       	jmp    7855 <_ZN4PCIe13GetDeviceCodeEhhh+0xff5>
    70a6:	48 8d 05 d3 2a 01 00 	lea    0x12ad3(%rip),%rax        # 19b80 <_ZL4font+0x2240>
    70ad:	e9 a3 07 00 00       	jmp    7855 <_ZN4PCIe13GetDeviceCodeEhhh+0xff5>
    70b2:	48 8d 05 f7 2a 01 00 	lea    0x12af7(%rip),%rax        # 19bb0 <_ZL4font+0x2270>
    70b9:	e9 97 07 00 00       	jmp    7855 <_ZN4PCIe13GetDeviceCodeEhhh+0xff5>
    70be:	48 8d 05 13 2b 01 00 	lea    0x12b13(%rip),%rax        # 19bd8 <_ZL4font+0x2298>
    70c5:	e9 8b 07 00 00       	jmp    7855 <_ZN4PCIe13GetDeviceCodeEhhh+0xff5>
    70ca:	0f b6 45 f0          	movzbl -0x10(%rbp),%eax
    70ce:	83 f8 06             	cmp    $0x6,%eax
    70d1:	7f 34                	jg     7107 <_ZN4PCIe13GetDeviceCodeEhhh+0x8a7>
    70d3:	85 c0                	test   %eax,%eax
    70d5:	0f 88 bb 01 00 00    	js     7296 <_ZN4PCIe13GetDeviceCodeEhhh+0xa36>
    70db:	83 f8 06             	cmp    $0x6,%eax
    70de:	0f 87 b2 01 00 00    	ja     7296 <_ZN4PCIe13GetDeviceCodeEhhh+0xa36>
    70e4:	89 c0                	mov    %eax,%eax
    70e6:	48 8d 14 85 00 00 00 	lea    0x0(,%rax,4),%rdx
    70ed:	00 
    70ee:	48 8d 05 df 3b 01 00 	lea    0x13bdf(%rip),%rax        # 1acd4 <_ZL4font+0x3394>
    70f5:	8b 04 02             	mov    (%rdx,%rax,1),%eax
    70f8:	48 98                	cltq
    70fa:	48 8d 15 d3 3b 01 00 	lea    0x13bd3(%rip),%rdx        # 1acd4 <_ZL4font+0x3394>
    7101:	48 01 d0             	add    %rdx,%rax
    7104:	3e ff e0             	notrack jmp *%rax
    7107:	3d 80 00 00 00       	cmp    $0x80,%eax
    710c:	0f 84 78 01 00 00    	je     728a <_ZN4PCIe13GetDeviceCodeEhhh+0xa2a>
    7112:	e9 7f 01 00 00       	jmp    7296 <_ZN4PCIe13GetDeviceCodeEhhh+0xa36>
    7117:	0f b6 45 ec          	movzbl -0x14(%rbp),%eax
    711b:	83 f8 20             	cmp    $0x20,%eax
    711e:	77 5f                	ja     717f <_ZN4PCIe13GetDeviceCodeEhhh+0x91f>
    7120:	89 c0                	mov    %eax,%eax
    7122:	48 8d 14 85 00 00 00 	lea    0x0(,%rax,4),%rdx
    7129:	00 
    712a:	48 8d 05 bf 3b 01 00 	lea    0x13bbf(%rip),%rax        # 1acf0 <_ZL4font+0x33b0>
    7131:	8b 04 02             	mov    (%rdx,%rax,1),%eax
    7134:	48 98                	cltq
    7136:	48 8d 15 b3 3b 01 00 	lea    0x13bb3(%rip),%rdx        # 1acf0 <_ZL4font+0x33b0>
    713d:	48 01 d0             	add    %rdx,%rax
    7140:	3e ff e0             	notrack jmp *%rax
    7143:	48 8d 05 be 2a 01 00 	lea    0x12abe(%rip),%rax        # 19c08 <_ZL4font+0x22c8>
    714a:	e9 06 07 00 00       	jmp    7855 <_ZN4PCIe13GetDeviceCodeEhhh+0xff5>
    714f:	48 8d 05 ea 2a 01 00 	lea    0x12aea(%rip),%rax        # 19c40 <_ZL4font+0x2300>
    7156:	e9 fa 06 00 00       	jmp    7855 <_ZN4PCIe13GetDeviceCodeEhhh+0xff5>
    715b:	48 8d 05 0e 2b 01 00 	lea    0x12b0e(%rip),%rax        # 19c70 <_ZL4font+0x2330>
    7162:	e9 ee 06 00 00       	jmp    7855 <_ZN4PCIe13GetDeviceCodeEhhh+0xff5>
    7167:	48 8d 05 3a 2b 01 00 	lea    0x12b3a(%rip),%rax        # 19ca8 <_ZL4font+0x2368>
    716e:	e9 e2 06 00 00       	jmp    7855 <_ZN4PCIe13GetDeviceCodeEhhh+0xff5>
    7173:	48 8d 05 6e 2b 01 00 	lea    0x12b6e(%rip),%rax        # 19ce8 <_ZL4font+0x23a8>
    717a:	e9 d6 06 00 00       	jmp    7855 <_ZN4PCIe13GetDeviceCodeEhhh+0xff5>
    717f:	48 8d 05 a2 2b 01 00 	lea    0x12ba2(%rip),%rax        # 19d28 <_ZL4font+0x23e8>
    7186:	e9 ca 06 00 00       	jmp    7855 <_ZN4PCIe13GetDeviceCodeEhhh+0xff5>
    718b:	0f b6 45 ec          	movzbl -0x14(%rbp),%eax
    718f:	83 f8 02             	cmp    $0x2,%eax
    7192:	74 28                	je     71bc <_ZN4PCIe13GetDeviceCodeEhhh+0x95c>
    7194:	83 f8 02             	cmp    $0x2,%eax
    7197:	7f 2f                	jg     71c8 <_ZN4PCIe13GetDeviceCodeEhhh+0x968>
    7199:	85 c0                	test   %eax,%eax
    719b:	74 07                	je     71a4 <_ZN4PCIe13GetDeviceCodeEhhh+0x944>
    719d:	83 f8 01             	cmp    $0x1,%eax
    71a0:	74 0e                	je     71b0 <_ZN4PCIe13GetDeviceCodeEhhh+0x950>
    71a2:	eb 24                	jmp    71c8 <_ZN4PCIe13GetDeviceCodeEhhh+0x968>
    71a4:	48 8d 05 a5 2b 01 00 	lea    0x12ba5(%rip),%rax        # 19d50 <_ZL4font+0x2410>
    71ab:	e9 a5 06 00 00       	jmp    7855 <_ZN4PCIe13GetDeviceCodeEhhh+0xff5>
    71b0:	48 8d 05 d1 2b 01 00 	lea    0x12bd1(%rip),%rax        # 19d88 <_ZL4font+0x2448>
    71b7:	e9 99 06 00 00       	jmp    7855 <_ZN4PCIe13GetDeviceCodeEhhh+0xff5>
    71bc:	48 8d 05 f5 2b 01 00 	lea    0x12bf5(%rip),%rax        # 19db8 <_ZL4font+0x2478>
    71c3:	e9 8d 06 00 00       	jmp    7855 <_ZN4PCIe13GetDeviceCodeEhhh+0xff5>
    71c8:	48 8d 05 21 2c 01 00 	lea    0x12c21(%rip),%rax        # 19df0 <_ZL4font+0x24b0>
    71cf:	e9 81 06 00 00       	jmp    7855 <_ZN4PCIe13GetDeviceCodeEhhh+0xff5>
    71d4:	0f b6 45 ec          	movzbl -0x14(%rbp),%eax
    71d8:	83 f8 03             	cmp    $0x3,%eax
    71db:	74 3e                	je     721b <_ZN4PCIe13GetDeviceCodeEhhh+0x9bb>
    71dd:	83 f8 03             	cmp    $0x3,%eax
    71e0:	7f 45                	jg     7227 <_ZN4PCIe13GetDeviceCodeEhhh+0x9c7>
    71e2:	83 f8 02             	cmp    $0x2,%eax
    71e5:	74 28                	je     720f <_ZN4PCIe13GetDeviceCodeEhhh+0x9af>
    71e7:	83 f8 02             	cmp    $0x2,%eax
    71ea:	7f 3b                	jg     7227 <_ZN4PCIe13GetDeviceCodeEhhh+0x9c7>
    71ec:	85 c0                	test   %eax,%eax
    71ee:	74 07                	je     71f7 <_ZN4PCIe13GetDeviceCodeEhhh+0x997>
    71f0:	83 f8 01             	cmp    $0x1,%eax
    71f3:	74 0e                	je     7203 <_ZN4PCIe13GetDeviceCodeEhhh+0x9a3>
    71f5:	eb 30                	jmp    7227 <_ZN4PCIe13GetDeviceCodeEhhh+0x9c7>
    71f7:	48 8d 05 1a 2c 01 00 	lea    0x12c1a(%rip),%rax        # 19e18 <_ZL4font+0x24d8>
    71fe:	e9 52 06 00 00       	jmp    7855 <_ZN4PCIe13GetDeviceCodeEhhh+0xff5>
    7203:	48 8d 05 46 2c 01 00 	lea    0x12c46(%rip),%rax        # 19e50 <_ZL4font+0x2510>
    720a:	e9 46 06 00 00       	jmp    7855 <_ZN4PCIe13GetDeviceCodeEhhh+0xff5>
    720f:	48 8d 05 72 2c 01 00 	lea    0x12c72(%rip),%rax        # 19e88 <_ZL4font+0x2548>
    7216:	e9 3a 06 00 00       	jmp    7855 <_ZN4PCIe13GetDeviceCodeEhhh+0xff5>
    721b:	48 8d 05 9e 2c 01 00 	lea    0x12c9e(%rip),%rax        # 19ec0 <_ZL4font+0x2580>
    7222:	e9 2e 06 00 00       	jmp    7855 <_ZN4PCIe13GetDeviceCodeEhhh+0xff5>
    7227:	48 8d 05 ba 2c 01 00 	lea    0x12cba(%rip),%rax        # 19ee8 <_ZL4font+0x25a8>
    722e:	e9 22 06 00 00       	jmp    7855 <_ZN4PCIe13GetDeviceCodeEhhh+0xff5>
    7233:	0f b6 45 ec          	movzbl -0x14(%rbp),%eax
    7237:	85 c0                	test   %eax,%eax
    7239:	74 07                	je     7242 <_ZN4PCIe13GetDeviceCodeEhhh+0x9e2>
    723b:	83 f8 01             	cmp    $0x1,%eax
    723e:	74 0e                	je     724e <_ZN4PCIe13GetDeviceCodeEhhh+0x9ee>
    7240:	eb 18                	jmp    725a <_ZN4PCIe13GetDeviceCodeEhhh+0x9fa>
    7242:	48 8d 05 c7 2c 01 00 	lea    0x12cc7(%rip),%rax        # 19f10 <_ZL4font+0x25d0>
    7249:	e9 07 06 00 00       	jmp    7855 <_ZN4PCIe13GetDeviceCodeEhhh+0xff5>
    724e:	48 8d 05 e3 2c 01 00 	lea    0x12ce3(%rip),%rax        # 19f38 <_ZL4font+0x25f8>
    7255:	e9 fb 05 00 00       	jmp    7855 <_ZN4PCIe13GetDeviceCodeEhhh+0xff5>
    725a:	48 8d 05 07 2d 01 00 	lea    0x12d07(%rip),%rax        # 19f68 <_ZL4font+0x2628>
    7261:	e9 ef 05 00 00       	jmp    7855 <_ZN4PCIe13GetDeviceCodeEhhh+0xff5>
    7266:	48 8d 05 23 2d 01 00 	lea    0x12d23(%rip),%rax        # 19f90 <_ZL4font+0x2650>
    726d:	e9 e3 05 00 00       	jmp    7855 <_ZN4PCIe13GetDeviceCodeEhhh+0xff5>
    7272:	48 8d 05 47 2d 01 00 	lea    0x12d47(%rip),%rax        # 19fc0 <_ZL4font+0x2680>
    7279:	e9 d7 05 00 00       	jmp    7855 <_ZN4PCIe13GetDeviceCodeEhhh+0xff5>
    727e:	48 8d 05 66 2d 01 00 	lea    0x12d66(%rip),%rax        # 19feb <_ZL4font+0x26ab>
    7285:	e9 cb 05 00 00       	jmp    7855 <_ZN4PCIe13GetDeviceCodeEhhh+0xff5>
    728a:	48 8d 05 78 2d 01 00 	lea    0x12d78(%rip),%rax        # 1a009 <_ZL4font+0x26c9>
    7291:	e9 bf 05 00 00       	jmp    7855 <_ZN4PCIe13GetDeviceCodeEhhh+0xff5>
    7296:	48 8d 05 8b 2d 01 00 	lea    0x12d8b(%rip),%rax        # 1a028 <_ZL4font+0x26e8>
    729d:	e9 b3 05 00 00       	jmp    7855 <_ZN4PCIe13GetDeviceCodeEhhh+0xff5>
    72a2:	0f b6 45 f0          	movzbl -0x10(%rbp),%eax
    72a6:	83 f8 04             	cmp    $0x4,%eax
    72a9:	7f 34                	jg     72df <_ZN4PCIe13GetDeviceCodeEhhh+0xa7f>
    72ab:	85 c0                	test   %eax,%eax
    72ad:	0f 88 a4 00 00 00    	js     7357 <_ZN4PCIe13GetDeviceCodeEhhh+0xaf7>
    72b3:	83 f8 04             	cmp    $0x4,%eax
    72b6:	0f 87 9b 00 00 00    	ja     7357 <_ZN4PCIe13GetDeviceCodeEhhh+0xaf7>
    72bc:	89 c0                	mov    %eax,%eax
    72be:	48 8d 14 85 00 00 00 	lea    0x0(,%rax,4),%rdx
    72c5:	00 
    72c6:	48 8d 05 a7 3a 01 00 	lea    0x13aa7(%rip),%rax        # 1ad74 <_ZL4font+0x3434>
    72cd:	8b 04 02             	mov    (%rdx,%rax,1),%eax
    72d0:	48 98                	cltq
    72d2:	48 8d 15 9b 3a 01 00 	lea    0x13a9b(%rip),%rdx        # 1ad74 <_ZL4font+0x3434>
    72d9:	48 01 d0             	add    %rdx,%rax
    72dc:	3e ff e0             	notrack jmp *%rax
    72df:	3d 80 00 00 00       	cmp    $0x80,%eax
    72e4:	74 65                	je     734b <_ZN4PCIe13GetDeviceCodeEhhh+0xaeb>
    72e6:	eb 6f                	jmp    7357 <_ZN4PCIe13GetDeviceCodeEhhh+0xaf7>
    72e8:	48 8d 05 59 2d 01 00 	lea    0x12d59(%rip),%rax        # 1a048 <_ZL4font+0x2708>
    72ef:	e9 61 05 00 00       	jmp    7855 <_ZN4PCIe13GetDeviceCodeEhhh+0xff5>
    72f4:	48 8d 05 75 2d 01 00 	lea    0x12d75(%rip),%rax        # 1a070 <_ZL4font+0x2730>
    72fb:	e9 55 05 00 00       	jmp    7855 <_ZN4PCIe13GetDeviceCodeEhhh+0xff5>
    7300:	48 8d 05 91 2d 01 00 	lea    0x12d91(%rip),%rax        # 1a098 <_ZL4font+0x2758>
    7307:	e9 49 05 00 00       	jmp    7855 <_ZN4PCIe13GetDeviceCodeEhhh+0xff5>
    730c:	48 8d 05 b5 2d 01 00 	lea    0x12db5(%rip),%rax        # 1a0c8 <_ZL4font+0x2788>
    7313:	e9 3d 05 00 00       	jmp    7855 <_ZN4PCIe13GetDeviceCodeEhhh+0xff5>
    7318:	0f b6 45 ec          	movzbl -0x14(%rbp),%eax
    731c:	85 c0                	test   %eax,%eax
    731e:	74 07                	je     7327 <_ZN4PCIe13GetDeviceCodeEhhh+0xac7>
    7320:	83 f8 10             	cmp    $0x10,%eax
    7323:	74 0e                	je     7333 <_ZN4PCIe13GetDeviceCodeEhhh+0xad3>
    7325:	eb 18                	jmp    733f <_ZN4PCIe13GetDeviceCodeEhhh+0xadf>
    7327:	48 8d 05 c2 2d 01 00 	lea    0x12dc2(%rip),%rax        # 1a0f0 <_ZL4font+0x27b0>
    732e:	e9 22 05 00 00       	jmp    7855 <_ZN4PCIe13GetDeviceCodeEhhh+0xff5>
    7333:	48 8d 05 e6 2d 01 00 	lea    0x12de6(%rip),%rax        # 1a120 <_ZL4font+0x27e0>
    733a:	e9 16 05 00 00       	jmp    7855 <_ZN4PCIe13GetDeviceCodeEhhh+0xff5>
    733f:	48 8d 05 0a 2e 01 00 	lea    0x12e0a(%rip),%rax        # 1a150 <_ZL4font+0x2810>
    7346:	e9 0a 05 00 00       	jmp    7855 <_ZN4PCIe13GetDeviceCodeEhhh+0xff5>
    734b:	48 8d 05 2e 2e 01 00 	lea    0x12e2e(%rip),%rax        # 1a180 <_ZL4font+0x2840>
    7352:	e9 fe 04 00 00       	jmp    7855 <_ZN4PCIe13GetDeviceCodeEhhh+0xff5>
    7357:	48 8d 05 42 2e 01 00 	lea    0x12e42(%rip),%rax        # 1a1a0 <_ZL4font+0x2860>
    735e:	e9 f2 04 00 00       	jmp    7855 <_ZN4PCIe13GetDeviceCodeEhhh+0xff5>
    7363:	0f b6 45 f0          	movzbl -0x10(%rbp),%eax
    7367:	85 c0                	test   %eax,%eax
    7369:	74 09                	je     7374 <_ZN4PCIe13GetDeviceCodeEhhh+0xb14>
    736b:	3d 80 00 00 00       	cmp    $0x80,%eax
    7370:	74 0e                	je     7380 <_ZN4PCIe13GetDeviceCodeEhhh+0xb20>
    7372:	eb 18                	jmp    738c <_ZN4PCIe13GetDeviceCodeEhhh+0xb2c>
    7374:	48 8d 05 46 2e 01 00 	lea    0x12e46(%rip),%rax        # 1a1c1 <_ZL4font+0x2881>
    737b:	e9 d5 04 00 00       	jmp    7855 <_ZN4PCIe13GetDeviceCodeEhhh+0xff5>
    7380:	48 8d 05 53 2e 01 00 	lea    0x12e53(%rip),%rax        # 1a1da <_ZL4font+0x289a>
    7387:	e9 c9 04 00 00       	jmp    7855 <_ZN4PCIe13GetDeviceCodeEhhh+0xff5>
    738c:	48 8d 05 5e 2e 01 00 	lea    0x12e5e(%rip),%rax        # 1a1f1 <_ZL4font+0x28b1>
    7393:	e9 bd 04 00 00       	jmp    7855 <_ZN4PCIe13GetDeviceCodeEhhh+0xff5>
    7398:	0f b6 45 f0          	movzbl -0x10(%rbp),%eax
    739c:	3d 80 00 00 00       	cmp    $0x80,%eax
    73a1:	0f 84 ab 00 00 00    	je     7452 <_ZN4PCIe13GetDeviceCodeEhhh+0xbf2>
    73a7:	3d 80 00 00 00       	cmp    $0x80,%eax
    73ac:	0f 8f ac 00 00 00    	jg     745e <_ZN4PCIe13GetDeviceCodeEhhh+0xbfe>
    73b2:	83 f8 30             	cmp    $0x30,%eax
    73b5:	7f 34                	jg     73eb <_ZN4PCIe13GetDeviceCodeEhhh+0xb8b>
    73b7:	85 c0                	test   %eax,%eax
    73b9:	0f 88 9f 00 00 00    	js     745e <_ZN4PCIe13GetDeviceCodeEhhh+0xbfe>
    73bf:	83 f8 30             	cmp    $0x30,%eax
    73c2:	0f 87 96 00 00 00    	ja     745e <_ZN4PCIe13GetDeviceCodeEhhh+0xbfe>
    73c8:	89 c0                	mov    %eax,%eax
    73ca:	48 8d 14 85 00 00 00 	lea    0x0(,%rax,4),%rdx
    73d1:	00 
    73d2:	48 8d 05 af 39 01 00 	lea    0x139af(%rip),%rax        # 1ad88 <_ZL4font+0x3448>
    73d9:	8b 04 02             	mov    (%rdx,%rax,1),%eax
    73dc:	48 98                	cltq
    73de:	48 8d 15 a3 39 01 00 	lea    0x139a3(%rip),%rdx        # 1ad88 <_ZL4font+0x3448>
    73e5:	48 01 d0             	add    %rdx,%rax
    73e8:	3e ff e0             	notrack jmp *%rax
    73eb:	83 f8 40             	cmp    $0x40,%eax
    73ee:	74 56                	je     7446 <_ZN4PCIe13GetDeviceCodeEhhh+0xbe6>
    73f0:	eb 6c                	jmp    745e <_ZN4PCIe13GetDeviceCodeEhhh+0xbfe>
    73f2:	48 8d 05 11 2e 01 00 	lea    0x12e11(%rip),%rax        # 1a20a <_ZL4font+0x28ca>
    73f9:	e9 57 04 00 00       	jmp    7855 <_ZN4PCIe13GetDeviceCodeEhhh+0xff5>
    73fe:	48 8d 05 14 2e 01 00 	lea    0x12e14(%rip),%rax        # 1a219 <_ZL4font+0x28d9>
    7405:	e9 4b 04 00 00       	jmp    7855 <_ZN4PCIe13GetDeviceCodeEhhh+0xff5>
    740a:	48 8d 05 17 2e 01 00 	lea    0x12e17(%rip),%rax        # 1a228 <_ZL4font+0x28e8>
    7411:	e9 3f 04 00 00       	jmp    7855 <_ZN4PCIe13GetDeviceCodeEhhh+0xff5>
    7416:	48 8d 05 1e 2e 01 00 	lea    0x12e1e(%rip),%rax        # 1a23b <_ZL4font+0x28fb>
    741d:	e9 33 04 00 00       	jmp    7855 <_ZN4PCIe13GetDeviceCodeEhhh+0xff5>
    7422:	48 8d 05 29 2e 01 00 	lea    0x12e29(%rip),%rax        # 1a252 <_ZL4font+0x2912>
    7429:	e9 27 04 00 00       	jmp    7855 <_ZN4PCIe13GetDeviceCodeEhhh+0xff5>
    742e:	48 8d 05 2e 2e 01 00 	lea    0x12e2e(%rip),%rax        # 1a263 <_ZL4font+0x2923>
    7435:	e9 1b 04 00 00       	jmp    7855 <_ZN4PCIe13GetDeviceCodeEhhh+0xff5>
    743a:	48 8d 05 35 2e 01 00 	lea    0x12e35(%rip),%rax        # 1a276 <_ZL4font+0x2936>
    7441:	e9 0f 04 00 00       	jmp    7855 <_ZN4PCIe13GetDeviceCodeEhhh+0xff5>
    7446:	48 8d 05 39 2e 01 00 	lea    0x12e39(%rip),%rax        # 1a286 <_ZL4font+0x2946>
    744d:	e9 03 04 00 00       	jmp    7855 <_ZN4PCIe13GetDeviceCodeEhhh+0xff5>
    7452:	48 8d 05 45 2e 01 00 	lea    0x12e45(%rip),%rax        # 1a29e <_ZL4font+0x295e>
    7459:	e9 f7 03 00 00       	jmp    7855 <_ZN4PCIe13GetDeviceCodeEhhh+0xff5>
    745e:	48 8d 05 4a 2e 01 00 	lea    0x12e4a(%rip),%rax        # 1a2af <_ZL4font+0x296f>
    7465:	e9 eb 03 00 00       	jmp    7855 <_ZN4PCIe13GetDeviceCodeEhhh+0xff5>
    746a:	0f b6 45 f0          	movzbl -0x10(%rbp),%eax
    746e:	83 f8 09             	cmp    $0x9,%eax
    7471:	7f 34                	jg     74a7 <_ZN4PCIe13GetDeviceCodeEhhh+0xc47>
    7473:	85 c0                	test   %eax,%eax
    7475:	0f 88 ab 01 00 00    	js     7626 <_ZN4PCIe13GetDeviceCodeEhhh+0xdc6>
    747b:	83 f8 09             	cmp    $0x9,%eax
    747e:	0f 87 a2 01 00 00    	ja     7626 <_ZN4PCIe13GetDeviceCodeEhhh+0xdc6>
    7484:	89 c0                	mov    %eax,%eax
    7486:	48 8d 14 85 00 00 00 	lea    0x0(,%rax,4),%rdx
    748d:	00 
    748e:	48 8d 05 b7 39 01 00 	lea    0x139b7(%rip),%rax        # 1ae4c <_ZL4font+0x350c>
    7495:	8b 04 02             	mov    (%rdx,%rax,1),%eax
    7498:	48 98                	cltq
    749a:	48 8d 15 ab 39 01 00 	lea    0x139ab(%rip),%rdx        # 1ae4c <_ZL4font+0x350c>
    74a1:	48 01 d0             	add    %rdx,%rax
    74a4:	3e ff e0             	notrack jmp *%rax
    74a7:	3d 80 00 00 00       	cmp    $0x80,%eax
    74ac:	0f 84 68 01 00 00    	je     761a <_ZN4PCIe13GetDeviceCodeEhhh+0xdba>
    74b2:	e9 6f 01 00 00       	jmp    7626 <_ZN4PCIe13GetDeviceCodeEhhh+0xdc6>
    74b7:	0f b6 45 ec          	movzbl -0x14(%rbp),%eax
    74bb:	85 c0                	test   %eax,%eax
    74bd:	74 07                	je     74c6 <_ZN4PCIe13GetDeviceCodeEhhh+0xc66>
    74bf:	83 f8 10             	cmp    $0x10,%eax
    74c2:	74 0e                	je     74d2 <_ZN4PCIe13GetDeviceCodeEhhh+0xc72>
    74c4:	eb 18                	jmp    74de <_ZN4PCIe13GetDeviceCodeEhhh+0xc7e>
    74c6:	48 8d 05 fb 2d 01 00 	lea    0x12dfb(%rip),%rax        # 1a2c8 <_ZL4font+0x2988>
    74cd:	e9 83 03 00 00       	jmp    7855 <_ZN4PCIe13GetDeviceCodeEhhh+0xff5>
    74d2:	48 8d 05 1f 2e 01 00 	lea    0x12e1f(%rip),%rax        # 1a2f8 <_ZL4font+0x29b8>
    74d9:	e9 77 03 00 00       	jmp    7855 <_ZN4PCIe13GetDeviceCodeEhhh+0xff5>
    74de:	48 8d 05 3b 2e 01 00 	lea    0x12e3b(%rip),%rax        # 1a320 <_ZL4font+0x29e0>
    74e5:	e9 6b 03 00 00       	jmp    7855 <_ZN4PCIe13GetDeviceCodeEhhh+0xff5>
    74ea:	48 8d 05 5f 2e 01 00 	lea    0x12e5f(%rip),%rax        # 1a350 <_ZL4font+0x2a10>
    74f1:	e9 5f 03 00 00       	jmp    7855 <_ZN4PCIe13GetDeviceCodeEhhh+0xff5>
    74f6:	48 8d 05 75 2e 01 00 	lea    0x12e75(%rip),%rax        # 1a372 <_ZL4font+0x2a32>
    74fd:	e9 53 03 00 00       	jmp    7855 <_ZN4PCIe13GetDeviceCodeEhhh+0xff5>
    7502:	0f b6 45 ec          	movzbl -0x14(%rbp),%eax
    7506:	3d fe 00 00 00       	cmp    $0xfe,%eax
    750b:	74 70                	je     757d <_ZN4PCIe13GetDeviceCodeEhhh+0xd1d>
    750d:	3d fe 00 00 00       	cmp    $0xfe,%eax
    7512:	7f 75                	jg     7589 <_ZN4PCIe13GetDeviceCodeEhhh+0xd29>
    7514:	3d 80 00 00 00       	cmp    $0x80,%eax
    7519:	74 56                	je     7571 <_ZN4PCIe13GetDeviceCodeEhhh+0xd11>
    751b:	3d 80 00 00 00       	cmp    $0x80,%eax
    7520:	7f 67                	jg     7589 <_ZN4PCIe13GetDeviceCodeEhhh+0xd29>
    7522:	83 f8 30             	cmp    $0x30,%eax
    7525:	74 3e                	je     7565 <_ZN4PCIe13GetDeviceCodeEhhh+0xd05>
    7527:	83 f8 30             	cmp    $0x30,%eax
    752a:	7f 5d                	jg     7589 <_ZN4PCIe13GetDeviceCodeEhhh+0xd29>
    752c:	83 f8 20             	cmp    $0x20,%eax
    752f:	74 28                	je     7559 <_ZN4PCIe13GetDeviceCodeEhhh+0xcf9>
    7531:	83 f8 20             	cmp    $0x20,%eax
    7534:	7f 53                	jg     7589 <_ZN4PCIe13GetDeviceCodeEhhh+0xd29>
    7536:	85 c0                	test   %eax,%eax
    7538:	74 07                	je     7541 <_ZN4PCIe13GetDeviceCodeEhhh+0xce1>
    753a:	83 f8 10             	cmp    $0x10,%eax
    753d:	74 0e                	je     754d <_ZN4PCIe13GetDeviceCodeEhhh+0xced>
    753f:	eb 48                	jmp    7589 <_ZN4PCIe13GetDeviceCodeEhhh+0xd29>
    7541:	48 8d 05 48 2e 01 00 	lea    0x12e48(%rip),%rax        # 1a390 <_ZL4font+0x2a50>
    7548:	e9 08 03 00 00       	jmp    7855 <_ZN4PCIe13GetDeviceCodeEhhh+0xff5>
    754d:	48 8d 05 64 2e 01 00 	lea    0x12e64(%rip),%rax        # 1a3b8 <_ZL4font+0x2a78>
    7554:	e9 fc 02 00 00       	jmp    7855 <_ZN4PCIe13GetDeviceCodeEhhh+0xff5>
    7559:	48 8d 05 80 2e 01 00 	lea    0x12e80(%rip),%rax        # 1a3e0 <_ZL4font+0x2aa0>
    7560:	e9 f0 02 00 00       	jmp    7855 <_ZN4PCIe13GetDeviceCodeEhhh+0xff5>
    7565:	48 8d 05 9c 2e 01 00 	lea    0x12e9c(%rip),%rax        # 1a408 <_ZL4font+0x2ac8>
    756c:	e9 e4 02 00 00       	jmp    7855 <_ZN4PCIe13GetDeviceCodeEhhh+0xff5>
    7571:	48 8d 05 b8 2e 01 00 	lea    0x12eb8(%rip),%rax        # 1a430 <_ZL4font+0x2af0>
    7578:	e9 d8 02 00 00       	jmp    7855 <_ZN4PCIe13GetDeviceCodeEhhh+0xff5>
    757d:	48 8d 05 d4 2e 01 00 	lea    0x12ed4(%rip),%rax        # 1a458 <_ZL4font+0x2b18>
    7584:	e9 cc 02 00 00       	jmp    7855 <_ZN4PCIe13GetDeviceCodeEhhh+0xff5>
    7589:	48 8d 05 f0 2e 01 00 	lea    0x12ef0(%rip),%rax        # 1a480 <_ZL4font+0x2b40>
    7590:	e9 c0 02 00 00       	jmp    7855 <_ZN4PCIe13GetDeviceCodeEhhh+0xff5>
    7595:	48 8d 05 0c 2f 01 00 	lea    0x12f0c(%rip),%rax        # 1a4a8 <_ZL4font+0x2b68>
    759c:	e9 b4 02 00 00       	jmp    7855 <_ZN4PCIe13GetDeviceCodeEhhh+0xff5>
    75a1:	48 8d 05 25 2f 01 00 	lea    0x12f25(%rip),%rax        # 1a4cd <_ZL4font+0x2b8d>
    75a8:	e9 a8 02 00 00       	jmp    7855 <_ZN4PCIe13GetDeviceCodeEhhh+0xff5>
    75ad:	48 8d 05 3c 2f 01 00 	lea    0x12f3c(%rip),%rax        # 1a4f0 <_ZL4font+0x2bb0>
    75b4:	e9 9c 02 00 00       	jmp    7855 <_ZN4PCIe13GetDeviceCodeEhhh+0xff5>
    75b9:	0f b6 45 ec          	movzbl -0x14(%rbp),%eax
    75bd:	83 f8 02             	cmp    $0x2,%eax
    75c0:	74 28                	je     75ea <_ZN4PCIe13GetDeviceCodeEhhh+0xd8a>
    75c2:	83 f8 02             	cmp    $0x2,%eax
    75c5:	7f 2f                	jg     75f6 <_ZN4PCIe13GetDeviceCodeEhhh+0xd96>
    75c7:	85 c0                	test   %eax,%eax
    75c9:	74 07                	je     75d2 <_ZN4PCIe13GetDeviceCodeEhhh+0xd72>
    75cb:	83 f8 01             	cmp    $0x1,%eax
    75ce:	74 0e                	je     75de <_ZN4PCIe13GetDeviceCodeEhhh+0xd7e>
    75d0:	eb 24                	jmp    75f6 <_ZN4PCIe13GetDeviceCodeEhhh+0xd96>
    75d2:	48 8d 05 3f 2f 01 00 	lea    0x12f3f(%rip),%rax        # 1a518 <_ZL4font+0x2bd8>
    75d9:	e9 77 02 00 00       	jmp    7855 <_ZN4PCIe13GetDeviceCodeEhhh+0xff5>
    75de:	48 8d 05 63 2f 01 00 	lea    0x12f63(%rip),%rax        # 1a548 <_ZL4font+0x2c08>
    75e5:	e9 6b 02 00 00       	jmp    7855 <_ZN4PCIe13GetDeviceCodeEhhh+0xff5>
    75ea:	48 8d 05 9f 2f 01 00 	lea    0x12f9f(%rip),%rax        # 1a590 <_ZL4font+0x2c50>
    75f1:	e9 5f 02 00 00       	jmp    7855 <_ZN4PCIe13GetDeviceCodeEhhh+0xff5>
    75f6:	48 8d 05 cb 2f 01 00 	lea    0x12fcb(%rip),%rax        # 1a5c8 <_ZL4font+0x2c88>
    75fd:	e9 53 02 00 00       	jmp    7855 <_ZN4PCIe13GetDeviceCodeEhhh+0xff5>
    7602:	48 8d 05 ef 2f 01 00 	lea    0x12fef(%rip),%rax        # 1a5f8 <_ZL4font+0x2cb8>
    7609:	e9 47 02 00 00       	jmp    7855 <_ZN4PCIe13GetDeviceCodeEhhh+0xff5>
    760e:	48 8d 05 0b 30 01 00 	lea    0x1300b(%rip),%rax        # 1a620 <_ZL4font+0x2ce0>
    7615:	e9 3b 02 00 00       	jmp    7855 <_ZN4PCIe13GetDeviceCodeEhhh+0xff5>
    761a:	48 8d 05 1d 30 01 00 	lea    0x1301d(%rip),%rax        # 1a63e <_ZL4font+0x2cfe>
    7621:	e9 2f 02 00 00       	jmp    7855 <_ZN4PCIe13GetDeviceCodeEhhh+0xff5>
    7626:	48 8d 05 33 30 01 00 	lea    0x13033(%rip),%rax        # 1a660 <_ZL4font+0x2d20>
    762d:	e9 23 02 00 00       	jmp    7855 <_ZN4PCIe13GetDeviceCodeEhhh+0xff5>
    7632:	0f b6 45 f0          	movzbl -0x10(%rbp),%eax
    7636:	83 f8 21             	cmp    $0x21,%eax
    7639:	7f 34                	jg     766f <_ZN4PCIe13GetDeviceCodeEhhh+0xe0f>
    763b:	85 c0                	test   %eax,%eax
    763d:	0f 88 95 00 00 00    	js     76d8 <_ZN4PCIe13GetDeviceCodeEhhh+0xe78>
    7643:	83 f8 21             	cmp    $0x21,%eax
    7646:	0f 87 8c 00 00 00    	ja     76d8 <_ZN4PCIe13GetDeviceCodeEhhh+0xe78>
    764c:	89 c0                	mov    %eax,%eax
    764e:	48 8d 14 85 00 00 00 	lea    0x0(,%rax,4),%rdx
    7655:	00 
    7656:	48 8d 05 17 38 01 00 	lea    0x13817(%rip),%rax        # 1ae74 <_ZL4font+0x3534>
    765d:	8b 04 02             	mov    (%rdx,%rax,1),%eax
    7660:	48 98                	cltq
    7662:	48 8d 15 0b 38 01 00 	lea    0x1380b(%rip),%rdx        # 1ae74 <_ZL4font+0x3534>
    7669:	48 01 d0             	add    %rdx,%rax
    766c:	3e ff e0             	notrack jmp *%rax
    766f:	3d 80 00 00 00       	cmp    $0x80,%eax
    7674:	74 56                	je     76cc <_ZN4PCIe13GetDeviceCodeEhhh+0xe6c>
    7676:	eb 60                	jmp    76d8 <_ZN4PCIe13GetDeviceCodeEhhh+0xe78>
    7678:	48 8d 05 01 30 01 00 	lea    0x13001(%rip),%rax        # 1a680 <_ZL4font+0x2d40>
    767f:	e9 d1 01 00 00       	jmp    7855 <_ZN4PCIe13GetDeviceCodeEhhh+0xff5>
    7684:	48 8d 05 1d 30 01 00 	lea    0x1301d(%rip),%rax        # 1a6a8 <_ZL4font+0x2d68>
    768b:	e9 c5 01 00 00       	jmp    7855 <_ZN4PCIe13GetDeviceCodeEhhh+0xff5>
    7690:	48 8d 05 32 30 01 00 	lea    0x13032(%rip),%rax        # 1a6c9 <_ZL4font+0x2d89>
    7697:	e9 b9 01 00 00       	jmp    7855 <_ZN4PCIe13GetDeviceCodeEhhh+0xff5>
    769c:	48 8d 05 45 30 01 00 	lea    0x13045(%rip),%rax        # 1a6e8 <_ZL4font+0x2da8>
    76a3:	e9 ad 01 00 00       	jmp    7855 <_ZN4PCIe13GetDeviceCodeEhhh+0xff5>
    76a8:	48 8d 05 59 30 01 00 	lea    0x13059(%rip),%rax        # 1a708 <_ZL4font+0x2dc8>
    76af:	e9 a1 01 00 00       	jmp    7855 <_ZN4PCIe13GetDeviceCodeEhhh+0xff5>
    76b4:	48 8d 05 6d 30 01 00 	lea    0x1306d(%rip),%rax        # 1a728 <_ZL4font+0x2de8>
    76bb:	e9 95 01 00 00       	jmp    7855 <_ZN4PCIe13GetDeviceCodeEhhh+0xff5>
    76c0:	48 8d 05 89 30 01 00 	lea    0x13089(%rip),%rax        # 1a750 <_ZL4font+0x2e10>
    76c7:	e9 89 01 00 00       	jmp    7855 <_ZN4PCIe13GetDeviceCodeEhhh+0xff5>
    76cc:	48 8d 05 a2 30 01 00 	lea    0x130a2(%rip),%rax        # 1a775 <_ZL4font+0x2e35>
    76d3:	e9 7d 01 00 00       	jmp    7855 <_ZN4PCIe13GetDeviceCodeEhhh+0xff5>
    76d8:	48 8d 05 b1 30 01 00 	lea    0x130b1(%rip),%rax        # 1a790 <_ZL4font+0x2e50>
    76df:	e9 71 01 00 00       	jmp    7855 <_ZN4PCIe13GetDeviceCodeEhhh+0xff5>
    76e4:	0f b6 45 f0          	movzbl -0x10(%rbp),%eax
    76e8:	85 c0                	test   %eax,%eax
    76ea:	75 0c                	jne    76f8 <_ZN4PCIe13GetDeviceCodeEhhh+0xe98>
    76ec:	48 8d 05 ba 30 01 00 	lea    0x130ba(%rip),%rax        # 1a7ad <_ZL4font+0x2e6d>
    76f3:	e9 5d 01 00 00       	jmp    7855 <_ZN4PCIe13GetDeviceCodeEhhh+0xff5>
    76f8:	48 8d 05 d1 30 01 00 	lea    0x130d1(%rip),%rax        # 1a7d0 <_ZL4font+0x2e90>
    76ff:	e9 51 01 00 00       	jmp    7855 <_ZN4PCIe13GetDeviceCodeEhhh+0xff5>
    7704:	0f b6 45 f0          	movzbl -0x10(%rbp),%eax
    7708:	83 f8 04             	cmp    $0x4,%eax
    770b:	74 3f                	je     774c <_ZN4PCIe13GetDeviceCodeEhhh+0xeec>
    770d:	83 f8 04             	cmp    $0x4,%eax
    7710:	7f 46                	jg     7758 <_ZN4PCIe13GetDeviceCodeEhhh+0xef8>
    7712:	83 f8 03             	cmp    $0x3,%eax
    7715:	74 29                	je     7740 <_ZN4PCIe13GetDeviceCodeEhhh+0xee0>
    7717:	83 f8 03             	cmp    $0x3,%eax
    771a:	7f 3c                	jg     7758 <_ZN4PCIe13GetDeviceCodeEhhh+0xef8>
    771c:	83 f8 01             	cmp    $0x1,%eax
    771f:	74 07                	je     7728 <_ZN4PCIe13GetDeviceCodeEhhh+0xec8>
    7721:	83 f8 02             	cmp    $0x2,%eax
    7724:	74 0e                	je     7734 <_ZN4PCIe13GetDeviceCodeEhhh+0xed4>
    7726:	eb 30                	jmp    7758 <_ZN4PCIe13GetDeviceCodeEhhh+0xef8>
    7728:	48 8d 05 c1 30 01 00 	lea    0x130c1(%rip),%rax        # 1a7f0 <_ZL4font+0x2eb0>
    772f:	e9 21 01 00 00       	jmp    7855 <_ZN4PCIe13GetDeviceCodeEhhh+0xff5>
    7734:	48 8d 05 dd 30 01 00 	lea    0x130dd(%rip),%rax        # 1a818 <_ZL4font+0x2ed8>
    773b:	e9 15 01 00 00       	jmp    7855 <_ZN4PCIe13GetDeviceCodeEhhh+0xff5>
    7740:	48 8d 05 01 31 01 00 	lea    0x13101(%rip),%rax        # 1a848 <_ZL4font+0x2f08>
    7747:	e9 09 01 00 00       	jmp    7855 <_ZN4PCIe13GetDeviceCodeEhhh+0xff5>
    774c:	48 8d 05 25 31 01 00 	lea    0x13125(%rip),%rax        # 1a878 <_ZL4font+0x2f38>
    7753:	e9 fd 00 00 00       	jmp    7855 <_ZN4PCIe13GetDeviceCodeEhhh+0xff5>
    7758:	48 8d 05 41 31 01 00 	lea    0x13141(%rip),%rax        # 1a8a0 <_ZL4font+0x2f60>
    775f:	e9 f1 00 00 00       	jmp    7855 <_ZN4PCIe13GetDeviceCodeEhhh+0xff5>
    7764:	0f b6 45 f0          	movzbl -0x10(%rbp),%eax
    7768:	3d 80 00 00 00       	cmp    $0x80,%eax
    776d:	74 2a                	je     7799 <_ZN4PCIe13GetDeviceCodeEhhh+0xf39>
    776f:	3d 80 00 00 00       	cmp    $0x80,%eax
    7774:	7f 2f                	jg     77a5 <_ZN4PCIe13GetDeviceCodeEhhh+0xf45>
    7776:	85 c0                	test   %eax,%eax
    7778:	74 07                	je     7781 <_ZN4PCIe13GetDeviceCodeEhhh+0xf21>
    777a:	83 f8 10             	cmp    $0x10,%eax
    777d:	74 0e                	je     778d <_ZN4PCIe13GetDeviceCodeEhhh+0xf2d>
    777f:	eb 24                	jmp    77a5 <_ZN4PCIe13GetDeviceCodeEhhh+0xf45>
    7781:	48 8d 05 40 31 01 00 	lea    0x13140(%rip),%rax        # 1a8c8 <_ZL4font+0x2f88>
    7788:	e9 c8 00 00 00       	jmp    7855 <_ZN4PCIe13GetDeviceCodeEhhh+0xff5>
    778d:	48 8d 05 74 31 01 00 	lea    0x13174(%rip),%rax        # 1a908 <_ZL4font+0x2fc8>
    7794:	e9 bc 00 00 00       	jmp    7855 <_ZN4PCIe13GetDeviceCodeEhhh+0xff5>
    7799:	48 8d 05 a3 31 01 00 	lea    0x131a3(%rip),%rax        # 1a943 <_ZL4font+0x3003>
    77a0:	e9 b0 00 00 00       	jmp    7855 <_ZN4PCIe13GetDeviceCodeEhhh+0xff5>
    77a5:	48 8d 05 b4 31 01 00 	lea    0x131b4(%rip),%rax        # 1a960 <_ZL4font+0x3020>
    77ac:	e9 a4 00 00 00       	jmp    7855 <_ZN4PCIe13GetDeviceCodeEhhh+0xff5>
    77b1:	0f b6 45 f0          	movzbl -0x10(%rbp),%eax
    77b5:	3d 80 00 00 00       	cmp    $0x80,%eax
    77ba:	74 4a                	je     7806 <_ZN4PCIe13GetDeviceCodeEhhh+0xfa6>
    77bc:	3d 80 00 00 00       	cmp    $0x80,%eax
    77c1:	7f 4c                	jg     780f <_ZN4PCIe13GetDeviceCodeEhhh+0xfaf>
    77c3:	83 f8 20             	cmp    $0x20,%eax
    77c6:	74 35                	je     77fd <_ZN4PCIe13GetDeviceCodeEhhh+0xf9d>
    77c8:	83 f8 20             	cmp    $0x20,%eax
    77cb:	7f 42                	jg     780f <_ZN4PCIe13GetDeviceCodeEhhh+0xfaf>
    77cd:	83 f8 10             	cmp    $0x10,%eax
    77d0:	74 22                	je     77f4 <_ZN4PCIe13GetDeviceCodeEhhh+0xf94>
    77d2:	83 f8 10             	cmp    $0x10,%eax
    77d5:	7f 38                	jg     780f <_ZN4PCIe13GetDeviceCodeEhhh+0xfaf>
    77d7:	85 c0                	test   %eax,%eax
    77d9:	74 07                	je     77e2 <_ZN4PCIe13GetDeviceCodeEhhh+0xf82>
    77db:	83 f8 01             	cmp    $0x1,%eax
    77de:	74 0b                	je     77eb <_ZN4PCIe13GetDeviceCodeEhhh+0xf8b>
    77e0:	eb 2d                	jmp    780f <_ZN4PCIe13GetDeviceCodeEhhh+0xfaf>
    77e2:	48 8d 05 97 31 01 00 	lea    0x13197(%rip),%rax        # 1a980 <_ZL4font+0x3040>
    77e9:	eb 6a                	jmp    7855 <_ZN4PCIe13GetDeviceCodeEhhh+0xff5>
    77eb:	48 8d 05 be 31 01 00 	lea    0x131be(%rip),%rax        # 1a9b0 <_ZL4font+0x3070>
    77f2:	eb 61                	jmp    7855 <_ZN4PCIe13GetDeviceCodeEhhh+0xff5>
    77f4:	48 8d 05 ed 31 01 00 	lea    0x131ed(%rip),%rax        # 1a9e8 <_ZL4font+0x30a8>
    77fb:	eb 58                	jmp    7855 <_ZN4PCIe13GetDeviceCodeEhhh+0xff5>
    77fd:	48 8d 05 24 32 01 00 	lea    0x13224(%rip),%rax        # 1aa28 <_ZL4font+0x30e8>
    7804:	eb 4f                	jmp    7855 <_ZN4PCIe13GetDeviceCodeEhhh+0xff5>
    7806:	48 8d 05 5b 32 01 00 	lea    0x1325b(%rip),%rax        # 1aa68 <_ZL4font+0x3128>
    780d:	eb 46                	jmp    7855 <_ZN4PCIe13GetDeviceCodeEhhh+0xff5>
    780f:	48 8d 05 7a 32 01 00 	lea    0x1327a(%rip),%rax        # 1aa90 <_ZL4font+0x3150>
    7816:	eb 3d                	jmp    7855 <_ZN4PCIe13GetDeviceCodeEhhh+0xff5>
    7818:	48 8d 05 a7 12 01 00 	lea    0x112a7(%rip),%rax        # 18ac6 <_ZL4font+0x1186>
    781f:	eb 34                	jmp    7855 <_ZN4PCIe13GetDeviceCodeEhhh+0xff5>
    7821:	48 8d 05 8e 32 01 00 	lea    0x1328e(%rip),%rax        # 1aab6 <_ZL4font+0x3176>
    7828:	eb 2b                	jmp    7855 <_ZN4PCIe13GetDeviceCodeEhhh+0xff5>
    782a:	48 8d 05 a3 32 01 00 	lea    0x132a3(%rip),%rax        # 1aad4 <_ZL4font+0x3194>
    7831:	eb 22                	jmp    7855 <_ZN4PCIe13GetDeviceCodeEhhh+0xff5>
    7833:	48 8d 05 a8 32 01 00 	lea    0x132a8(%rip),%rax        # 1aae2 <_ZL4font+0x31a2>
    783a:	eb 19                	jmp    7855 <_ZN4PCIe13GetDeviceCodeEhhh+0xff5>
    783c:	48 8d 05 ac 32 01 00 	lea    0x132ac(%rip),%rax        # 1aaef <_ZL4font+0x31af>
    7843:	eb 10                	jmp    7855 <_ZN4PCIe13GetDeviceCodeEhhh+0xff5>
    7845:	48 8d 05 b1 32 01 00 	lea    0x132b1(%rip),%rax        # 1aafd <_ZL4font+0x31bd>
    784c:	eb 07                	jmp    7855 <_ZN4PCIe13GetDeviceCodeEhhh+0xff5>
    784e:	48 8d 05 88 12 01 00 	lea    0x11288(%rip),%rax        # 18add <_ZL4font+0x119d>
    7855:	5d                   	pop    %rbp
    7856:	c3                   	ret
    7857:	90                   	nop

0000000000007858 <_ZN4PCIe11GetECAMBaseEt>:
    7858:	f3 0f 1e fa          	endbr64
    785c:	55                   	push   %rbp
    785d:	48 89 e5             	mov    %rsp,%rbp
    7860:	48 89 7d e8          	mov    %rdi,-0x18(%rbp)
    7864:	89 f0                	mov    %esi,%eax
    7866:	66 89 45 e4          	mov    %ax,-0x1c(%rbp)
    786a:	c7 45 fc 00 00 00 00 	movl   $0x0,-0x4(%rbp)
    7871:	eb 48                	jmp    78bb <_ZN4PCIe11GetECAMBaseEt+0x63>
    7873:	48 8b 45 e8          	mov    -0x18(%rbp),%rax
    7877:	48 8b 40 18          	mov    0x18(%rax),%rax
    787b:	8b 55 fc             	mov    -0x4(%rbp),%edx
    787e:	48 63 d2             	movslq %edx,%rdx
    7881:	48 83 c2 03          	add    $0x3,%rdx
    7885:	48 c1 e2 04          	shl    $0x4,%rdx
    7889:	48 01 d0             	add    %rdx,%rax
    788c:	48 83 c0 08          	add    $0x8,%rax
    7890:	0f b7 00             	movzwl (%rax),%eax
    7893:	66 39 45 e4          	cmp    %ax,-0x1c(%rbp)
    7897:	75 1e                	jne    78b7 <_ZN4PCIe11GetECAMBaseEt+0x5f>
    7899:	48 8b 45 e8          	mov    -0x18(%rbp),%rax
    789d:	48 8b 40 18          	mov    0x18(%rax),%rax
    78a1:	8b 55 fc             	mov    -0x4(%rbp),%edx
    78a4:	48 63 d2             	movslq %edx,%rdx
    78a7:	48 83 c2 03          	add    $0x3,%rdx
    78ab:	48 c1 e2 04          	shl    $0x4,%rdx
    78af:	48 01 d0             	add    %rdx,%rax
    78b2:	48 8b 00             	mov    (%rax),%rax
    78b5:	eb 15                	jmp    78cc <_ZN4PCIe11GetECAMBaseEt+0x74>
    78b7:	83 45 fc 01          	addl   $0x1,-0x4(%rbp)
    78bb:	48 8b 45 e8          	mov    -0x18(%rbp),%rax
    78bf:	8b 40 20             	mov    0x20(%rax),%eax
    78c2:	39 45 fc             	cmp    %eax,-0x4(%rbp)
    78c5:	7c ac                	jl     7873 <_ZN4PCIe11GetECAMBaseEt+0x1b>
    78c7:	b8 00 00 00 00       	mov    $0x0,%eax
    78cc:	5d                   	pop    %rbp
    78cd:	c3                   	ret

00000000000078ce <_ZN4PCIe14ConfigReadWordEthhhh>:
    78ce:	f3 0f 1e fa          	endbr64
    78d2:	55                   	push   %rbp
    78d3:	48 89 e5             	mov    %rsp,%rbp
    78d6:	48 83 ec 30          	sub    $0x30,%rsp
    78da:	48 89 7d e8          	mov    %rdi,-0x18(%rbp)
    78de:	89 c8                	mov    %ecx,%eax
    78e0:	44 89 cf             	mov    %r9d,%edi
    78e3:	89 f1                	mov    %esi,%ecx
    78e5:	66 89 4d e4          	mov    %cx,-0x1c(%rbp)
    78e9:	88 55 e0             	mov    %dl,-0x20(%rbp)
    78ec:	88 45 dc             	mov    %al,-0x24(%rbp)
    78ef:	44 89 c0             	mov    %r8d,%eax
    78f2:	88 45 d8             	mov    %al,-0x28(%rbp)
    78f5:	89 f8                	mov    %edi,%eax
    78f7:	88 45 d4             	mov    %al,-0x2c(%rbp)
    78fa:	0f b6 45 d4          	movzbl -0x2c(%rbp),%eax
    78fe:	25 fc 00 00 00       	and    $0xfc,%eax
    7903:	41 89 c0             	mov    %eax,%r8d
    7906:	0f b6 7d d8          	movzbl -0x28(%rbp),%edi
    790a:	0f b6 4d dc          	movzbl -0x24(%rbp),%ecx
    790e:	0f b6 55 e0          	movzbl -0x20(%rbp),%edx
    7912:	0f b7 75 e4          	movzwl -0x1c(%rbp),%esi
    7916:	48 8b 45 e8          	mov    -0x18(%rbp),%rax
    791a:	45 89 c1             	mov    %r8d,%r9d
    791d:	41 89 f8             	mov    %edi,%r8d
    7920:	48 89 c7             	mov    %rax,%rdi
    7923:	e8 18 02 00 00       	call   7b40 <_ZN4PCIe15ConfigReadDWordEthhhh>
    7928:	89 45 fc             	mov    %eax,-0x4(%rbp)
    792b:	0f b6 45 d4          	movzbl -0x2c(%rbp),%eax
    792f:	83 e0 02             	and    $0x2,%eax
    7932:	c1 e0 03             	shl    $0x3,%eax
    7935:	88 45 fb             	mov    %al,-0x5(%rbp)
    7938:	0f b6 45 fb          	movzbl -0x5(%rbp),%eax
    793c:	8b 55 fc             	mov    -0x4(%rbp),%edx
    793f:	89 c1                	mov    %eax,%ecx
    7941:	d3 ea                	shr    %cl,%edx
    7943:	89 d0                	mov    %edx,%eax
    7945:	c9                   	leave
    7946:	c3                   	ret
    7947:	90                   	nop

0000000000007948 <_ZN4PCIe15ConfigWriteWordEthhhht>:
    7948:	f3 0f 1e fa          	endbr64
    794c:	55                   	push   %rbp
    794d:	48 89 e5             	mov    %rsp,%rbp
    7950:	48 83 ec 50          	sub    $0x50,%rsp
    7954:	48 89 7d c8          	mov    %rdi,-0x38(%rbp)
    7958:	89 c8                	mov    %ecx,%eax
    795a:	44 89 cf             	mov    %r9d,%edi
    795d:	8b 4d 10             	mov    0x10(%rbp),%ecx
    7960:	66 89 75 c4          	mov    %si,-0x3c(%rbp)
    7964:	88 55 c0             	mov    %dl,-0x40(%rbp)
    7967:	88 45 bc             	mov    %al,-0x44(%rbp)
    796a:	44 89 c0             	mov    %r8d,%eax
    796d:	88 45 b8             	mov    %al,-0x48(%rbp)
    7970:	89 f8                	mov    %edi,%eax
    7972:	88 45 b4             	mov    %al,-0x4c(%rbp)
    7975:	89 c8                	mov    %ecx,%eax
    7977:	66 89 45 b0          	mov    %ax,-0x50(%rbp)
    797b:	0f b7 55 c4          	movzwl -0x3c(%rbp),%edx
    797f:	48 8b 45 c8          	mov    -0x38(%rbp),%rax
    7983:	89 d6                	mov    %edx,%esi
    7985:	48 89 c7             	mov    %rax,%rdi
    7988:	e8 cb fe ff ff       	call   7858 <_ZN4PCIe11GetECAMBaseEt>
    798d:	48 89 45 f8          	mov    %rax,-0x8(%rbp)
    7991:	48 83 7d f8 00       	cmpq   $0x0,-0x8(%rbp)
    7996:	0f 84 8e 00 00 00    	je     7a2a <_ZN4PCIe15ConfigWriteWordEthhhht+0xe2>
    799c:	0f b6 45 c0          	movzbl -0x40(%rbp),%eax
    79a0:	48 c1 e0 14          	shl    $0x14,%rax
    79a4:	48 89 c2             	mov    %rax,%rdx
    79a7:	0f b6 45 bc          	movzbl -0x44(%rbp),%eax
    79ab:	48 c1 e0 0f          	shl    $0xf,%rax
    79af:	48 09 c2             	or     %rax,%rdx
    79b2:	0f b6 45 b8          	movzbl -0x48(%rbp),%eax
    79b6:	48 c1 e0 0c          	shl    $0xc,%rax
    79ba:	48 09 c2             	or     %rax,%rdx
    79bd:	0f b6 45 b4          	movzbl -0x4c(%rbp),%eax
    79c1:	83 e0 fc             	and    $0xfffffffc,%eax
    79c4:	48 98                	cltq
    79c6:	48 09 d0             	or     %rdx,%rax
    79c9:	48 89 45 f0          	mov    %rax,-0x10(%rbp)
    79cd:	48 8b 55 f8          	mov    -0x8(%rbp),%rdx
    79d1:	48 8b 45 f0          	mov    -0x10(%rbp),%rax
    79d5:	48 01 d0             	add    %rdx,%rax
    79d8:	48 89 45 e8          	mov    %rax,-0x18(%rbp)
    79dc:	48 8b 45 e8          	mov    -0x18(%rbp),%rax
    79e0:	8b 00                	mov    (%rax),%eax
    79e2:	89 45 e4             	mov    %eax,-0x1c(%rbp)
    79e5:	0f b6 45 b4          	movzbl -0x4c(%rbp),%eax
    79e9:	83 e0 02             	and    $0x2,%eax
    79ec:	c1 e0 03             	shl    $0x3,%eax
    79ef:	89 45 e0             	mov    %eax,-0x20(%rbp)
    79f2:	8b 45 e0             	mov    -0x20(%rbp),%eax
    79f5:	ba ff ff 00 00       	mov    $0xffff,%edx
    79fa:	89 c1                	mov    %eax,%ecx
    79fc:	d3 e2                	shl    %cl,%edx
    79fe:	89 d0                	mov    %edx,%eax
    7a00:	89 45 dc             	mov    %eax,-0x24(%rbp)
    7a03:	8b 45 dc             	mov    -0x24(%rbp),%eax
    7a06:	f7 d0                	not    %eax
    7a08:	23 45 e4             	and    -0x1c(%rbp),%eax
    7a0b:	89 c2                	mov    %eax,%edx
    7a0d:	0f b7 75 b0          	movzwl -0x50(%rbp),%esi
    7a11:	8b 45 e0             	mov    -0x20(%rbp),%eax
    7a14:	89 c1                	mov    %eax,%ecx
    7a16:	d3 e6                	shl    %cl,%esi
    7a18:	89 f0                	mov    %esi,%eax
    7a1a:	09 d0                	or     %edx,%eax
    7a1c:	89 45 d8             	mov    %eax,-0x28(%rbp)
    7a1f:	48 8b 45 e8          	mov    -0x18(%rbp),%rax
    7a23:	8b 55 d8             	mov    -0x28(%rbp),%edx
    7a26:	89 10                	mov    %edx,(%rax)
    7a28:	eb 01                	jmp    7a2b <_ZN4PCIe15ConfigWriteWordEthhhht+0xe3>
    7a2a:	90                   	nop
    7a2b:	c9                   	leave
    7a2c:	c3                   	ret
    7a2d:	90                   	nop

0000000000007a2e <_ZN4PCIe16ConfigWriteDWordEthhhhj>:
    7a2e:	f3 0f 1e fa          	endbr64
    7a32:	55                   	push   %rbp
    7a33:	48 89 e5             	mov    %rsp,%rbp
    7a36:	48 83 ec 40          	sub    $0x40,%rsp
    7a3a:	48 89 7d d8          	mov    %rdi,-0x28(%rbp)
    7a3e:	89 c8                	mov    %ecx,%eax
    7a40:	44 89 cf             	mov    %r9d,%edi
    7a43:	89 f1                	mov    %esi,%ecx
    7a45:	66 89 4d d4          	mov    %cx,-0x2c(%rbp)
    7a49:	88 55 d0             	mov    %dl,-0x30(%rbp)
    7a4c:	88 45 cc             	mov    %al,-0x34(%rbp)
    7a4f:	44 89 c0             	mov    %r8d,%eax
    7a52:	88 45 c8             	mov    %al,-0x38(%rbp)
    7a55:	89 f8                	mov    %edi,%eax
    7a57:	88 45 c4             	mov    %al,-0x3c(%rbp)
    7a5a:	0f b7 55 d4          	movzwl -0x2c(%rbp),%edx
    7a5e:	48 8b 45 d8          	mov    -0x28(%rbp),%rax
    7a62:	89 d6                	mov    %edx,%esi
    7a64:	48 89 c7             	mov    %rax,%rdi
    7a67:	e8 ec fd ff ff       	call   7858 <_ZN4PCIe11GetECAMBaseEt>
    7a6c:	48 89 45 f8          	mov    %rax,-0x8(%rbp)
    7a70:	48 83 7d f8 00       	cmpq   $0x0,-0x8(%rbp)
    7a75:	74 4b                	je     7ac2 <_ZN4PCIe16ConfigWriteDWordEthhhhj+0x94>
    7a77:	0f b6 45 d0          	movzbl -0x30(%rbp),%eax
    7a7b:	48 c1 e0 14          	shl    $0x14,%rax
    7a7f:	48 89 c2             	mov    %rax,%rdx
    7a82:	0f b6 45 cc          	movzbl -0x34(%rbp),%eax
    7a86:	48 c1 e0 0f          	shl    $0xf,%rax
    7a8a:	48 09 c2             	or     %rax,%rdx
    7a8d:	0f b6 45 c8          	movzbl -0x38(%rbp),%eax
    7a91:	48 c1 e0 0c          	shl    $0xc,%rax
    7a95:	48 09 c2             	or     %rax,%rdx
    7a98:	0f b6 45 c4          	movzbl -0x3c(%rbp),%eax
    7a9c:	83 e0 fc             	and    $0xfffffffc,%eax
    7a9f:	48 98                	cltq
    7aa1:	48 09 d0             	or     %rdx,%rax
    7aa4:	48 89 45 f0          	mov    %rax,-0x10(%rbp)
    7aa8:	48 8b 55 f8          	mov    -0x8(%rbp),%rdx
    7aac:	48 8b 45 f0          	mov    -0x10(%rbp),%rax
    7ab0:	48 01 d0             	add    %rdx,%rax
    7ab3:	48 89 45 e8          	mov    %rax,-0x18(%rbp)
    7ab7:	48 8b 45 e8          	mov    -0x18(%rbp),%rax
    7abb:	8b 55 10             	mov    0x10(%rbp),%edx
    7abe:	89 10                	mov    %edx,(%rax)
    7ac0:	eb 01                	jmp    7ac3 <_ZN4PCIe16ConfigWriteDWordEthhhhj+0x95>
    7ac2:	90                   	nop
    7ac3:	c9                   	leave
    7ac4:	c3                   	ret
    7ac5:	90                   	nop

0000000000007ac6 <_ZN4PCIe14ConfigReadByteEthhhh>:
    7ac6:	f3 0f 1e fa          	endbr64
    7aca:	55                   	push   %rbp
    7acb:	48 89 e5             	mov    %rsp,%rbp
    7ace:	48 83 ec 30          	sub    $0x30,%rsp
    7ad2:	48 89 7d e8          	mov    %rdi,-0x18(%rbp)
    7ad6:	89 c8                	mov    %ecx,%eax
    7ad8:	44 89 cf             	mov    %r9d,%edi
    7adb:	89 f1                	mov    %esi,%ecx
    7add:	66 89 4d e4          	mov    %cx,-0x1c(%rbp)
    7ae1:	88 55 e0             	mov    %dl,-0x20(%rbp)
    7ae4:	88 45 dc             	mov    %al,-0x24(%rbp)
    7ae7:	44 89 c0             	mov    %r8d,%eax
    7aea:	88 45 d8             	mov    %al,-0x28(%rbp)
    7aed:	89 f8                	mov    %edi,%eax
    7aef:	88 45 d4             	mov    %al,-0x2c(%rbp)
    7af2:	0f b6 45 d4          	movzbl -0x2c(%rbp),%eax
    7af6:	25 fc 00 00 00       	and    $0xfc,%eax
    7afb:	41 89 c0             	mov    %eax,%r8d
    7afe:	0f b6 7d d8          	movzbl -0x28(%rbp),%edi
    7b02:	0f b6 4d dc          	movzbl -0x24(%rbp),%ecx
    7b06:	0f b6 55 e0          	movzbl -0x20(%rbp),%edx
    7b0a:	0f b7 75 e4          	movzwl -0x1c(%rbp),%esi
    7b0e:	48 8b 45 e8          	mov    -0x18(%rbp),%rax
    7b12:	45 89 c1             	mov    %r8d,%r9d
    7b15:	41 89 f8             	mov    %edi,%r8d
    7b18:	48 89 c7             	mov    %rax,%rdi
    7b1b:	e8 20 00 00 00       	call   7b40 <_ZN4PCIe15ConfigReadDWordEthhhh>
    7b20:	89 45 fc             	mov    %eax,-0x4(%rbp)
    7b23:	0f b6 45 d4          	movzbl -0x2c(%rbp),%eax
    7b27:	83 e0 03             	and    $0x3,%eax
    7b2a:	c1 e0 03             	shl    $0x3,%eax
    7b2d:	88 45 fb             	mov    %al,-0x5(%rbp)
    7b30:	0f b6 45 fb          	movzbl -0x5(%rbp),%eax
    7b34:	8b 55 fc             	mov    -0x4(%rbp),%edx
    7b37:	89 c1                	mov    %eax,%ecx
    7b39:	d3 ea                	shr    %cl,%edx
    7b3b:	89 d0                	mov    %edx,%eax
    7b3d:	c9                   	leave
    7b3e:	c3                   	ret
    7b3f:	90                   	nop

0000000000007b40 <_ZN4PCIe15ConfigReadDWordEthhhh>:
    7b40:	f3 0f 1e fa          	endbr64
    7b44:	55                   	push   %rbp
    7b45:	48 89 e5             	mov    %rsp,%rbp
    7b48:	48 83 ec 40          	sub    $0x40,%rsp
    7b4c:	48 89 7d d8          	mov    %rdi,-0x28(%rbp)
    7b50:	89 c8                	mov    %ecx,%eax
    7b52:	44 89 cf             	mov    %r9d,%edi
    7b55:	89 f1                	mov    %esi,%ecx
    7b57:	66 89 4d d4          	mov    %cx,-0x2c(%rbp)
    7b5b:	88 55 d0             	mov    %dl,-0x30(%rbp)
    7b5e:	88 45 cc             	mov    %al,-0x34(%rbp)
    7b61:	44 89 c0             	mov    %r8d,%eax
    7b64:	88 45 c8             	mov    %al,-0x38(%rbp)
    7b67:	89 f8                	mov    %edi,%eax
    7b69:	88 45 c4             	mov    %al,-0x3c(%rbp)
    7b6c:	0f b7 55 d4          	movzwl -0x2c(%rbp),%edx
    7b70:	48 8b 45 d8          	mov    -0x28(%rbp),%rax
    7b74:	89 d6                	mov    %edx,%esi
    7b76:	48 89 c7             	mov    %rax,%rdi
    7b79:	e8 da fc ff ff       	call   7858 <_ZN4PCIe11GetECAMBaseEt>
    7b7e:	48 89 45 f8          	mov    %rax,-0x8(%rbp)
    7b82:	48 83 7d f8 00       	cmpq   $0x0,-0x8(%rbp)
    7b87:	75 07                	jne    7b90 <_ZN4PCIe15ConfigReadDWordEthhhh+0x50>
    7b89:	b8 ff ff ff ff       	mov    $0xffffffff,%eax
    7b8e:	eb 46                	jmp    7bd6 <_ZN4PCIe15ConfigReadDWordEthhhh+0x96>
    7b90:	0f b6 45 d0          	movzbl -0x30(%rbp),%eax
    7b94:	48 c1 e0 14          	shl    $0x14,%rax
    7b98:	48 89 c2             	mov    %rax,%rdx
    7b9b:	0f b6 45 cc          	movzbl -0x34(%rbp),%eax
    7b9f:	48 c1 e0 0f          	shl    $0xf,%rax
    7ba3:	48 09 c2             	or     %rax,%rdx
    7ba6:	0f b6 45 c8          	movzbl -0x38(%rbp),%eax
    7baa:	48 c1 e0 0c          	shl    $0xc,%rax
    7bae:	48 09 c2             	or     %rax,%rdx
    7bb1:	0f b6 45 c4          	movzbl -0x3c(%rbp),%eax
    7bb5:	83 e0 fc             	and    $0xfffffffc,%eax
    7bb8:	48 98                	cltq
    7bba:	48 09 d0             	or     %rdx,%rax
    7bbd:	48 89 45 f0          	mov    %rax,-0x10(%rbp)
    7bc1:	48 8b 55 f8          	mov    -0x8(%rbp),%rdx
    7bc5:	48 8b 45 f0          	mov    -0x10(%rbp),%rax
    7bc9:	48 01 d0             	add    %rdx,%rax
    7bcc:	48 89 45 e8          	mov    %rax,-0x18(%rbp)
    7bd0:	48 8b 45 e8          	mov    -0x18(%rbp),%rax
    7bd4:	8b 00                	mov    (%rax),%eax
    7bd6:	c9                   	leave
    7bd7:	c3                   	ret

0000000000007bd8 <_ZN4PCIe11getVendorIDEthhh>:
    7bd8:	f3 0f 1e fa          	endbr64
    7bdc:	55                   	push   %rbp
    7bdd:	48 89 e5             	mov    %rsp,%rbp
    7be0:	48 83 ec 20          	sub    $0x20,%rsp
    7be4:	48 89 7d f8          	mov    %rdi,-0x8(%rbp)
    7be8:	89 c8                	mov    %ecx,%eax
    7bea:	44 89 c7             	mov    %r8d,%edi
    7bed:	89 f1                	mov    %esi,%ecx
    7bef:	66 89 4d f4          	mov    %cx,-0xc(%rbp)
    7bf3:	88 55 f0             	mov    %dl,-0x10(%rbp)
    7bf6:	88 45 ec             	mov    %al,-0x14(%rbp)
    7bf9:	89 f8                	mov    %edi,%eax
    7bfb:	88 45 e8             	mov    %al,-0x18(%rbp)
    7bfe:	0f b6 7d e8          	movzbl -0x18(%rbp),%edi
    7c02:	0f b6 4d ec          	movzbl -0x14(%rbp),%ecx
    7c06:	0f b6 55 f0          	movzbl -0x10(%rbp),%edx
    7c0a:	0f b7 75 f4          	movzwl -0xc(%rbp),%esi
    7c0e:	48 8b 45 f8          	mov    -0x8(%rbp),%rax
    7c12:	41 b9 00 00 00 00    	mov    $0x0,%r9d
    7c18:	41 89 f8             	mov    %edi,%r8d
    7c1b:	48 89 c7             	mov    %rax,%rdi
    7c1e:	e8 ab fc ff ff       	call   78ce <_ZN4PCIe14ConfigReadWordEthhhh>
    7c23:	c9                   	leave
    7c24:	c3                   	ret
    7c25:	90                   	nop

0000000000007c26 <_ZN4PCIe13getHeaderTypeEthhh>:
    7c26:	f3 0f 1e fa          	endbr64
    7c2a:	55                   	push   %rbp
    7c2b:	48 89 e5             	mov    %rsp,%rbp
    7c2e:	48 83 ec 20          	sub    $0x20,%rsp
    7c32:	48 89 7d f8          	mov    %rdi,-0x8(%rbp)
    7c36:	89 c8                	mov    %ecx,%eax
    7c38:	44 89 c7             	mov    %r8d,%edi
    7c3b:	89 f1                	mov    %esi,%ecx
    7c3d:	66 89 4d f4          	mov    %cx,-0xc(%rbp)
    7c41:	88 55 f0             	mov    %dl,-0x10(%rbp)
    7c44:	88 45 ec             	mov    %al,-0x14(%rbp)
    7c47:	89 f8                	mov    %edi,%eax
    7c49:	88 45 e8             	mov    %al,-0x18(%rbp)
    7c4c:	0f b6 7d e8          	movzbl -0x18(%rbp),%edi
    7c50:	0f b6 4d ec          	movzbl -0x14(%rbp),%ecx
    7c54:	0f b6 55 f0          	movzbl -0x10(%rbp),%edx
    7c58:	0f b7 75 f4          	movzwl -0xc(%rbp),%esi
    7c5c:	48 8b 45 f8          	mov    -0x8(%rbp),%rax
    7c60:	41 b9 0e 00 00 00    	mov    $0xe,%r9d
    7c66:	41 89 f8             	mov    %edi,%r8d
    7c69:	48 89 c7             	mov    %rax,%rdi
    7c6c:	e8 5d fc ff ff       	call   78ce <_ZN4PCIe14ConfigReadWordEthhhh>
    7c71:	c9                   	leave
    7c72:	c3                   	ret
    7c73:	90                   	nop

0000000000007c74 <_ZN4PCIe18deviceAlreadyFoundEthhh>:
    7c74:	f3 0f 1e fa          	endbr64
    7c78:	55                   	push   %rbp
    7c79:	48 89 e5             	mov    %rsp,%rbp
    7c7c:	48 83 ec 30          	sub    $0x30,%rsp
    7c80:	48 89 7d e8          	mov    %rdi,-0x18(%rbp)
    7c84:	89 c8                	mov    %ecx,%eax
    7c86:	44 89 c7             	mov    %r8d,%edi
    7c89:	89 f1                	mov    %esi,%ecx
    7c8b:	66 89 4d e4          	mov    %cx,-0x1c(%rbp)
    7c8f:	88 55 e0             	mov    %dl,-0x20(%rbp)
    7c92:	88 45 dc             	mov    %al,-0x24(%rbp)
    7c95:	89 f8                	mov    %edi,%eax
    7c97:	88 45 d8             	mov    %al,-0x28(%rbp)
    7c9a:	c7 45 fc 00 00 00 00 	movl   $0x0,-0x4(%rbp)
    7ca1:	e9 93 00 00 00       	jmp    7d39 <_ZN4PCIe18deviceAlreadyFoundEthhh+0xc5>
    7ca6:	48 8b 45 e8          	mov    -0x18(%rbp),%rax
    7caa:	8b 55 fc             	mov    -0x4(%rbp),%edx
    7cad:	48 63 d2             	movslq %edx,%rdx
    7cb0:	48 89 d6             	mov    %rdx,%rsi
    7cb3:	48 89 c7             	mov    %rax,%rdi
    7cb6:	e8 a3 01 00 00       	call   7e5e <_ZN5ArrayI13PCIeDeviceKeyEixEm>
    7cbb:	0f b7 00             	movzwl (%rax),%eax
    7cbe:	66 39 45 e4          	cmp    %ax,-0x1c(%rbp)
    7cc2:	75 61                	jne    7d25 <_ZN4PCIe18deviceAlreadyFoundEthhh+0xb1>
    7cc4:	48 8b 45 e8          	mov    -0x18(%rbp),%rax
    7cc8:	8b 55 fc             	mov    -0x4(%rbp),%edx
    7ccb:	48 63 d2             	movslq %edx,%rdx
    7cce:	48 89 d6             	mov    %rdx,%rsi
    7cd1:	48 89 c7             	mov    %rax,%rdi
    7cd4:	e8 85 01 00 00       	call   7e5e <_ZN5ArrayI13PCIeDeviceKeyEixEm>
    7cd9:	0f b6 40 02          	movzbl 0x2(%rax),%eax
    7cdd:	38 45 e0             	cmp    %al,-0x20(%rbp)
    7ce0:	75 43                	jne    7d25 <_ZN4PCIe18deviceAlreadyFoundEthhh+0xb1>
    7ce2:	48 8b 45 e8          	mov    -0x18(%rbp),%rax
    7ce6:	8b 55 fc             	mov    -0x4(%rbp),%edx
    7ce9:	48 63 d2             	movslq %edx,%rdx
    7cec:	48 89 d6             	mov    %rdx,%rsi
    7cef:	48 89 c7             	mov    %rax,%rdi
    7cf2:	e8 67 01 00 00       	call   7e5e <_ZN5ArrayI13PCIeDeviceKeyEixEm>
    7cf7:	0f b6 40 03          	movzbl 0x3(%rax),%eax
    7cfb:	38 45 dc             	cmp    %al,-0x24(%rbp)
    7cfe:	75 25                	jne    7d25 <_ZN4PCIe18deviceAlreadyFoundEthhh+0xb1>
    7d00:	48 8b 45 e8          	mov    -0x18(%rbp),%rax
    7d04:	8b 55 fc             	mov    -0x4(%rbp),%edx
    7d07:	48 63 d2             	movslq %edx,%rdx
    7d0a:	48 89 d6             	mov    %rdx,%rsi
    7d0d:	48 89 c7             	mov    %rax,%rdi
    7d10:	e8 49 01 00 00       	call   7e5e <_ZN5ArrayI13PCIeDeviceKeyEixEm>
    7d15:	0f b6 40 04          	movzbl 0x4(%rax),%eax
    7d19:	38 45 d8             	cmp    %al,-0x28(%rbp)
    7d1c:	75 07                	jne    7d25 <_ZN4PCIe18deviceAlreadyFoundEthhh+0xb1>
    7d1e:	b8 01 00 00 00       	mov    $0x1,%eax
    7d23:	eb 05                	jmp    7d2a <_ZN4PCIe18deviceAlreadyFoundEthhh+0xb6>
    7d25:	b8 00 00 00 00       	mov    $0x0,%eax
    7d2a:	84 c0                	test   %al,%al
    7d2c:	74 07                	je     7d35 <_ZN4PCIe18deviceAlreadyFoundEthhh+0xc1>
    7d2e:	b8 01 00 00 00       	mov    $0x1,%eax
    7d33:	eb 20                	jmp    7d55 <_ZN4PCIe18deviceAlreadyFoundEthhh+0xe1>
    7d35:	83 45 fc 01          	addl   $0x1,-0x4(%rbp)
    7d39:	8b 45 fc             	mov    -0x4(%rbp),%eax
    7d3c:	48 63 d0             	movslq %eax,%rdx
    7d3f:	48 8b 45 e8          	mov    -0x18(%rbp),%rax
    7d43:	48 8b 40 08          	mov    0x8(%rax),%rax
    7d47:	48 39 c2             	cmp    %rax,%rdx
    7d4a:	0f 82 56 ff ff ff    	jb     7ca6 <_ZN4PCIe18deviceAlreadyFoundEthhh+0x32>
    7d50:	b8 00 00 00 00       	mov    $0x0,%eax
    7d55:	c9                   	leave
    7d56:	c3                   	ret
    7d57:	90                   	nop

0000000000007d58 <_ZN4PCIe9addDeviceEthhhb>:
    7d58:	f3 0f 1e fa          	endbr64
    7d5c:	55                   	push   %rbp
    7d5d:	48 89 e5             	mov    %rsp,%rbp
    7d60:	48 83 ec 30          	sub    $0x30,%rsp
    7d64:	48 89 7d e8          	mov    %rdi,-0x18(%rbp)
    7d68:	89 c8                	mov    %ecx,%eax
    7d6a:	44 89 cf             	mov    %r9d,%edi
    7d6d:	89 f1                	mov    %esi,%ecx
    7d6f:	66 89 4d e4          	mov    %cx,-0x1c(%rbp)
    7d73:	88 55 e0             	mov    %dl,-0x20(%rbp)
    7d76:	88 45 dc             	mov    %al,-0x24(%rbp)
    7d79:	44 89 c0             	mov    %r8d,%eax
    7d7c:	88 45 d8             	mov    %al,-0x28(%rbp)
    7d7f:	89 f8                	mov    %edi,%eax
    7d81:	88 45 d4             	mov    %al,-0x2c(%rbp)
    7d84:	48 8b 45 e8          	mov    -0x18(%rbp),%rax
    7d88:	0f b7 55 e4          	movzwl -0x1c(%rbp),%edx
    7d8c:	66 89 55 fa          	mov    %dx,-0x6(%rbp)
    7d90:	0f b6 55 e0          	movzbl -0x20(%rbp),%edx
    7d94:	88 55 fc             	mov    %dl,-0x4(%rbp)
    7d97:	0f b6 55 dc          	movzbl -0x24(%rbp),%edx
    7d9b:	88 55 fd             	mov    %dl,-0x3(%rbp)
    7d9e:	0f b6 55 d8          	movzbl -0x28(%rbp),%edx
    7da2:	88 55 fe             	mov    %dl,-0x2(%rbp)
    7da5:	0f b6 55 d4          	movzbl -0x2c(%rbp),%edx
    7da9:	88 55 ff             	mov    %dl,-0x1(%rbp)
    7dac:	48 8d 55 fa          	lea    -0x6(%rbp),%rdx
    7db0:	48 89 d6             	mov    %rdx,%rsi
    7db3:	48 89 c7             	mov    %rax,%rdi
    7db6:	e8 cf 00 00 00       	call   7e8a <_ZN5ArrayI13PCIeDeviceKeyE9push_backERKS0_>
    7dbb:	90                   	nop
    7dbc:	c9                   	leave
    7dbd:	c3                   	ret

0000000000007dbe <_ZN4PCIe10GetDevicesEv>:
    7dbe:	f3 0f 1e fa          	endbr64
    7dc2:	55                   	push   %rbp
    7dc3:	48 89 e5             	mov    %rsp,%rbp
    7dc6:	48 89 7d f8          	mov    %rdi,-0x8(%rbp)
    7dca:	48 89 75 f0          	mov    %rsi,-0x10(%rbp)
    7dce:	48 8b 4d f8          	mov    -0x8(%rbp),%rcx
    7dd2:	48 8b 75 f0          	mov    -0x10(%rbp),%rsi
    7dd6:	48 8b 06             	mov    (%rsi),%rax
    7dd9:	48 8b 56 08          	mov    0x8(%rsi),%rdx
    7ddd:	48 89 01             	mov    %rax,(%rcx)
    7de0:	48 89 51 08          	mov    %rdx,0x8(%rcx)
    7de4:	48 8b 46 10          	mov    0x10(%rsi),%rax
    7de8:	48 89 41 10          	mov    %rax,0x10(%rcx)
    7dec:	48 8b 45 f8          	mov    -0x8(%rbp),%rax
    7df0:	5d                   	pop    %rbp
    7df1:	c3                   	ret

0000000000007df2 <_ZN4PCIe10EnableMSIxEthhhh>:
    7df2:	f3 0f 1e fa          	endbr64
    7df6:	55                   	push   %rbp
    7df7:	48 89 e5             	mov    %rsp,%rbp
    7dfa:	48 83 ec 20          	sub    $0x20,%rsp
    7dfe:	48 89 7d f8          	mov    %rdi,-0x8(%rbp)
    7e02:	89 c8                	mov    %ecx,%eax
    7e04:	44 89 cf             	mov    %r9d,%edi
    7e07:	89 f1                	mov    %esi,%ecx
    7e09:	66 89 4d f4          	mov    %cx,-0xc(%rbp)
    7e0d:	88 55 f0             	mov    %dl,-0x10(%rbp)
    7e10:	88 45 ec             	mov    %al,-0x14(%rbp)
    7e13:	44 89 c0             	mov    %r8d,%eax
    7e16:	88 45 e8             	mov    %al,-0x18(%rbp)
    7e19:	89 f8                	mov    %edi,%eax
    7e1b:	88 45 e4             	mov    %al,-0x1c(%rbp)
    7e1e:	48 8b 05 db ea 01 00 	mov    0x1eadb(%rip),%rax        # 26900 <ks>
    7e25:	48 89 c1             	mov    %rax,%rcx
    7e28:	ba ff ff ff ff       	mov    $0xffffffff,%edx
    7e2d:	48 8d 05 c8 30 01 00 	lea    0x130c8(%rip),%rax        # 1aefc <_ZL4font+0x35bc>
    7e34:	48 89 c6             	mov    %rax,%rsi
    7e37:	48 89 cf             	mov    %rcx,%rdi
    7e3a:	e8 fb a7 ff ff       	call   263a <_ZN12BasicConsole7PrintlnEPKcj>
    7e3f:	0f 0b                	ud2
    7e41:	90                   	nop

0000000000007e42 <_ZN5ArrayI13PCIeDeviceKeyE5clearEv>:
    7e42:	f3 0f 1e fa          	endbr64
    7e46:	55                   	push   %rbp
    7e47:	48 89 e5             	mov    %rsp,%rbp
    7e4a:	48 89 7d f8          	mov    %rdi,-0x8(%rbp)
    7e4e:	48 8b 45 f8          	mov    -0x8(%rbp),%rax
    7e52:	48 c7 40 08 00 00 00 	movq   $0x0,0x8(%rax)
    7e59:	00 
    7e5a:	90                   	nop
    7e5b:	5d                   	pop    %rbp
    7e5c:	c3                   	ret
    7e5d:	90                   	nop

0000000000007e5e <_ZN5ArrayI13PCIeDeviceKeyEixEm>:
    7e5e:	f3 0f 1e fa          	endbr64
    7e62:	55                   	push   %rbp
    7e63:	48 89 e5             	mov    %rsp,%rbp
    7e66:	48 89 7d f8          	mov    %rdi,-0x8(%rbp)
    7e6a:	48 89 75 f0          	mov    %rsi,-0x10(%rbp)
    7e6e:	48 8b 45 f8          	mov    -0x8(%rbp),%rax
    7e72:	48 8b 08             	mov    (%rax),%rcx
    7e75:	48 8b 55 f0          	mov    -0x10(%rbp),%rdx
    7e79:	48 89 d0             	mov    %rdx,%rax
    7e7c:	48 01 c0             	add    %rax,%rax
    7e7f:	48 01 d0             	add    %rdx,%rax
    7e82:	48 01 c0             	add    %rax,%rax
    7e85:	48 01 c8             	add    %rcx,%rax
    7e88:	5d                   	pop    %rbp
    7e89:	c3                   	ret

0000000000007e8a <_ZN5ArrayI13PCIeDeviceKeyE9push_backERKS0_>:
    7e8a:	f3 0f 1e fa          	endbr64
    7e8e:	55                   	push   %rbp
    7e8f:	48 89 e5             	mov    %rsp,%rbp
    7e92:	48 83 ec 10          	sub    $0x10,%rsp
    7e96:	48 89 7d f8          	mov    %rdi,-0x8(%rbp)
    7e9a:	48 89 75 f0          	mov    %rsi,-0x10(%rbp)
    7e9e:	48 8b 45 f8          	mov    -0x8(%rbp),%rax
    7ea2:	48 8b 50 08          	mov    0x8(%rax),%rdx
    7ea6:	48 8b 45 f8          	mov    -0x8(%rbp),%rax
    7eaa:	48 8b 40 10          	mov    0x10(%rax),%rax
    7eae:	48 39 c2             	cmp    %rax,%rdx
    7eb1:	72 0c                	jb     7ebf <_ZN5ArrayI13PCIeDeviceKeyE9push_backERKS0_+0x35>
    7eb3:	48 8b 45 f8          	mov    -0x8(%rbp),%rax
    7eb7:	48 89 c7             	mov    %rax,%rdi
    7eba:	e8 5b 00 00 00       	call   7f1a <_ZN5ArrayI13PCIeDeviceKeyE4growEv>
    7ebf:	48 8b 45 f8          	mov    -0x8(%rbp),%rax
    7ec3:	48 8b 00             	mov    (%rax),%rax
    7ec6:	48 85 c0             	test   %rax,%rax
    7ec9:	74 3d                	je     7f08 <_ZN5ArrayI13PCIeDeviceKeyE9push_backERKS0_+0x7e>
    7ecb:	48 8b 45 f8          	mov    -0x8(%rbp),%rax
    7ecf:	48 8b 30             	mov    (%rax),%rsi
    7ed2:	48 8b 45 f8          	mov    -0x8(%rbp),%rax
    7ed6:	48 8b 50 08          	mov    0x8(%rax),%rdx
    7eda:	48 8d 4a 01          	lea    0x1(%rdx),%rcx
    7ede:	48 8b 45 f8          	mov    -0x8(%rbp),%rax
    7ee2:	48 89 48 08          	mov    %rcx,0x8(%rax)
    7ee6:	48 89 d0             	mov    %rdx,%rax
    7ee9:	48 01 c0             	add    %rax,%rax
    7eec:	48 01 d0             	add    %rdx,%rax
    7eef:	48 01 c0             	add    %rax,%rax
    7ef2:	48 8d 14 06          	lea    (%rsi,%rax,1),%rdx
    7ef6:	48 8b 45 f0          	mov    -0x10(%rbp),%rax
    7efa:	8b 08                	mov    (%rax),%ecx
    7efc:	89 0a                	mov    %ecx,(%rdx)
    7efe:	0f b7 40 04          	movzwl 0x4(%rax),%eax
    7f02:	66 89 42 04          	mov    %ax,0x4(%rdx)
    7f06:	eb 0f                	jmp    7f17 <_ZN5ArrayI13PCIeDeviceKeyE9push_backERKS0_+0x8d>
    7f08:	48 8d 05 0a 30 01 00 	lea    0x1300a(%rip),%rax        # 1af19 <_ZL4font+0x35d9>
    7f0f:	48 89 c7             	mov    %rax,%rdi
    7f12:	e8 d6 a4 ff ff       	call   23ed <_Z5PrintPKc>
    7f17:	90                   	nop
    7f18:	c9                   	leave
    7f19:	c3                   	ret

0000000000007f1a <_ZN5ArrayI13PCIeDeviceKeyE4growEv>:
    7f1a:	f3 0f 1e fa          	endbr64
    7f1e:	55                   	push   %rbp
    7f1f:	48 89 e5             	mov    %rsp,%rbp
    7f22:	48 83 ec 30          	sub    $0x30,%rsp
    7f26:	48 89 7d d8          	mov    %rdi,-0x28(%rbp)
    7f2a:	48 8b 45 d8          	mov    -0x28(%rbp),%rax
    7f2e:	48 8b 40 10          	mov    0x10(%rax),%rax
    7f32:	48 85 c0             	test   %rax,%rax
    7f35:	74 0d                	je     7f44 <_ZN5ArrayI13PCIeDeviceKeyE4growEv+0x2a>
    7f37:	48 8b 45 d8          	mov    -0x28(%rbp),%rax
    7f3b:	48 8b 40 10          	mov    0x10(%rax),%rax
    7f3f:	48 01 c0             	add    %rax,%rax
    7f42:	eb 05                	jmp    7f49 <_ZN5ArrayI13PCIeDeviceKeyE4growEv+0x2f>
    7f44:	b8 10 00 00 00       	mov    $0x10,%eax
    7f49:	48 89 45 f0          	mov    %rax,-0x10(%rbp)
    7f4d:	48 8b 55 f0          	mov    -0x10(%rbp),%rdx
    7f51:	48 89 d0             	mov    %rdx,%rax
    7f54:	48 01 c0             	add    %rax,%rax
    7f57:	48 01 d0             	add    %rdx,%rax
    7f5a:	48 01 c0             	add    %rax,%rax
    7f5d:	48 89 c7             	mov    %rax,%rdi
    7f60:	e8 bf 07 00 00       	call   8724 <_Z6mallocm>
    7f65:	48 89 45 e8          	mov    %rax,-0x18(%rbp)
    7f69:	48 83 7d e8 00       	cmpq   $0x0,-0x18(%rbp)
    7f6e:	75 14                	jne    7f84 <_ZN5ArrayI13PCIeDeviceKeyE4growEv+0x6a>
    7f70:	48 8d 05 ae 2f 01 00 	lea    0x12fae(%rip),%rax        # 1af25 <_ZL4font+0x35e5>
    7f77:	48 89 c7             	mov    %rax,%rdi
    7f7a:	e8 6e a4 ff ff       	call   23ed <_Z5PrintPKc>
    7f7f:	e9 90 00 00 00       	jmp    8014 <_ZN5ArrayI13PCIeDeviceKeyE4growEv+0xfa>
    7f84:	48 c7 45 f8 00 00 00 	movq   $0x0,-0x8(%rbp)
    7f8b:	00 
    7f8c:	eb 46                	jmp    7fd4 <_ZN5ArrayI13PCIeDeviceKeyE4growEv+0xba>
    7f8e:	48 8b 45 d8          	mov    -0x28(%rbp),%rax
    7f92:	48 8b 08             	mov    (%rax),%rcx
    7f95:	48 8b 55 f8          	mov    -0x8(%rbp),%rdx
    7f99:	48 89 d0             	mov    %rdx,%rax
    7f9c:	48 01 c0             	add    %rax,%rax
    7f9f:	48 01 d0             	add    %rdx,%rax
    7fa2:	48 01 c0             	add    %rax,%rax
    7fa5:	48 8d 14 01          	lea    (%rcx,%rax,1),%rdx
    7fa9:	48 8b 4d f8          	mov    -0x8(%rbp),%rcx
    7fad:	48 89 c8             	mov    %rcx,%rax
    7fb0:	48 01 c0             	add    %rax,%rax
    7fb3:	48 01 c8             	add    %rcx,%rax
    7fb6:	48 01 c0             	add    %rax,%rax
    7fb9:	48 89 c1             	mov    %rax,%rcx
    7fbc:	48 8b 45 e8          	mov    -0x18(%rbp),%rax
    7fc0:	48 01 c8             	add    %rcx,%rax
    7fc3:	8b 0a                	mov    (%rdx),%ecx
    7fc5:	89 08                	mov    %ecx,(%rax)
    7fc7:	0f b7 52 04          	movzwl 0x4(%rdx),%edx
    7fcb:	66 89 50 04          	mov    %dx,0x4(%rax)
    7fcf:	48 83 45 f8 01       	addq   $0x1,-0x8(%rbp)
    7fd4:	48 8b 45 d8          	mov    -0x28(%rbp),%rax
    7fd8:	48 8b 40 08          	mov    0x8(%rax),%rax
    7fdc:	48 39 45 f8          	cmp    %rax,-0x8(%rbp)
    7fe0:	72 ac                	jb     7f8e <_ZN5ArrayI13PCIeDeviceKeyE4growEv+0x74>
    7fe2:	48 8b 45 d8          	mov    -0x28(%rbp),%rax
    7fe6:	48 8b 00             	mov    (%rax),%rax
    7fe9:	48 85 c0             	test   %rax,%rax
    7fec:	74 0f                	je     7ffd <_ZN5ArrayI13PCIeDeviceKeyE4growEv+0xe3>
    7fee:	48 8b 45 d8          	mov    -0x28(%rbp),%rax
    7ff2:	48 8b 00             	mov    (%rax),%rax
    7ff5:	48 89 c7             	mov    %rax,%rdi
    7ff8:	e8 56 07 00 00       	call   8753 <_Z4freePv>
    7ffd:	48 8b 45 d8          	mov    -0x28(%rbp),%rax
    8001:	48 8b 55 e8          	mov    -0x18(%rbp),%rdx
    8005:	48 89 10             	mov    %rdx,(%rax)
    8008:	48 8b 45 d8          	mov    -0x28(%rbp),%rax
    800c:	48 8b 55 f0          	mov    -0x10(%rbp),%rdx
    8010:	48 89 50 10          	mov    %rdx,0x10(%rax)
    8014:	c9                   	leave
    8015:	c3                   	ret

0000000000008016 <_Z7io_waitv>:
    8016:	f3 0f 1e fa          	endbr64
    801a:	55                   	push   %rbp
    801b:	48 89 e5             	mov    %rsp,%rbp
    801e:	be 00 00 00 00       	mov    $0x0,%esi
    8023:	bf 80 00 00 00       	mov    $0x80,%edi
    8028:	e8 28 a7 ff ff       	call   2755 <_Z4outbth>
    802d:	90                   	nop
    802e:	5d                   	pop    %rbp
    802f:	c3                   	ret

0000000000008030 <_ZN3PIC8RemapPICEii>:
    8030:	f3 0f 1e fa          	endbr64
    8034:	55                   	push   %rbp
    8035:	48 89 e5             	mov    %rsp,%rbp
    8038:	48 83 ec 10          	sub    $0x10,%rsp
    803c:	48 89 7d f8          	mov    %rdi,-0x8(%rbp)
    8040:	89 75 f4             	mov    %esi,-0xc(%rbp)
    8043:	89 55 f0             	mov    %edx,-0x10(%rbp)
    8046:	be 11 00 00 00       	mov    $0x11,%esi
    804b:	bf 20 00 00 00       	mov    $0x20,%edi
    8050:	e8 00 a7 ff ff       	call   2755 <_Z4outbth>
    8055:	e8 bc ff ff ff       	call   8016 <_Z7io_waitv>
    805a:	be 11 00 00 00       	mov    $0x11,%esi
    805f:	bf a0 00 00 00       	mov    $0xa0,%edi
    8064:	e8 ec a6 ff ff       	call   2755 <_Z4outbth>
    8069:	e8 a8 ff ff ff       	call   8016 <_Z7io_waitv>
    806e:	8b 45 f4             	mov    -0xc(%rbp),%eax
    8071:	0f b6 c0             	movzbl %al,%eax
    8074:	89 c6                	mov    %eax,%esi
    8076:	bf 21 00 00 00       	mov    $0x21,%edi
    807b:	e8 d5 a6 ff ff       	call   2755 <_Z4outbth>
    8080:	e8 91 ff ff ff       	call   8016 <_Z7io_waitv>
    8085:	8b 45 f0             	mov    -0x10(%rbp),%eax
    8088:	0f b6 c0             	movzbl %al,%eax
    808b:	89 c6                	mov    %eax,%esi
    808d:	bf a1 00 00 00       	mov    $0xa1,%edi
    8092:	e8 be a6 ff ff       	call   2755 <_Z4outbth>
    8097:	e8 7a ff ff ff       	call   8016 <_Z7io_waitv>
    809c:	be 04 00 00 00       	mov    $0x4,%esi
    80a1:	bf 21 00 00 00       	mov    $0x21,%edi
    80a6:	e8 aa a6 ff ff       	call   2755 <_Z4outbth>
    80ab:	e8 66 ff ff ff       	call   8016 <_Z7io_waitv>
    80b0:	be 02 00 00 00       	mov    $0x2,%esi
    80b5:	bf a1 00 00 00       	mov    $0xa1,%edi
    80ba:	e8 96 a6 ff ff       	call   2755 <_Z4outbth>
    80bf:	e8 52 ff ff ff       	call   8016 <_Z7io_waitv>
    80c4:	be 01 00 00 00       	mov    $0x1,%esi
    80c9:	bf 21 00 00 00       	mov    $0x21,%edi
    80ce:	e8 82 a6 ff ff       	call   2755 <_Z4outbth>
    80d3:	e8 3e ff ff ff       	call   8016 <_Z7io_waitv>
    80d8:	be 01 00 00 00       	mov    $0x1,%esi
    80dd:	bf a1 00 00 00       	mov    $0xa1,%edi
    80e2:	e8 6e a6 ff ff       	call   2755 <_Z4outbth>
    80e7:	e8 2a ff ff ff       	call   8016 <_Z7io_waitv>
    80ec:	be 00 00 00 00       	mov    $0x0,%esi
    80f1:	bf 21 00 00 00       	mov    $0x21,%edi
    80f6:	e8 5a a6 ff ff       	call   2755 <_Z4outbth>
    80fb:	be 00 00 00 00       	mov    $0x0,%esi
    8100:	bf a1 00 00 00       	mov    $0xa1,%edi
    8105:	e8 4b a6 ff ff       	call   2755 <_Z4outbth>
    810a:	90                   	nop
    810b:	c9                   	leave
    810c:	c3                   	ret
    810d:	90                   	nop

000000000000810e <_ZN3PIC7SendEOIEh>:
    810e:	f3 0f 1e fa          	endbr64
    8112:	55                   	push   %rbp
    8113:	48 89 e5             	mov    %rsp,%rbp
    8116:	48 83 ec 10          	sub    $0x10,%rsp
    811a:	48 89 7d f8          	mov    %rdi,-0x8(%rbp)
    811e:	89 f0                	mov    %esi,%eax
    8120:	88 45 f4             	mov    %al,-0xc(%rbp)
    8123:	80 7d f4 07          	cmpb   $0x7,-0xc(%rbp)
    8127:	76 0f                	jbe    8138 <_ZN3PIC7SendEOIEh+0x2a>
    8129:	be 20 00 00 00       	mov    $0x20,%esi
    812e:	bf a0 00 00 00       	mov    $0xa0,%edi
    8133:	e8 1d a6 ff ff       	call   2755 <_Z4outbth>
    8138:	be 20 00 00 00       	mov    $0x20,%esi
    813d:	bf 20 00 00 00       	mov    $0x20,%edi
    8142:	e8 0e a6 ff ff       	call   2755 <_Z4outbth>
    8147:	90                   	nop
    8148:	c9                   	leave
    8149:	c3                   	ret

000000000000814a <_ZN3PIC7DisableEv>:
    814a:	f3 0f 1e fa          	endbr64
    814e:	55                   	push   %rbp
    814f:	48 89 e5             	mov    %rsp,%rbp
    8152:	48 83 ec 10          	sub    $0x10,%rsp
    8156:	48 89 7d f8          	mov    %rdi,-0x8(%rbp)
    815a:	be ff 00 00 00       	mov    $0xff,%esi
    815f:	bf 21 00 00 00       	mov    $0x21,%edi
    8164:	e8 ec a5 ff ff       	call   2755 <_Z4outbth>
    8169:	be ff 00 00 00       	mov    $0xff,%esi
    816e:	bf a1 00 00 00       	mov    $0xa1,%edi
    8173:	e8 dd a5 ff ff       	call   2755 <_Z4outbth>
    8178:	90                   	nop
    8179:	c9                   	leave
    817a:	c3                   	ret
    817b:	90                   	nop

000000000000817c <_ZN3PIC10SetMaskIRQEh>:
    817c:	f3 0f 1e fa          	endbr64
    8180:	55                   	push   %rbp
    8181:	48 89 e5             	mov    %rsp,%rbp
    8184:	48 83 ec 20          	sub    $0x20,%rsp
    8188:	48 89 7d e8          	mov    %rdi,-0x18(%rbp)
    818c:	89 f0                	mov    %esi,%eax
    818e:	88 45 e4             	mov    %al,-0x1c(%rbp)
    8191:	80 7d e4 07          	cmpb   $0x7,-0x1c(%rbp)
    8195:	77 08                	ja     819f <_ZN3PIC10SetMaskIRQEh+0x23>
    8197:	66 c7 45 fe 21 00    	movw   $0x21,-0x2(%rbp)
    819d:	eb 0a                	jmp    81a9 <_ZN3PIC10SetMaskIRQEh+0x2d>
    819f:	66 c7 45 fe a1 00    	movw   $0xa1,-0x2(%rbp)
    81a5:	80 6d e4 08          	subb   $0x8,-0x1c(%rbp)
    81a9:	0f b7 45 fe          	movzwl -0x2(%rbp),%eax
    81ad:	89 c7                	mov    %eax,%edi
    81af:	e8 c0 a5 ff ff       	call   2774 <_Z3inbt>
    81b4:	89 c6                	mov    %eax,%esi
    81b6:	0f b6 45 e4          	movzbl -0x1c(%rbp),%eax
    81ba:	ba 01 00 00 00       	mov    $0x1,%edx
    81bf:	89 c1                	mov    %eax,%ecx
    81c1:	d3 e2                	shl    %cl,%edx
    81c3:	89 d0                	mov    %edx,%eax
    81c5:	09 f0                	or     %esi,%eax
    81c7:	88 45 fd             	mov    %al,-0x3(%rbp)
    81ca:	0f b6 55 fd          	movzbl -0x3(%rbp),%edx
    81ce:	0f b7 45 fe          	movzwl -0x2(%rbp),%eax
    81d2:	89 d6                	mov    %edx,%esi
    81d4:	89 c7                	mov    %eax,%edi
    81d6:	e8 7a a5 ff ff       	call   2755 <_Z4outbth>
    81db:	90                   	nop
    81dc:	c9                   	leave
    81dd:	c3                   	ret

00000000000081de <_ZN3PIC12ClearMaskIRQEh>:
    81de:	f3 0f 1e fa          	endbr64
    81e2:	55                   	push   %rbp
    81e3:	48 89 e5             	mov    %rsp,%rbp
    81e6:	48 83 ec 20          	sub    $0x20,%rsp
    81ea:	48 89 7d e8          	mov    %rdi,-0x18(%rbp)
    81ee:	89 f0                	mov    %esi,%eax
    81f0:	88 45 e4             	mov    %al,-0x1c(%rbp)
    81f3:	80 7d e4 07          	cmpb   $0x7,-0x1c(%rbp)
    81f7:	77 08                	ja     8201 <_ZN3PIC12ClearMaskIRQEh+0x23>
    81f9:	66 c7 45 fe 21 00    	movw   $0x21,-0x2(%rbp)
    81ff:	eb 0a                	jmp    820b <_ZN3PIC12ClearMaskIRQEh+0x2d>
    8201:	66 c7 45 fe a1 00    	movw   $0xa1,-0x2(%rbp)
    8207:	80 6d e4 08          	subb   $0x8,-0x1c(%rbp)
    820b:	0f b7 45 fe          	movzwl -0x2(%rbp),%eax
    820f:	89 c7                	mov    %eax,%edi
    8211:	e8 5e a5 ff ff       	call   2774 <_Z3inbt>
    8216:	89 c6                	mov    %eax,%esi
    8218:	0f b6 45 e4          	movzbl -0x1c(%rbp),%eax
    821c:	ba 01 00 00 00       	mov    $0x1,%edx
    8221:	89 c1                	mov    %eax,%ecx
    8223:	d3 e2                	shl    %cl,%edx
    8225:	89 d0                	mov    %edx,%eax
    8227:	f7 d0                	not    %eax
    8229:	21 f0                	and    %esi,%eax
    822b:	88 45 fd             	mov    %al,-0x3(%rbp)
    822e:	0f b6 55 fd          	movzbl -0x3(%rbp),%edx
    8232:	0f b7 45 fe          	movzwl -0x2(%rbp),%eax
    8236:	89 d6                	mov    %edx,%esi
    8238:	89 c7                	mov    %eax,%edi
    823a:	e8 16 a5 ff ff       	call   2755 <_Z4outbth>
    823f:	90                   	nop
    8240:	c9                   	leave
    8241:	c3                   	ret

0000000000008242 <_ZN3PIC10_GetIRQRegEi>:
    8242:	f3 0f 1e fa          	endbr64
    8246:	55                   	push   %rbp
    8247:	48 89 e5             	mov    %rsp,%rbp
    824a:	53                   	push   %rbx
    824b:	48 83 ec 18          	sub    $0x18,%rsp
    824f:	48 89 7d e8          	mov    %rdi,-0x18(%rbp)
    8253:	89 75 e4             	mov    %esi,-0x1c(%rbp)
    8256:	8b 45 e4             	mov    -0x1c(%rbp),%eax
    8259:	0f b6 c0             	movzbl %al,%eax
    825c:	89 c6                	mov    %eax,%esi
    825e:	bf 20 00 00 00       	mov    $0x20,%edi
    8263:	e8 ed a4 ff ff       	call   2755 <_Z4outbth>
    8268:	8b 45 e4             	mov    -0x1c(%rbp),%eax
    826b:	0f b6 c0             	movzbl %al,%eax
    826e:	89 c6                	mov    %eax,%esi
    8270:	bf a0 00 00 00       	mov    $0xa0,%edi
    8275:	e8 db a4 ff ff       	call   2755 <_Z4outbth>
    827a:	bf a0 00 00 00       	mov    $0xa0,%edi
    827f:	e8 f0 a4 ff ff       	call   2774 <_Z3inbt>
    8284:	0f b6 c0             	movzbl %al,%eax
    8287:	c1 e0 08             	shl    $0x8,%eax
    828a:	89 c3                	mov    %eax,%ebx
    828c:	bf 20 00 00 00       	mov    $0x20,%edi
    8291:	e8 de a4 ff ff       	call   2774 <_Z3inbt>
    8296:	0f b6 c0             	movzbl %al,%eax
    8299:	09 d8                	or     %ebx,%eax
    829b:	48 8b 5d f8          	mov    -0x8(%rbp),%rbx
    829f:	c9                   	leave
    82a0:	c3                   	ret
    82a1:	90                   	nop

00000000000082a2 <_ZN3PIC6GetIRREv>:
    82a2:	f3 0f 1e fa          	endbr64
    82a6:	55                   	push   %rbp
    82a7:	48 89 e5             	mov    %rsp,%rbp
    82aa:	48 83 ec 10          	sub    $0x10,%rsp
    82ae:	48 89 7d f8          	mov    %rdi,-0x8(%rbp)
    82b2:	48 8b 45 f8          	mov    -0x8(%rbp),%rax
    82b6:	be 0a 00 00 00       	mov    $0xa,%esi
    82bb:	48 89 c7             	mov    %rax,%rdi
    82be:	e8 7f ff ff ff       	call   8242 <_ZN3PIC10_GetIRQRegEi>
    82c3:	c9                   	leave
    82c4:	c3                   	ret
    82c5:	90                   	nop

00000000000082c6 <_ZN3PIC6GetISREv>:
    82c6:	f3 0f 1e fa          	endbr64
    82ca:	55                   	push   %rbp
    82cb:	48 89 e5             	mov    %rsp,%rbp
    82ce:	48 83 ec 10          	sub    $0x10,%rsp
    82d2:	48 89 7d f8          	mov    %rdi,-0x8(%rbp)
    82d6:	48 8b 45 f8          	mov    -0x8(%rbp),%rax
    82da:	be 0b 00 00 00       	mov    $0xb,%esi
    82df:	48 89 c7             	mov    %rax,%rdi
    82e2:	e8 5b ff ff ff       	call   8242 <_ZN3PIC10_GetIRQRegEi>
    82e7:	c9                   	leave
    82e8:	c3                   	ret
    82e9:	90                   	nop

00000000000082ea <_ZN13HeapAllocator10InitializeEv>:
    82ea:	f3 0f 1e fa          	endbr64
    82ee:	55                   	push   %rbp
    82ef:	48 89 e5             	mov    %rsp,%rbp
    82f2:	48 83 ec 20          	sub    $0x20,%rsp
    82f6:	48 89 7d e8          	mov    %rdi,-0x18(%rbp)
    82fa:	48 8b 05 ff e5 01 00 	mov    0x1e5ff(%rip),%rax        # 26900 <ks>
    8301:	48 83 c0 28          	add    $0x28,%rax
    8305:	48 89 c7             	mov    %rax,%rdi
    8308:	e8 93 0f 00 00       	call   92a0 <_ZN18PageFrameAllocator11RequestPageEv>
    830d:	48 89 45 f8          	mov    %rax,-0x8(%rbp)
    8311:	48 83 7d f8 00       	cmpq   $0x0,-0x8(%rbp)
    8316:	75 26                	jne    833e <_ZN13HeapAllocator10InitializeEv+0x54>
    8318:	48 8b 05 e1 e5 01 00 	mov    0x1e5e1(%rip),%rax        # 26900 <ks>
    831f:	48 89 c1             	mov    %rax,%rcx
    8322:	ba ff ff ff ff       	mov    $0xffffffff,%edx
    8327:	48 8d 05 12 3c 01 00 	lea    0x13c12(%rip),%rax        # 1bf40 <_ZL4font+0x1000>
    832e:	48 89 c6             	mov    %rax,%rsi
    8331:	48 89 cf             	mov    %rcx,%rdi
    8334:	e8 01 a3 ff ff       	call   263a <_ZN12BasicConsole7PrintlnEPKcj>
    8339:	e9 af 00 00 00       	jmp    83ed <_ZN13HeapAllocator10InitializeEv+0x103>
    833e:	48 8b 05 bb e5 01 00 	mov    0x1e5bb(%rip),%rax        # 26900 <ks>
    8345:	48 8d b8 80 00 00 00 	lea    0x80(%rax),%rdi
    834c:	48 8b 45 f8          	mov    -0x8(%rbp),%rax
    8350:	b9 01 00 00 00       	mov    $0x1,%ecx
    8355:	48 89 c2             	mov    %rax,%rdx
    8358:	48 b8 00 00 00 00 00 	movabs $0xffff880000000000,%rax
    835f:	88 ff ff 
    8362:	48 89 c6             	mov    %rax,%rsi
    8365:	e8 fe 0f 00 00       	call   9368 <_ZN16PageTableManager9MapMemoryEPvS0_b>
    836a:	48 8b 45 e8          	mov    -0x18(%rbp),%rax
    836e:	48 be 00 00 00 00 00 	movabs $0xffff880000000000,%rsi
    8375:	88 ff ff 
    8378:	48 89 30             	mov    %rsi,(%rax)
    837b:	48 8b 45 e8          	mov    -0x18(%rbp),%rax
    837f:	48 8b 00             	mov    (%rax),%rax
    8382:	48 8d 90 00 10 00 00 	lea    0x1000(%rax),%rdx
    8389:	48 8b 45 e8          	mov    -0x18(%rbp),%rax
    838d:	48 89 50 08          	mov    %rdx,0x8(%rax)
    8391:	48 8b 45 e8          	mov    -0x18(%rbp),%rax
    8395:	48 8b 10             	mov    (%rax),%rdx
    8398:	48 8b 45 e8          	mov    -0x18(%rbp),%rax
    839c:	48 89 50 10          	mov    %rdx,0x10(%rax)
    83a0:	48 8b 45 e8          	mov    -0x18(%rbp),%rax
    83a4:	48 8b 00             	mov    (%rax),%rax
    83a7:	48 89 c2             	mov    %rax,%rdx
    83aa:	48 8b 45 e8          	mov    -0x18(%rbp),%rax
    83ae:	48 89 50 18          	mov    %rdx,0x18(%rax)
    83b2:	48 8b 45 e8          	mov    -0x18(%rbp),%rax
    83b6:	48 8b 40 18          	mov    0x18(%rax),%rax
    83ba:	48 c7 00 e0 0f 00 00 	movq   $0xfe0,(%rax)
    83c1:	48 8b 45 e8          	mov    -0x18(%rbp),%rax
    83c5:	48 8b 40 18          	mov    0x18(%rax),%rax
    83c9:	c6 40 08 01          	movb   $0x1,0x8(%rax)
    83cd:	48 8b 45 e8          	mov    -0x18(%rbp),%rax
    83d1:	48 8b 40 18          	mov    0x18(%rax),%rax
    83d5:	48 c7 40 10 00 00 00 	movq   $0x0,0x10(%rax)
    83dc:	00 
    83dd:	48 8b 45 e8          	mov    -0x18(%rbp),%rax
    83e1:	48 8b 40 18          	mov    0x18(%rax),%rax
    83e5:	48 c7 40 18 00 00 00 	movq   $0x0,0x18(%rax)
    83ec:	00 
    83ed:	c9                   	leave
    83ee:	c3                   	ret
    83ef:	90                   	nop

00000000000083f0 <_ZN13HeapAllocator6mallocEm>:
    83f0:	f3 0f 1e fa          	endbr64
    83f4:	55                   	push   %rbp
    83f5:	48 89 e5             	mov    %rsp,%rbp
    83f8:	48 83 ec 40          	sub    $0x40,%rsp
    83fc:	48 89 7d c8          	mov    %rdi,-0x38(%rbp)
    8400:	48 89 75 c0          	mov    %rsi,-0x40(%rbp)
    8404:	48 83 7d c0 00       	cmpq   $0x0,-0x40(%rbp)
    8409:	75 0a                	jne    8415 <_ZN13HeapAllocator6mallocEm+0x25>
    840b:	b8 00 00 00 00       	mov    $0x0,%eax
    8410:	e9 f4 01 00 00       	jmp    8609 <_ZN13HeapAllocator6mallocEm+0x219>
    8415:	48 8b 45 c0          	mov    -0x40(%rbp),%rax
    8419:	48 83 c0 07          	add    $0x7,%rax
    841d:	48 83 e0 f8          	and    $0xfffffffffffffff8,%rax
    8421:	48 89 45 c0          	mov    %rax,-0x40(%rbp)
    8425:	48 8b 45 c8          	mov    -0x38(%rbp),%rax
    8429:	48 8b 40 18          	mov    0x18(%rax),%rax
    842d:	48 89 45 f8          	mov    %rax,-0x8(%rbp)
    8431:	e9 db 00 00 00       	jmp    8511 <_ZN13HeapAllocator6mallocEm+0x121>
    8436:	48 8b 45 f8          	mov    -0x8(%rbp),%rax
    843a:	0f b6 40 08          	movzbl 0x8(%rax),%eax
    843e:	84 c0                	test   %al,%al
    8440:	0f 84 bf 00 00 00    	je     8505 <_ZN13HeapAllocator6mallocEm+0x115>
    8446:	48 8b 45 f8          	mov    -0x8(%rbp),%rax
    844a:	48 8b 00             	mov    (%rax),%rax
    844d:	48 3b 45 c0          	cmp    -0x40(%rbp),%rax
    8451:	0f 82 ae 00 00 00    	jb     8505 <_ZN13HeapAllocator6mallocEm+0x115>
    8457:	48 8b 45 f8          	mov    -0x8(%rbp),%rax
    845b:	48 8b 10             	mov    (%rax),%rdx
    845e:	48 8b 45 c0          	mov    -0x40(%rbp),%rax
    8462:	48 83 c0 28          	add    $0x28,%rax
    8466:	48 39 c2             	cmp    %rax,%rdx
    8469:	0f 82 81 00 00 00    	jb     84f0 <_ZN13HeapAllocator6mallocEm+0x100>
    846f:	48 8b 45 c0          	mov    -0x40(%rbp),%rax
    8473:	48 8d 50 20          	lea    0x20(%rax),%rdx
    8477:	48 8b 45 f8          	mov    -0x8(%rbp),%rax
    847b:	48 01 d0             	add    %rdx,%rax
    847e:	48 89 45 d8          	mov    %rax,-0x28(%rbp)
    8482:	48 8b 45 f8          	mov    -0x8(%rbp),%rax
    8486:	48 8b 00             	mov    (%rax),%rax
    8489:	48 2b 45 c0          	sub    -0x40(%rbp),%rax
    848d:	48 8d 50 e0          	lea    -0x20(%rax),%rdx
    8491:	48 8b 45 d8          	mov    -0x28(%rbp),%rax
    8495:	48 89 10             	mov    %rdx,(%rax)
    8498:	48 8b 45 d8          	mov    -0x28(%rbp),%rax
    849c:	c6 40 08 01          	movb   $0x1,0x8(%rax)
    84a0:	48 8b 45 f8          	mov    -0x8(%rbp),%rax
    84a4:	48 8b 50 10          	mov    0x10(%rax),%rdx
    84a8:	48 8b 45 d8          	mov    -0x28(%rbp),%rax
    84ac:	48 89 50 10          	mov    %rdx,0x10(%rax)
    84b0:	48 8b 45 d8          	mov    -0x28(%rbp),%rax
    84b4:	48 8b 55 f8          	mov    -0x8(%rbp),%rdx
    84b8:	48 89 50 18          	mov    %rdx,0x18(%rax)
    84bc:	48 8b 45 d8          	mov    -0x28(%rbp),%rax
    84c0:	48 8b 40 10          	mov    0x10(%rax),%rax
    84c4:	48 85 c0             	test   %rax,%rax
    84c7:	74 10                	je     84d9 <_ZN13HeapAllocator6mallocEm+0xe9>
    84c9:	48 8b 45 d8          	mov    -0x28(%rbp),%rax
    84cd:	48 8b 40 10          	mov    0x10(%rax),%rax
    84d1:	48 8b 55 d8          	mov    -0x28(%rbp),%rdx
    84d5:	48 89 50 18          	mov    %rdx,0x18(%rax)
    84d9:	48 8b 45 f8          	mov    -0x8(%rbp),%rax
    84dd:	48 8b 55 d8          	mov    -0x28(%rbp),%rdx
    84e1:	48 89 50 10          	mov    %rdx,0x10(%rax)
    84e5:	48 8b 45 f8          	mov    -0x8(%rbp),%rax
    84e9:	48 8b 55 c0          	mov    -0x40(%rbp),%rdx
    84ed:	48 89 10             	mov    %rdx,(%rax)
    84f0:	48 8b 45 f8          	mov    -0x8(%rbp),%rax
    84f4:	c6 40 08 00          	movb   $0x0,0x8(%rax)
    84f8:	48 8b 45 f8          	mov    -0x8(%rbp),%rax
    84fc:	48 83 c0 20          	add    $0x20,%rax
    8500:	e9 04 01 00 00       	jmp    8609 <_ZN13HeapAllocator6mallocEm+0x219>
    8505:	48 8b 45 f8          	mov    -0x8(%rbp),%rax
    8509:	48 8b 40 10          	mov    0x10(%rax),%rax
    850d:	48 89 45 f8          	mov    %rax,-0x8(%rbp)
    8511:	48 83 7d f8 00       	cmpq   $0x0,-0x8(%rbp)
    8516:	0f 85 1a ff ff ff    	jne    8436 <_ZN13HeapAllocator6mallocEm+0x46>
    851c:	48 8b 05 dd e3 01 00 	mov    0x1e3dd(%rip),%rax        # 26900 <ks>
    8523:	48 83 c0 28          	add    $0x28,%rax
    8527:	48 89 c7             	mov    %rax,%rdi
    852a:	e8 71 0d 00 00       	call   92a0 <_ZN18PageFrameAllocator11RequestPageEv>
    852f:	48 89 45 e8          	mov    %rax,-0x18(%rbp)
    8533:	48 83 7d e8 00       	cmpq   $0x0,-0x18(%rbp)
    8538:	75 0a                	jne    8544 <_ZN13HeapAllocator6mallocEm+0x154>
    853a:	b8 00 00 00 00       	mov    $0x0,%eax
    853f:	e9 c5 00 00 00       	jmp    8609 <_ZN13HeapAllocator6mallocEm+0x219>
    8544:	48 8b 05 b5 e3 01 00 	mov    0x1e3b5(%rip),%rax        # 26900 <ks>
    854b:	48 8d b8 80 00 00 00 	lea    0x80(%rax),%rdi
    8552:	48 8b 45 c8          	mov    -0x38(%rbp),%rax
    8556:	48 8b 40 08          	mov    0x8(%rax),%rax
    855a:	48 89 c6             	mov    %rax,%rsi
    855d:	48 8b 45 e8          	mov    -0x18(%rbp),%rax
    8561:	b9 01 00 00 00       	mov    $0x1,%ecx
    8566:	48 89 c2             	mov    %rax,%rdx
    8569:	e8 fa 0d 00 00       	call   9368 <_ZN16PageTableManager9MapMemoryEPvS0_b>
    856e:	48 8b 45 c8          	mov    -0x38(%rbp),%rax
    8572:	48 8b 40 08          	mov    0x8(%rax),%rax
    8576:	48 8d 90 00 10 00 00 	lea    0x1000(%rax),%rdx
    857d:	48 8b 45 c8          	mov    -0x38(%rbp),%rax
    8581:	48 89 50 08          	mov    %rdx,0x8(%rax)
    8585:	48 8b 45 c8          	mov    -0x38(%rbp),%rax
    8589:	48 8b 40 08          	mov    0x8(%rax),%rax
    858d:	48 2d 00 10 00 00    	sub    $0x1000,%rax
    8593:	48 89 45 e0          	mov    %rax,-0x20(%rbp)
    8597:	48 8b 45 e0          	mov    -0x20(%rbp),%rax
    859b:	48 c7 00 e0 0f 00 00 	movq   $0xfe0,(%rax)
    85a2:	48 8b 45 e0          	mov    -0x20(%rbp),%rax
    85a6:	c6 40 08 01          	movb   $0x1,0x8(%rax)
    85aa:	48 8b 45 e0          	mov    -0x20(%rbp),%rax
    85ae:	48 c7 40 10 00 00 00 	movq   $0x0,0x10(%rax)
    85b5:	00 
    85b6:	48 8b 45 c8          	mov    -0x38(%rbp),%rax
    85ba:	48 8b 40 18          	mov    0x18(%rax),%rax
    85be:	48 89 45 f0          	mov    %rax,-0x10(%rbp)
    85c2:	eb 0c                	jmp    85d0 <_ZN13HeapAllocator6mallocEm+0x1e0>
    85c4:	48 8b 45 f0          	mov    -0x10(%rbp),%rax
    85c8:	48 8b 40 10          	mov    0x10(%rax),%rax
    85cc:	48 89 45 f0          	mov    %rax,-0x10(%rbp)
    85d0:	48 8b 45 f0          	mov    -0x10(%rbp),%rax
    85d4:	48 8b 40 10          	mov    0x10(%rax),%rax
    85d8:	48 85 c0             	test   %rax,%rax
    85db:	75 e7                	jne    85c4 <_ZN13HeapAllocator6mallocEm+0x1d4>
    85dd:	48 8b 45 f0          	mov    -0x10(%rbp),%rax
    85e1:	48 8b 55 e0          	mov    -0x20(%rbp),%rdx
    85e5:	48 89 50 10          	mov    %rdx,0x10(%rax)
    85e9:	48 8b 45 e0          	mov    -0x20(%rbp),%rax
    85ed:	48 8b 55 f0          	mov    -0x10(%rbp),%rdx
    85f1:	48 89 50 18          	mov    %rdx,0x18(%rax)
    85f5:	48 8b 55 c0          	mov    -0x40(%rbp),%rdx
    85f9:	48 8b 45 c8          	mov    -0x38(%rbp),%rax
    85fd:	48 89 d6             	mov    %rdx,%rsi
    8600:	48 89 c7             	mov    %rax,%rdi
    8603:	e8 e8 fd ff ff       	call   83f0 <_ZN13HeapAllocator6mallocEm>
    8608:	90                   	nop
    8609:	c9                   	leave
    860a:	c3                   	ret
    860b:	90                   	nop

000000000000860c <_ZN13HeapAllocator4freeEPv>:
    860c:	f3 0f 1e fa          	endbr64
    8610:	55                   	push   %rbp
    8611:	48 89 e5             	mov    %rsp,%rbp
    8614:	48 89 7d e8          	mov    %rdi,-0x18(%rbp)
    8618:	48 89 75 e0          	mov    %rsi,-0x20(%rbp)
    861c:	48 83 7d e0 00       	cmpq   $0x0,-0x20(%rbp)
    8621:	0f 84 fa 00 00 00    	je     8721 <_ZN13HeapAllocator4freeEPv+0x115>
    8627:	48 8b 45 e0          	mov    -0x20(%rbp),%rax
    862b:	48 83 e8 20          	sub    $0x20,%rax
    862f:	48 89 45 f8          	mov    %rax,-0x8(%rbp)
    8633:	48 8b 45 f8          	mov    -0x8(%rbp),%rax
    8637:	c6 40 08 01          	movb   $0x1,0x8(%rax)
    863b:	48 8b 45 f8          	mov    -0x8(%rbp),%rax
    863f:	48 8b 40 10          	mov    0x10(%rax),%rax
    8643:	48 85 c0             	test   %rax,%rax
    8646:	74 61                	je     86a9 <_ZN13HeapAllocator4freeEPv+0x9d>
    8648:	48 8b 45 f8          	mov    -0x8(%rbp),%rax
    864c:	48 8b 40 10          	mov    0x10(%rax),%rax
    8650:	0f b6 40 08          	movzbl 0x8(%rax),%eax
    8654:	84 c0                	test   %al,%al
    8656:	74 51                	je     86a9 <_ZN13HeapAllocator4freeEPv+0x9d>
    8658:	48 8b 45 f8          	mov    -0x8(%rbp),%rax
    865c:	48 8b 10             	mov    (%rax),%rdx
    865f:	48 8b 45 f8          	mov    -0x8(%rbp),%rax
    8663:	48 8b 40 10          	mov    0x10(%rax),%rax
    8667:	48 8b 00             	mov    (%rax),%rax
    866a:	48 01 d0             	add    %rdx,%rax
    866d:	48 8d 50 20          	lea    0x20(%rax),%rdx
    8671:	48 8b 45 f8          	mov    -0x8(%rbp),%rax
    8675:	48 89 10             	mov    %rdx,(%rax)
    8678:	48 8b 45 f8          	mov    -0x8(%rbp),%rax
    867c:	48 8b 40 10          	mov    0x10(%rax),%rax
    8680:	48 8b 50 10          	mov    0x10(%rax),%rdx
    8684:	48 8b 45 f8          	mov    -0x8(%rbp),%rax
    8688:	48 89 50 10          	mov    %rdx,0x10(%rax)
    868c:	48 8b 45 f8          	mov    -0x8(%rbp),%rax
    8690:	48 8b 40 10          	mov    0x10(%rax),%rax
    8694:	48 85 c0             	test   %rax,%rax
    8697:	74 10                	je     86a9 <_ZN13HeapAllocator4freeEPv+0x9d>
    8699:	48 8b 45 f8          	mov    -0x8(%rbp),%rax
    869d:	48 8b 40 10          	mov    0x10(%rax),%rax
    86a1:	48 8b 55 f8          	mov    -0x8(%rbp),%rdx
    86a5:	48 89 50 18          	mov    %rdx,0x18(%rax)
    86a9:	48 8b 45 f8          	mov    -0x8(%rbp),%rax
    86ad:	48 8b 40 18          	mov    0x18(%rax),%rax
    86b1:	48 85 c0             	test   %rax,%rax
    86b4:	74 6c                	je     8722 <_ZN13HeapAllocator4freeEPv+0x116>
    86b6:	48 8b 45 f8          	mov    -0x8(%rbp),%rax
    86ba:	48 8b 40 18          	mov    0x18(%rax),%rax
    86be:	0f b6 40 08          	movzbl 0x8(%rax),%eax
    86c2:	84 c0                	test   %al,%al
    86c4:	74 5c                	je     8722 <_ZN13HeapAllocator4freeEPv+0x116>
    86c6:	48 8b 45 f8          	mov    -0x8(%rbp),%rax
    86ca:	48 8b 40 18          	mov    0x18(%rax),%rax
    86ce:	48 8b 10             	mov    (%rax),%rdx
    86d1:	48 8b 45 f8          	mov    -0x8(%rbp),%rax
    86d5:	48 8b 00             	mov    (%rax),%rax
    86d8:	48 01 c2             	add    %rax,%rdx
    86db:	48 8b 45 f8          	mov    -0x8(%rbp),%rax
    86df:	48 8b 40 18          	mov    0x18(%rax),%rax
    86e3:	48 83 c2 20          	add    $0x20,%rdx
    86e7:	48 89 10             	mov    %rdx,(%rax)
    86ea:	48 8b 45 f8          	mov    -0x8(%rbp),%rax
    86ee:	48 8b 40 18          	mov    0x18(%rax),%rax
    86f2:	48 8b 55 f8          	mov    -0x8(%rbp),%rdx
    86f6:	48 8b 52 10          	mov    0x10(%rdx),%rdx
    86fa:	48 89 50 10          	mov    %rdx,0x10(%rax)
    86fe:	48 8b 45 f8          	mov    -0x8(%rbp),%rax
    8702:	48 8b 40 10          	mov    0x10(%rax),%rax
    8706:	48 85 c0             	test   %rax,%rax
    8709:	74 17                	je     8722 <_ZN13HeapAllocator4freeEPv+0x116>
    870b:	48 8b 45 f8          	mov    -0x8(%rbp),%rax
    870f:	48 8b 40 10          	mov    0x10(%rax),%rax
    8713:	48 8b 55 f8          	mov    -0x8(%rbp),%rdx
    8717:	48 8b 52 18          	mov    0x18(%rdx),%rdx
    871b:	48 89 50 18          	mov    %rdx,0x18(%rax)
    871f:	eb 01                	jmp    8722 <_ZN13HeapAllocator4freeEPv+0x116>
    8721:	90                   	nop
    8722:	5d                   	pop    %rbp
    8723:	c3                   	ret

0000000000008724 <_Z6mallocm>:
    8724:	f3 0f 1e fa          	endbr64
    8728:	55                   	push   %rbp
    8729:	48 89 e5             	mov    %rsp,%rbp
    872c:	48 83 ec 10          	sub    $0x10,%rsp
    8730:	48 89 7d f8          	mov    %rdi,-0x8(%rbp)
    8734:	48 8b 05 c5 e1 01 00 	mov    0x1e1c5(%rip),%rax        # 26900 <ks>
    873b:	48 8d 90 58 11 00 00 	lea    0x1158(%rax),%rdx
    8742:	48 8b 45 f8          	mov    -0x8(%rbp),%rax
    8746:	48 89 c6             	mov    %rax,%rsi
    8749:	48 89 d7             	mov    %rdx,%rdi
    874c:	e8 9f fc ff ff       	call   83f0 <_ZN13HeapAllocator6mallocEm>
    8751:	c9                   	leave
    8752:	c3                   	ret

0000000000008753 <_Z4freePv>:
    8753:	f3 0f 1e fa          	endbr64
    8757:	55                   	push   %rbp
    8758:	48 89 e5             	mov    %rsp,%rbp
    875b:	48 83 ec 08          	sub    $0x8,%rsp
    875f:	48 89 7d f8          	mov    %rdi,-0x8(%rbp)
    8763:	48 8b 05 96 e1 01 00 	mov    0x1e196(%rip),%rax        # 26900 <ks>
    876a:	48 8d 90 58 11 00 00 	lea    0x1158(%rax),%rdx
    8771:	48 8b 45 f8          	mov    -0x8(%rbp),%rax
    8775:	48 89 c6             	mov    %rax,%rsi
    8778:	48 89 d7             	mov    %rdx,%rdi
    877b:	e8 8c fe ff ff       	call   860c <_ZN13HeapAllocator4freeEPv>
    8780:	90                   	nop
    8781:	c9                   	leave
    8782:	c3                   	ret
    8783:	90                   	nop

0000000000008784 <_ZN6BitmapixEm>:
    8784:	f3 0f 1e fa          	endbr64
    8788:	55                   	push   %rbp
    8789:	48 89 e5             	mov    %rsp,%rbp
    878c:	53                   	push   %rbx
    878d:	48 83 ec 28          	sub    $0x28,%rsp
    8791:	48 89 7d d8          	mov    %rdi,-0x28(%rbp)
    8795:	48 89 75 d0          	mov    %rsi,-0x30(%rbp)
    8799:	48 8b 45 d8          	mov    -0x28(%rbp),%rax
    879d:	48 8b 40 08          	mov    0x8(%rax),%rax
    87a1:	48 c1 e0 03          	shl    $0x3,%rax
    87a5:	48 39 45 d0          	cmp    %rax,-0x30(%rbp)
    87a9:	72 4e                	jb     87f9 <_ZN6BitmapixEm+0x75>
    87ab:	48 8b 05 4e e1 01 00 	mov    0x1e14e(%rip),%rax        # 26900 <ks>
    87b2:	48 89 c1             	mov    %rax,%rcx
    87b5:	ba ff ff ff ff       	mov    $0xffffffff,%edx
    87ba:	48 8d 05 bf 47 01 00 	lea    0x147bf(%rip),%rax        # 1cf80 <_ZL4font+0x1000>
    87c1:	48 89 c6             	mov    %rax,%rsi
    87c4:	48 89 cf             	mov    %rcx,%rdi
    87c7:	e8 a2 9d ff ff       	call   256e <_ZN12BasicConsole5PrintEPKcj>
    87cc:	48 8b 05 2d e1 01 00 	mov    0x1e12d(%rip),%rax        # 26900 <ks>
    87d3:	48 89 c3             	mov    %rax,%rbx
    87d6:	48 8b 45 d0          	mov    -0x30(%rbp),%rax
    87da:	48 89 c7             	mov    %rax,%rdi
    87dd:	e8 52 1e 00 00       	call   a634 <_Z10to_hstringm>
    87e2:	ba ff ff ff ff       	mov    $0xffffffff,%edx
    87e7:	48 89 c6             	mov    %rax,%rsi
    87ea:	48 89 df             	mov    %rbx,%rdi
    87ed:	e8 48 9e ff ff       	call   263a <_ZN12BasicConsole7PrintlnEPKcj>
    87f2:	b8 00 00 00 00       	mov    $0x0,%eax
    87f7:	eb 4c                	jmp    8845 <_ZN6BitmapixEm+0xc1>
    87f9:	48 8b 45 d0          	mov    -0x30(%rbp),%rax
    87fd:	48 c1 e8 03          	shr    $0x3,%rax
    8801:	48 89 45 e8          	mov    %rax,-0x18(%rbp)
    8805:	48 8b 45 d0          	mov    -0x30(%rbp),%rax
    8809:	83 e0 07             	and    $0x7,%eax
    880c:	88 45 e7             	mov    %al,-0x19(%rbp)
    880f:	0f b6 45 e7          	movzbl -0x19(%rbp),%eax
    8813:	ba 80 00 00 00       	mov    $0x80,%edx
    8818:	89 c1                	mov    %eax,%ecx
    881a:	d3 fa                	sar    %cl,%edx
    881c:	89 d0                	mov    %edx,%eax
    881e:	88 45 e6             	mov    %al,-0x1a(%rbp)
    8821:	48 8b 45 d8          	mov    -0x28(%rbp),%rax
    8825:	48 8b 10             	mov    (%rax),%rdx
    8828:	48 8b 45 e8          	mov    -0x18(%rbp),%rax
    882c:	48 01 d0             	add    %rdx,%rax
    882f:	0f b6 00             	movzbl (%rax),%eax
    8832:	22 45 e6             	and    -0x1a(%rbp),%al
    8835:	84 c0                	test   %al,%al
    8837:	74 07                	je     8840 <_ZN6BitmapixEm+0xbc>
    8839:	b8 01 00 00 00       	mov    $0x1,%eax
    883e:	eb 05                	jmp    8845 <_ZN6BitmapixEm+0xc1>
    8840:	b8 00 00 00 00       	mov    $0x0,%eax
    8845:	48 8b 5d f8          	mov    -0x8(%rbp),%rbx
    8849:	c9                   	leave
    884a:	c3                   	ret
    884b:	90                   	nop

000000000000884c <_ZN6Bitmap3SetEmb>:
    884c:	f3 0f 1e fa          	endbr64
    8850:	55                   	push   %rbp
    8851:	48 89 e5             	mov    %rsp,%rbp
    8854:	53                   	push   %rbx
    8855:	48 83 ec 38          	sub    $0x38,%rsp
    8859:	48 89 7d d8          	mov    %rdi,-0x28(%rbp)
    885d:	48 89 75 d0          	mov    %rsi,-0x30(%rbp)
    8861:	89 d0                	mov    %edx,%eax
    8863:	88 45 cc             	mov    %al,-0x34(%rbp)
    8866:	48 8b 45 d8          	mov    -0x28(%rbp),%rax
    886a:	48 8b 40 08          	mov    0x8(%rax),%rax
    886e:	48 c1 e0 03          	shl    $0x3,%rax
    8872:	48 39 45 d0          	cmp    %rax,-0x30(%rbp)
    8876:	72 51                	jb     88c9 <_ZN6Bitmap3SetEmb+0x7d>
    8878:	48 8b 05 81 e0 01 00 	mov    0x1e081(%rip),%rax        # 26900 <ks>
    887f:	48 89 c1             	mov    %rax,%rcx
    8882:	ba ff ff ff ff       	mov    $0xffffffff,%edx
    8887:	48 8d 05 f2 46 01 00 	lea    0x146f2(%rip),%rax        # 1cf80 <_ZL4font+0x1000>
    888e:	48 89 c6             	mov    %rax,%rsi
    8891:	48 89 cf             	mov    %rcx,%rdi
    8894:	e8 d5 9c ff ff       	call   256e <_ZN12BasicConsole5PrintEPKcj>
    8899:	48 8b 05 60 e0 01 00 	mov    0x1e060(%rip),%rax        # 26900 <ks>
    88a0:	48 89 c3             	mov    %rax,%rbx
    88a3:	48 8b 45 d0          	mov    -0x30(%rbp),%rax
    88a7:	48 89 c7             	mov    %rax,%rdi
    88aa:	e8 85 1d 00 00       	call   a634 <_Z10to_hstringm>
    88af:	ba ff ff ff ff       	mov    $0xffffffff,%edx
    88b4:	48 89 c6             	mov    %rax,%rsi
    88b7:	48 89 df             	mov    %rbx,%rdi
    88ba:	e8 7b 9d ff ff       	call   263a <_ZN12BasicConsole7PrintlnEPKcj>
    88bf:	b8 00 00 00 00       	mov    $0x0,%eax
    88c4:	e9 86 00 00 00       	jmp    894f <_ZN6Bitmap3SetEmb+0x103>
    88c9:	48 8b 45 d0          	mov    -0x30(%rbp),%rax
    88cd:	48 c1 e8 03          	shr    $0x3,%rax
    88d1:	48 89 45 e8          	mov    %rax,-0x18(%rbp)
    88d5:	48 8b 45 d0          	mov    -0x30(%rbp),%rax
    88d9:	83 e0 07             	and    $0x7,%eax
    88dc:	88 45 e7             	mov    %al,-0x19(%rbp)
    88df:	0f b6 45 e7          	movzbl -0x19(%rbp),%eax
    88e3:	ba 80 00 00 00       	mov    $0x80,%edx
    88e8:	89 c1                	mov    %eax,%ecx
    88ea:	d3 fa                	sar    %cl,%edx
    88ec:	89 d0                	mov    %edx,%eax
    88ee:	88 45 e6             	mov    %al,-0x1a(%rbp)
    88f1:	48 8b 45 d8          	mov    -0x28(%rbp),%rax
    88f5:	48 8b 10             	mov    (%rax),%rdx
    88f8:	48 8b 45 e8          	mov    -0x18(%rbp),%rax
    88fc:	48 01 d0             	add    %rdx,%rax
    88ff:	0f b6 00             	movzbl (%rax),%eax
    8902:	89 c2                	mov    %eax,%edx
    8904:	0f b6 45 e6          	movzbl -0x1a(%rbp),%eax
    8908:	f7 d0                	not    %eax
    890a:	89 d1                	mov    %edx,%ecx
    890c:	21 c1                	and    %eax,%ecx
    890e:	48 8b 45 d8          	mov    -0x28(%rbp),%rax
    8912:	48 8b 10             	mov    (%rax),%rdx
    8915:	48 8b 45 e8          	mov    -0x18(%rbp),%rax
    8919:	48 01 d0             	add    %rdx,%rax
    891c:	89 ca                	mov    %ecx,%edx
    891e:	88 10                	mov    %dl,(%rax)
    8920:	80 7d cc 00          	cmpb   $0x0,-0x34(%rbp)
    8924:	74 24                	je     894a <_ZN6Bitmap3SetEmb+0xfe>
    8926:	48 8b 45 d8          	mov    -0x28(%rbp),%rax
    892a:	48 8b 10             	mov    (%rax),%rdx
    892d:	48 8b 45 e8          	mov    -0x18(%rbp),%rax
    8931:	48 01 d0             	add    %rdx,%rax
    8934:	0f b6 00             	movzbl (%rax),%eax
    8937:	48 8b 55 d8          	mov    -0x28(%rbp),%rdx
    893b:	48 8b 0a             	mov    (%rdx),%rcx
    893e:	48 8b 55 e8          	mov    -0x18(%rbp),%rdx
    8942:	48 01 ca             	add    %rcx,%rdx
    8945:	0a 45 e6             	or     -0x1a(%rbp),%al
    8948:	88 02                	mov    %al,(%rdx)
    894a:	b8 01 00 00 00       	mov    $0x1,%eax
    894f:	48 8b 5d f8          	mov    -0x8(%rbp),%rbx
    8953:	c9                   	leave
    8954:	c3                   	ret

0000000000008955 <_Z13GetMemorySizeP21EFI_MEMORY_DESCRIPTORmm>:
    8955:	f3 0f 1e fa          	endbr64
    8959:	55                   	push   %rbp
    895a:	48 89 e5             	mov    %rsp,%rbp
    895d:	48 89 7d e8          	mov    %rdi,-0x18(%rbp)
    8961:	48 89 75 e0          	mov    %rsi,-0x20(%rbp)
    8965:	48 89 55 d8          	mov    %rdx,-0x28(%rbp)
    8969:	48 8b 05 98 df 01 00 	mov    0x1df98(%rip),%rax        # 26908 <_ZZ13GetMemorySizeP21EFI_MEMORY_DESCRIPTORmmE15memorySizeBytes>
    8970:	48 85 c0             	test   %rax,%rax
    8973:	74 09                	je     897e <_Z13GetMemorySizeP21EFI_MEMORY_DESCRIPTORmm+0x29>
    8975:	48 8b 05 8c df 01 00 	mov    0x1df8c(%rip),%rax        # 26908 <_ZZ13GetMemorySizeP21EFI_MEMORY_DESCRIPTORmmE15memorySizeBytes>
    897c:	eb 57                	jmp    89d5 <_Z13GetMemorySizeP21EFI_MEMORY_DESCRIPTORmm+0x80>
    897e:	c7 45 fc 00 00 00 00 	movl   $0x0,-0x4(%rbp)
    8985:	eb 3c                	jmp    89c3 <_Z13GetMemorySizeP21EFI_MEMORY_DESCRIPTORmm+0x6e>
    8987:	8b 45 fc             	mov    -0x4(%rbp),%eax
    898a:	48 98                	cltq
    898c:	48 0f af 45 d8       	imul   -0x28(%rbp),%rax
    8991:	48 89 c2             	mov    %rax,%rdx
    8994:	48 8b 45 e8          	mov    -0x18(%rbp),%rax
    8998:	48 01 d0             	add    %rdx,%rax
    899b:	48 89 45 f0          	mov    %rax,-0x10(%rbp)
    899f:	48 8b 45 f0          	mov    -0x10(%rbp),%rax
    89a3:	48 8b 40 18          	mov    0x18(%rax),%rax
    89a7:	48 c1 e0 0c          	shl    $0xc,%rax
    89ab:	48 89 c2             	mov    %rax,%rdx
    89ae:	48 8b 05 53 df 01 00 	mov    0x1df53(%rip),%rax        # 26908 <_ZZ13GetMemorySizeP21EFI_MEMORY_DESCRIPTORmmE15memorySizeBytes>
    89b5:	48 01 d0             	add    %rdx,%rax
    89b8:	48 89 05 49 df 01 00 	mov    %rax,0x1df49(%rip)        # 26908 <_ZZ13GetMemorySizeP21EFI_MEMORY_DESCRIPTORmmE15memorySizeBytes>
    89bf:	83 45 fc 01          	addl   $0x1,-0x4(%rbp)
    89c3:	8b 45 fc             	mov    -0x4(%rbp),%eax
    89c6:	48 98                	cltq
    89c8:	48 3b 45 e0          	cmp    -0x20(%rbp),%rax
    89cc:	72 b9                	jb     8987 <_Z13GetMemorySizeP21EFI_MEMORY_DESCRIPTORmm+0x32>
    89ce:	48 8b 05 33 df 01 00 	mov    0x1df33(%rip),%rax        # 26908 <_ZZ13GetMemorySizeP21EFI_MEMORY_DESCRIPTORmmE15memorySizeBytes>
    89d5:	5d                   	pop    %rbp
    89d6:	c3                   	ret

00000000000089d7 <memsetC>:
    89d7:	f3 0f 1e fa          	endbr64
    89db:	55                   	push   %rbp
    89dc:	48 89 e5             	mov    %rsp,%rbp
    89df:	48 89 7d e8          	mov    %rdi,-0x18(%rbp)
    89e3:	89 f0                	mov    %esi,%eax
    89e5:	48 89 55 d8          	mov    %rdx,-0x28(%rbp)
    89e9:	88 45 e4             	mov    %al,-0x1c(%rbp)
    89ec:	48 c7 45 f8 00 00 00 	movq   $0x0,-0x8(%rbp)
    89f3:	00 
    89f4:	eb 19                	jmp    8a0f <memsetC+0x38>
    89f6:	48 8b 55 e8          	mov    -0x18(%rbp),%rdx
    89fa:	48 8b 45 f8          	mov    -0x8(%rbp),%rax
    89fe:	48 01 d0             	add    %rdx,%rax
    8a01:	48 89 c2             	mov    %rax,%rdx
    8a04:	0f b6 45 e4          	movzbl -0x1c(%rbp),%eax
    8a08:	88 02                	mov    %al,(%rdx)
    8a0a:	48 83 45 f8 01       	addq   $0x1,-0x8(%rbp)
    8a0f:	48 8b 45 f8          	mov    -0x8(%rbp),%rax
    8a13:	48 3b 45 d8          	cmp    -0x28(%rbp),%rax
    8a17:	72 dd                	jb     89f6 <memsetC+0x1f>
    8a19:	90                   	nop
    8a1a:	90                   	nop
    8a1b:	5d                   	pop    %rbp
    8a1c:	c3                   	ret

0000000000008a1d <_Z6memsetPvhm>:
    8a1d:	f3 0f 1e fa          	endbr64
    8a21:	55                   	push   %rbp
    8a22:	48 89 e5             	mov    %rsp,%rbp
    8a25:	48 89 7d e8          	mov    %rdi,-0x18(%rbp)
    8a29:	89 f0                	mov    %esi,%eax
    8a2b:	48 89 55 d8          	mov    %rdx,-0x28(%rbp)
    8a2f:	88 45 e4             	mov    %al,-0x1c(%rbp)
    8a32:	48 c7 45 f8 00 00 00 	movq   $0x0,-0x8(%rbp)
    8a39:	00 
    8a3a:	eb 19                	jmp    8a55 <_Z6memsetPvhm+0x38>
    8a3c:	48 8b 55 e8          	mov    -0x18(%rbp),%rdx
    8a40:	48 8b 45 f8          	mov    -0x8(%rbp),%rax
    8a44:	48 01 d0             	add    %rdx,%rax
    8a47:	48 89 c2             	mov    %rax,%rdx
    8a4a:	0f b6 45 e4          	movzbl -0x1c(%rbp),%eax
    8a4e:	88 02                	mov    %al,(%rdx)
    8a50:	48 83 45 f8 01       	addq   $0x1,-0x8(%rbp)
    8a55:	48 8b 45 f8          	mov    -0x8(%rbp),%rax
    8a59:	48 3b 45 d8          	cmp    -0x28(%rbp),%rax
    8a5d:	72 dd                	jb     8a3c <_Z6memsetPvhm+0x1f>
    8a5f:	90                   	nop
    8a60:	90                   	nop
    8a61:	5d                   	pop    %rbp
    8a62:	c3                   	ret
    8a63:	90                   	nop

0000000000008a64 <_ZN18PageFrameAllocatorC1Ev>:
    8a64:	f3 0f 1e fa          	endbr64
    8a68:	55                   	push   %rbp
    8a69:	48 89 e5             	mov    %rsp,%rbp
    8a6c:	48 89 7d f8          	mov    %rdi,-0x8(%rbp)
    8a70:	48 8b 45 f8          	mov    -0x8(%rbp),%rax
    8a74:	c6 40 30 00          	movb   $0x0,0x30(%rax)
    8a78:	48 8b 45 f8          	mov    -0x8(%rbp),%rax
    8a7c:	48 c7 40 48 00 00 00 	movq   $0x0,0x48(%rax)
    8a83:	00 
    8a84:	48 8b 45 f8          	mov    -0x8(%rbp),%rax
    8a88:	48 c7 40 38 00 00 00 	movq   $0x0,0x38(%rax)
    8a8f:	00 
    8a90:	48 8b 45 f8          	mov    -0x8(%rbp),%rax
    8a94:	48 c7 40 40 00 00 00 	movq   $0x0,0x40(%rax)
    8a9b:	00 
    8a9c:	90                   	nop
    8a9d:	5d                   	pop    %rbp
    8a9e:	c3                   	ret
    8a9f:	90                   	nop

0000000000008aa0 <_ZN18PageFrameAllocator16ReadEFIMemoryMapEP21EFI_MEMORY_DESCRIPTORmm>:
    8aa0:	f3 0f 1e fa          	endbr64
    8aa4:	55                   	push   %rbp
    8aa5:	48 89 e5             	mov    %rsp,%rbp
    8aa8:	48 83 ec 60          	sub    $0x60,%rsp
    8aac:	48 89 7d b8          	mov    %rdi,-0x48(%rbp)
    8ab0:	48 89 75 b0          	mov    %rsi,-0x50(%rbp)
    8ab4:	48 89 55 a8          	mov    %rdx,-0x58(%rbp)
    8ab8:	48 89 4d a0          	mov    %rcx,-0x60(%rbp)
    8abc:	48 8b 45 b8          	mov    -0x48(%rbp),%rax
    8ac0:	0f b6 40 30          	movzbl 0x30(%rax),%eax
    8ac4:	84 c0                	test   %al,%al
    8ac6:	0f 85 1a 02 00 00    	jne    8ce6 <_ZN18PageFrameAllocator16ReadEFIMemoryMapEP21EFI_MEMORY_DESCRIPTORmm+0x246>
    8acc:	48 8b 45 b8          	mov    -0x48(%rbp),%rax
    8ad0:	c6 40 30 01          	movb   $0x1,0x30(%rax)
    8ad4:	48 8b 45 b8          	mov    -0x48(%rbp),%rax
    8ad8:	48 8b 55 b0          	mov    -0x50(%rbp),%rdx
    8adc:	48 89 10             	mov    %rdx,(%rax)
    8adf:	48 8b 45 b8          	mov    -0x48(%rbp),%rax
    8ae3:	48 8b 55 a8          	mov    -0x58(%rbp),%rdx
    8ae7:	48 89 50 08          	mov    %rdx,0x8(%rax)
    8aeb:	48 8b 45 b8          	mov    -0x48(%rbp),%rax
    8aef:	48 8b 55 a0          	mov    -0x60(%rbp),%rdx
    8af3:	48 89 50 10          	mov    %rdx,0x10(%rax)
    8af7:	48 8b 45 b8          	mov    -0x48(%rbp),%rax
    8afb:	48 8b 50 10          	mov    0x10(%rax),%rdx
    8aff:	48 8b 45 b8          	mov    -0x48(%rbp),%rax
    8b03:	48 8b 48 08          	mov    0x8(%rax),%rcx
    8b07:	48 8b 45 b8          	mov    -0x48(%rbp),%rax
    8b0b:	48 8b 00             	mov    (%rax),%rax
    8b0e:	48 89 ce             	mov    %rcx,%rsi
    8b11:	48 89 c7             	mov    %rax,%rdi
    8b14:	e8 3c fe ff ff       	call   8955 <_Z13GetMemorySizeP21EFI_MEMORY_DESCRIPTORmm>
    8b19:	48 c1 e8 0c          	shr    $0xc,%rax
    8b1d:	48 89 c2             	mov    %rax,%rdx
    8b20:	48 8b 45 b8          	mov    -0x48(%rbp),%rax
    8b24:	48 89 50 28          	mov    %rdx,0x28(%rax)
    8b28:	48 8b 45 b8          	mov    -0x48(%rbp),%rax
    8b2c:	48 8b 40 08          	mov    0x8(%rax),%rax
    8b30:	48 8b 55 b8          	mov    -0x48(%rbp),%rdx
    8b34:	48 8b 72 10          	mov    0x10(%rdx),%rsi
    8b38:	ba 00 00 00 00       	mov    $0x0,%edx
    8b3d:	48 f7 f6             	div    %rsi
    8b40:	48 89 45 e0          	mov    %rax,-0x20(%rbp)
    8b44:	48 c7 45 f8 00 00 00 	movq   $0x0,-0x8(%rbp)
    8b4b:	00 
    8b4c:	48 c7 45 f0 00 00 00 	movq   $0x0,-0x10(%rbp)
    8b53:	00 
    8b54:	c7 45 ec 00 00 00 00 	movl   $0x0,-0x14(%rbp)
    8b5b:	eb 60                	jmp    8bbd <_ZN18PageFrameAllocator16ReadEFIMemoryMapEP21EFI_MEMORY_DESCRIPTORmm+0x11d>
    8b5d:	48 8b 45 b8          	mov    -0x48(%rbp),%rax
    8b61:	48 8b 00             	mov    (%rax),%rax
    8b64:	48 89 c1             	mov    %rax,%rcx
    8b67:	8b 45 ec             	mov    -0x14(%rbp),%eax
    8b6a:	48 63 d0             	movslq %eax,%rdx
    8b6d:	48 8b 45 b8          	mov    -0x48(%rbp),%rax
    8b71:	48 8b 40 10          	mov    0x10(%rax),%rax
    8b75:	48 0f af c2          	imul   %rdx,%rax
    8b79:	48 01 c8             	add    %rcx,%rax
    8b7c:	48 89 45 c0          	mov    %rax,-0x40(%rbp)
    8b80:	48 8b 45 c0          	mov    -0x40(%rbp),%rax
    8b84:	8b 00                	mov    (%rax),%eax
    8b86:	83 f8 07             	cmp    $0x7,%eax
    8b89:	75 2e                	jne    8bb9 <_ZN18PageFrameAllocator16ReadEFIMemoryMapEP21EFI_MEMORY_DESCRIPTORmm+0x119>
    8b8b:	48 8b 45 c0          	mov    -0x40(%rbp),%rax
    8b8f:	48 8b 40 18          	mov    0x18(%rax),%rax
    8b93:	48 c1 e0 0c          	shl    $0xc,%rax
    8b97:	48 39 45 f0          	cmp    %rax,-0x10(%rbp)
    8b9b:	73 1c                	jae    8bb9 <_ZN18PageFrameAllocator16ReadEFIMemoryMapEP21EFI_MEMORY_DESCRIPTORmm+0x119>
    8b9d:	48 8b 45 c0          	mov    -0x40(%rbp),%rax
    8ba1:	48 8b 40 08          	mov    0x8(%rax),%rax
    8ba5:	48 89 45 f8          	mov    %rax,-0x8(%rbp)
    8ba9:	48 8b 45 c0          	mov    -0x40(%rbp),%rax
    8bad:	48 8b 40 18          	mov    0x18(%rax),%rax
    8bb1:	48 c1 e0 0c          	shl    $0xc,%rax
    8bb5:	48 89 45 f0          	mov    %rax,-0x10(%rbp)
    8bb9:	83 45 ec 01          	addl   $0x1,-0x14(%rbp)
    8bbd:	8b 45 ec             	mov    -0x14(%rbp),%eax
    8bc0:	48 98                	cltq
    8bc2:	48 3b 45 e0          	cmp    -0x20(%rbp),%rax
    8bc6:	72 95                	jb     8b5d <_ZN18PageFrameAllocator16ReadEFIMemoryMapEP21EFI_MEMORY_DESCRIPTORmm+0xbd>
    8bc8:	48 83 7d f8 00       	cmpq   $0x0,-0x8(%rbp)
    8bcd:	75 2c                	jne    8bfb <_ZN18PageFrameAllocator16ReadEFIMemoryMapEP21EFI_MEMORY_DESCRIPTORmm+0x15b>
    8bcf:	48 8b 45 b8          	mov    -0x48(%rbp),%rax
    8bd3:	48 8b 40 50          	mov    0x50(%rax),%rax
    8bd7:	ba ff ff ff ff       	mov    $0xffffffff,%edx
    8bdc:	48 8d 0d dd 54 01 00 	lea    0x154dd(%rip),%rcx        # 1e0c0 <_ZL4font+0x1000>
    8be3:	48 89 ce             	mov    %rcx,%rsi
    8be6:	48 89 c7             	mov    %rax,%rdi
    8be9:	e8 4c 9a ff ff       	call   263a <_ZN12BasicConsole7PrintlnEPKcj>
    8bee:	48 8b 45 b8          	mov    -0x48(%rbp),%rax
    8bf2:	c6 40 30 00          	movb   $0x0,0x30(%rax)
    8bf6:	e9 ec 00 00 00       	jmp    8ce7 <_ZN18PageFrameAllocator16ReadEFIMemoryMapEP21EFI_MEMORY_DESCRIPTORmm+0x247>
    8bfb:	48 8b 45 b8          	mov    -0x48(%rbp),%rax
    8bff:	48 8b 50 10          	mov    0x10(%rax),%rdx
    8c03:	48 8b 45 b8          	mov    -0x48(%rbp),%rax
    8c07:	48 8b 00             	mov    (%rax),%rax
    8c0a:	48 8b 4d e0          	mov    -0x20(%rbp),%rcx
    8c0e:	48 89 ce             	mov    %rcx,%rsi
    8c11:	48 89 c7             	mov    %rax,%rdi
    8c14:	e8 3c fd ff ff       	call   8955 <_Z13GetMemorySizeP21EFI_MEMORY_DESCRIPTORmm>
    8c19:	48 89 45 d8          	mov    %rax,-0x28(%rbp)
    8c1d:	48 8b 45 b8          	mov    -0x48(%rbp),%rax
    8c21:	48 8b 55 d8          	mov    -0x28(%rbp),%rdx
    8c25:	48 89 50 38          	mov    %rdx,0x38(%rax)
    8c29:	48 8b 45 d8          	mov    -0x28(%rbp),%rax
    8c2d:	48 c1 e8 0f          	shr    $0xf,%rax
    8c31:	48 83 c0 01          	add    $0x1,%rax
    8c35:	48 89 45 d0          	mov    %rax,-0x30(%rbp)
    8c39:	48 8b 55 f8          	mov    -0x8(%rbp),%rdx
    8c3d:	48 8b 4d d0          	mov    -0x30(%rbp),%rcx
    8c41:	48 8b 45 b8          	mov    -0x48(%rbp),%rax
    8c45:	48 89 ce             	mov    %rcx,%rsi
    8c48:	48 89 c7             	mov    %rax,%rdi
    8c4b:	e8 9a 00 00 00       	call   8cea <_ZN18PageFrameAllocator10InitBitmapEmPv>
    8c50:	48 8b 45 b8          	mov    -0x48(%rbp),%rax
    8c54:	48 8b 40 20          	mov    0x20(%rax),%rax
    8c58:	48 05 ff 0f 00 00    	add    $0xfff,%rax
    8c5e:	48 c1 e8 0c          	shr    $0xc,%rax
    8c62:	48 89 c2             	mov    %rax,%rdx
    8c65:	48 8b 45 b8          	mov    -0x48(%rbp),%rax
    8c69:	48 8b 48 18          	mov    0x18(%rax),%rcx
    8c6d:	48 8b 45 b8          	mov    -0x48(%rbp),%rax
    8c71:	48 89 ce             	mov    %rcx,%rsi
    8c74:	48 89 c7             	mov    %rax,%rdi
    8c77:	e8 bc 01 00 00       	call   8e38 <_ZN18PageFrameAllocator9LockPagesEPvm>
    8c7c:	c7 45 e8 00 00 00 00 	movl   $0x0,-0x18(%rbp)
    8c83:	eb 54                	jmp    8cd9 <_ZN18PageFrameAllocator16ReadEFIMemoryMapEP21EFI_MEMORY_DESCRIPTORmm+0x239>
    8c85:	48 8b 45 b8          	mov    -0x48(%rbp),%rax
    8c89:	48 8b 00             	mov    (%rax),%rax
    8c8c:	48 89 c1             	mov    %rax,%rcx
    8c8f:	8b 45 e8             	mov    -0x18(%rbp),%eax
    8c92:	48 63 d0             	movslq %eax,%rdx
    8c95:	48 8b 45 b8          	mov    -0x48(%rbp),%rax
    8c99:	48 8b 40 10          	mov    0x10(%rax),%rax
    8c9d:	48 0f af c2          	imul   %rdx,%rax
    8ca1:	48 01 c8             	add    %rcx,%rax
    8ca4:	48 89 45 c8          	mov    %rax,-0x38(%rbp)
    8ca8:	48 8b 45 c8          	mov    -0x38(%rbp),%rax
    8cac:	8b 00                	mov    (%rax),%eax
    8cae:	83 f8 07             	cmp    $0x7,%eax
    8cb1:	74 22                	je     8cd5 <_ZN18PageFrameAllocator16ReadEFIMemoryMapEP21EFI_MEMORY_DESCRIPTORmm+0x235>
    8cb3:	48 8b 45 c8          	mov    -0x38(%rbp),%rax
    8cb7:	48 8b 50 18          	mov    0x18(%rax),%rdx
    8cbb:	48 8b 45 c8          	mov    -0x38(%rbp),%rax
    8cbf:	48 8b 40 08          	mov    0x8(%rax),%rax
    8cc3:	48 89 c1             	mov    %rax,%rcx
    8cc6:	48 8b 45 b8          	mov    -0x48(%rbp),%rax
    8cca:	48 89 ce             	mov    %rcx,%rsi
    8ccd:	48 89 c7             	mov    %rax,%rdi
    8cd0:	e8 e9 03 00 00       	call   90be <_ZN18PageFrameAllocator12ReservePagesEPvm>
    8cd5:	83 45 e8 01          	addl   $0x1,-0x18(%rbp)
    8cd9:	8b 45 e8             	mov    -0x18(%rbp),%eax
    8cdc:	48 98                	cltq
    8cde:	48 3b 45 e0          	cmp    -0x20(%rbp),%rax
    8ce2:	72 a1                	jb     8c85 <_ZN18PageFrameAllocator16ReadEFIMemoryMapEP21EFI_MEMORY_DESCRIPTORmm+0x1e5>
    8ce4:	eb 01                	jmp    8ce7 <_ZN18PageFrameAllocator16ReadEFIMemoryMapEP21EFI_MEMORY_DESCRIPTORmm+0x247>
    8ce6:	90                   	nop
    8ce7:	c9                   	leave
    8ce8:	c3                   	ret
    8ce9:	90                   	nop

0000000000008cea <_ZN18PageFrameAllocator10InitBitmapEmPv>:
    8cea:	f3 0f 1e fa          	endbr64
    8cee:	55                   	push   %rbp
    8cef:	48 89 e5             	mov    %rsp,%rbp
    8cf2:	48 89 7d e8          	mov    %rdi,-0x18(%rbp)
    8cf6:	48 89 75 e0          	mov    %rsi,-0x20(%rbp)
    8cfa:	48 89 55 d8          	mov    %rdx,-0x28(%rbp)
    8cfe:	48 8b 45 e8          	mov    -0x18(%rbp),%rax
    8d02:	48 8b 55 e0          	mov    -0x20(%rbp),%rdx
    8d06:	48 89 50 20          	mov    %rdx,0x20(%rax)
    8d0a:	48 8b 45 e8          	mov    -0x18(%rbp),%rax
    8d0e:	48 8b 55 d8          	mov    -0x28(%rbp),%rdx
    8d12:	48 89 50 18          	mov    %rdx,0x18(%rax)
    8d16:	48 c7 45 f8 00 00 00 	movq   $0x0,-0x8(%rbp)
    8d1d:	00 
    8d1e:	eb 17                	jmp    8d37 <_ZN18PageFrameAllocator10InitBitmapEmPv+0x4d>
    8d20:	48 8b 45 e8          	mov    -0x18(%rbp),%rax
    8d24:	48 8b 50 18          	mov    0x18(%rax),%rdx
    8d28:	48 8b 45 f8          	mov    -0x8(%rbp),%rax
    8d2c:	48 01 d0             	add    %rdx,%rax
    8d2f:	c6 00 00             	movb   $0x0,(%rax)
    8d32:	48 83 45 f8 01       	addq   $0x1,-0x8(%rbp)
    8d37:	48 8b 45 e8          	mov    -0x18(%rbp),%rax
    8d3b:	48 8b 40 20          	mov    0x20(%rax),%rax
    8d3f:	48 83 c0 07          	add    $0x7,%rax
    8d43:	48 c1 e8 03          	shr    $0x3,%rax
    8d47:	48 39 45 f8          	cmp    %rax,-0x8(%rbp)
    8d4b:	72 d3                	jb     8d20 <_ZN18PageFrameAllocator10InitBitmapEmPv+0x36>
    8d4d:	90                   	nop
    8d4e:	90                   	nop
    8d4f:	5d                   	pop    %rbp
    8d50:	c3                   	ret
    8d51:	90                   	nop

0000000000008d52 <_ZN18PageFrameAllocator8LockPageEPv>:
    8d52:	f3 0f 1e fa          	endbr64
    8d56:	55                   	push   %rbp
    8d57:	48 89 e5             	mov    %rsp,%rbp
    8d5a:	53                   	push   %rbx
    8d5b:	48 83 ec 28          	sub    $0x28,%rsp
    8d5f:	48 89 7d d8          	mov    %rdi,-0x28(%rbp)
    8d63:	48 89 75 d0          	mov    %rsi,-0x30(%rbp)
    8d67:	48 8b 45 d0          	mov    -0x30(%rbp),%rax
    8d6b:	48 c1 e8 0c          	shr    $0xc,%rax
    8d6f:	48 89 45 e8          	mov    %rax,-0x18(%rbp)
    8d73:	48 8b 45 d8          	mov    -0x28(%rbp),%rax
    8d77:	48 8d 50 18          	lea    0x18(%rax),%rdx
    8d7b:	48 8b 45 e8          	mov    -0x18(%rbp),%rax
    8d7f:	48 89 c6             	mov    %rax,%rsi
    8d82:	48 89 d7             	mov    %rdx,%rdi
    8d85:	e8 fa f9 ff ff       	call   8784 <_ZN6BitmapixEm>
    8d8a:	0f b6 c0             	movzbl %al,%eax
    8d8d:	83 f8 01             	cmp    $0x1,%eax
    8d90:	0f 94 c0             	sete   %al
    8d93:	84 c0                	test   %al,%al
    8d95:	0f 85 95 00 00 00    	jne    8e30 <_ZN18PageFrameAllocator8LockPageEPv+0xde>
    8d9b:	48 8b 45 d8          	mov    -0x28(%rbp),%rax
    8d9f:	48 8d 48 18          	lea    0x18(%rax),%rcx
    8da3:	48 8b 45 e8          	mov    -0x18(%rbp),%rax
    8da7:	ba 01 00 00 00       	mov    $0x1,%edx
    8dac:	48 89 c6             	mov    %rax,%rsi
    8daf:	48 89 cf             	mov    %rcx,%rdi
    8db2:	e8 95 fa ff ff       	call   884c <_ZN6Bitmap3SetEmb>
    8db7:	84 c0                	test   %al,%al
    8db9:	74 30                	je     8deb <_ZN18PageFrameAllocator8LockPageEPv+0x99>
    8dbb:	48 8b 45 d8          	mov    -0x28(%rbp),%rax
    8dbf:	48 8b 40 38          	mov    0x38(%rax),%rax
    8dc3:	48 8d 90 00 f0 ff ff 	lea    -0x1000(%rax),%rdx
    8dca:	48 8b 45 d8          	mov    -0x28(%rbp),%rax
    8dce:	48 89 50 38          	mov    %rdx,0x38(%rax)
    8dd2:	48 8b 45 d8          	mov    -0x28(%rbp),%rax
    8dd6:	48 8b 40 48          	mov    0x48(%rax),%rax
    8dda:	48 8d 90 00 10 00 00 	lea    0x1000(%rax),%rdx
    8de1:	48 8b 45 d8          	mov    -0x28(%rbp),%rax
    8de5:	48 89 50 48          	mov    %rdx,0x48(%rax)
    8de9:	eb 46                	jmp    8e31 <_ZN18PageFrameAllocator8LockPageEPv+0xdf>
    8deb:	48 8b 45 d8          	mov    -0x28(%rbp),%rax
    8def:	48 8b 40 50          	mov    0x50(%rax),%rax
    8df3:	ba ff ff ff ff       	mov    $0xffffffff,%edx
    8df8:	48 8d 0d 01 53 01 00 	lea    0x15301(%rip),%rcx        # 1e100 <_ZL4font+0x1040>
    8dff:	48 89 ce             	mov    %rcx,%rsi
    8e02:	48 89 c7             	mov    %rax,%rdi
    8e05:	e8 64 97 ff ff       	call   256e <_ZN12BasicConsole5PrintEPKcj>
    8e0a:	48 8b 45 d8          	mov    -0x28(%rbp),%rax
    8e0e:	48 8b 58 50          	mov    0x50(%rax),%rbx
    8e12:	48 8b 45 d0          	mov    -0x30(%rbp),%rax
    8e16:	48 89 c7             	mov    %rax,%rdi
    8e19:	e8 16 18 00 00       	call   a634 <_Z10to_hstringm>
    8e1e:	ba ff ff ff ff       	mov    $0xffffffff,%edx
    8e23:	48 89 c6             	mov    %rax,%rsi
    8e26:	48 89 df             	mov    %rbx,%rdi
    8e29:	e8 0c 98 ff ff       	call   263a <_ZN12BasicConsole7PrintlnEPKcj>
    8e2e:	eb 01                	jmp    8e31 <_ZN18PageFrameAllocator8LockPageEPv+0xdf>
    8e30:	90                   	nop
    8e31:	48 8b 5d f8          	mov    -0x8(%rbp),%rbx
    8e35:	c9                   	leave
    8e36:	c3                   	ret
    8e37:	90                   	nop

0000000000008e38 <_ZN18PageFrameAllocator9LockPagesEPvm>:
    8e38:	f3 0f 1e fa          	endbr64
    8e3c:	55                   	push   %rbp
    8e3d:	48 89 e5             	mov    %rsp,%rbp
    8e40:	48 83 ec 30          	sub    $0x30,%rsp
    8e44:	48 89 7d e8          	mov    %rdi,-0x18(%rbp)
    8e48:	48 89 75 e0          	mov    %rsi,-0x20(%rbp)
    8e4c:	48 89 55 d8          	mov    %rdx,-0x28(%rbp)
    8e50:	48 c7 45 f8 00 00 00 	movq   $0x0,-0x8(%rbp)
    8e57:	00 
    8e58:	eb 2e                	jmp    8e88 <_ZN18PageFrameAllocator9LockPagesEPvm+0x50>
    8e5a:	48 8b 45 f8          	mov    -0x8(%rbp),%rax
    8e5e:	48 c1 e0 0c          	shl    $0xc,%rax
    8e62:	48 89 c2             	mov    %rax,%rdx
    8e65:	48 8b 45 e0          	mov    -0x20(%rbp),%rax
    8e69:	48 01 d0             	add    %rdx,%rax
    8e6c:	48 89 45 f0          	mov    %rax,-0x10(%rbp)
    8e70:	48 8b 55 f0          	mov    -0x10(%rbp),%rdx
    8e74:	48 8b 45 e8          	mov    -0x18(%rbp),%rax
    8e78:	48 89 d6             	mov    %rdx,%rsi
    8e7b:	48 89 c7             	mov    %rax,%rdi
    8e7e:	e8 cf fe ff ff       	call   8d52 <_ZN18PageFrameAllocator8LockPageEPv>
    8e83:	48 83 45 f8 01       	addq   $0x1,-0x8(%rbp)
    8e88:	48 8b 45 f8          	mov    -0x8(%rbp),%rax
    8e8c:	48 3b 45 d8          	cmp    -0x28(%rbp),%rax
    8e90:	72 c8                	jb     8e5a <_ZN18PageFrameAllocator9LockPagesEPvm+0x22>
    8e92:	90                   	nop
    8e93:	90                   	nop
    8e94:	c9                   	leave
    8e95:	c3                   	ret

0000000000008e96 <_ZN18PageFrameAllocator8FreePageEPv>:
    8e96:	f3 0f 1e fa          	endbr64
    8e9a:	55                   	push   %rbp
    8e9b:	48 89 e5             	mov    %rsp,%rbp
    8e9e:	53                   	push   %rbx
    8e9f:	48 83 ec 28          	sub    $0x28,%rsp
    8ea3:	48 89 7d d8          	mov    %rdi,-0x28(%rbp)
    8ea7:	48 89 75 d0          	mov    %rsi,-0x30(%rbp)
    8eab:	48 8b 45 d0          	mov    -0x30(%rbp),%rax
    8eaf:	48 c1 e8 0c          	shr    $0xc,%rax
    8eb3:	48 89 45 e8          	mov    %rax,-0x18(%rbp)
    8eb7:	48 8b 45 d8          	mov    -0x28(%rbp),%rax
    8ebb:	48 8d 50 18          	lea    0x18(%rax),%rdx
    8ebf:	48 8b 45 e8          	mov    -0x18(%rbp),%rax
    8ec3:	48 89 c6             	mov    %rax,%rsi
    8ec6:	48 89 d7             	mov    %rdx,%rdi
    8ec9:	e8 b6 f8 ff ff       	call   8784 <_ZN6BitmapixEm>
    8ece:	0f b6 c0             	movzbl %al,%eax
    8ed1:	85 c0                	test   %eax,%eax
    8ed3:	0f 94 c0             	sete   %al
    8ed6:	84 c0                	test   %al,%al
    8ed8:	0f 85 95 00 00 00    	jne    8f73 <_ZN18PageFrameAllocator8FreePageEPv+0xdd>
    8ede:	48 8b 45 d8          	mov    -0x28(%rbp),%rax
    8ee2:	48 8d 48 18          	lea    0x18(%rax),%rcx
    8ee6:	48 8b 45 e8          	mov    -0x18(%rbp),%rax
    8eea:	ba 00 00 00 00       	mov    $0x0,%edx
    8eef:	48 89 c6             	mov    %rax,%rsi
    8ef2:	48 89 cf             	mov    %rcx,%rdi
    8ef5:	e8 52 f9 ff ff       	call   884c <_ZN6Bitmap3SetEmb>
    8efa:	84 c0                	test   %al,%al
    8efc:	74 30                	je     8f2e <_ZN18PageFrameAllocator8FreePageEPv+0x98>
    8efe:	48 8b 45 d8          	mov    -0x28(%rbp),%rax
    8f02:	48 8b 40 38          	mov    0x38(%rax),%rax
    8f06:	48 8d 90 00 10 00 00 	lea    0x1000(%rax),%rdx
    8f0d:	48 8b 45 d8          	mov    -0x28(%rbp),%rax
    8f11:	48 89 50 38          	mov    %rdx,0x38(%rax)
    8f15:	48 8b 45 d8          	mov    -0x28(%rbp),%rax
    8f19:	48 8b 40 48          	mov    0x48(%rax),%rax
    8f1d:	48 8d 90 00 f0 ff ff 	lea    -0x1000(%rax),%rdx
    8f24:	48 8b 45 d8          	mov    -0x28(%rbp),%rax
    8f28:	48 89 50 48          	mov    %rdx,0x48(%rax)
    8f2c:	eb 46                	jmp    8f74 <_ZN18PageFrameAllocator8FreePageEPv+0xde>
    8f2e:	48 8b 45 d8          	mov    -0x28(%rbp),%rax
    8f32:	48 8b 40 50          	mov    0x50(%rax),%rax
    8f36:	ba ff ff ff ff       	mov    $0xffffffff,%edx
    8f3b:	48 8d 0d e6 51 01 00 	lea    0x151e6(%rip),%rcx        # 1e128 <_ZL4font+0x1068>
    8f42:	48 89 ce             	mov    %rcx,%rsi
    8f45:	48 89 c7             	mov    %rax,%rdi
    8f48:	e8 21 96 ff ff       	call   256e <_ZN12BasicConsole5PrintEPKcj>
    8f4d:	48 8b 45 d8          	mov    -0x28(%rbp),%rax
    8f51:	48 8b 58 50          	mov    0x50(%rax),%rbx
    8f55:	48 8b 45 d0          	mov    -0x30(%rbp),%rax
    8f59:	48 89 c7             	mov    %rax,%rdi
    8f5c:	e8 d3 16 00 00       	call   a634 <_Z10to_hstringm>
    8f61:	ba ff ff ff ff       	mov    $0xffffffff,%edx
    8f66:	48 89 c6             	mov    %rax,%rsi
    8f69:	48 89 df             	mov    %rbx,%rdi
    8f6c:	e8 c9 96 ff ff       	call   263a <_ZN12BasicConsole7PrintlnEPKcj>
    8f71:	eb 01                	jmp    8f74 <_ZN18PageFrameAllocator8FreePageEPv+0xde>
    8f73:	90                   	nop
    8f74:	48 8b 5d f8          	mov    -0x8(%rbp),%rbx
    8f78:	c9                   	leave
    8f79:	c3                   	ret

0000000000008f7a <_ZN18PageFrameAllocator9FreePagesEPvm>:
    8f7a:	f3 0f 1e fa          	endbr64
    8f7e:	55                   	push   %rbp
    8f7f:	48 89 e5             	mov    %rsp,%rbp
    8f82:	48 83 ec 30          	sub    $0x30,%rsp
    8f86:	48 89 7d e8          	mov    %rdi,-0x18(%rbp)
    8f8a:	48 89 75 e0          	mov    %rsi,-0x20(%rbp)
    8f8e:	48 89 55 d8          	mov    %rdx,-0x28(%rbp)
    8f92:	48 c7 45 f8 00 00 00 	movq   $0x0,-0x8(%rbp)
    8f99:	00 
    8f9a:	eb 2e                	jmp    8fca <_ZN18PageFrameAllocator9FreePagesEPvm+0x50>
    8f9c:	48 8b 45 f8          	mov    -0x8(%rbp),%rax
    8fa0:	48 c1 e0 0c          	shl    $0xc,%rax
    8fa4:	48 89 c2             	mov    %rax,%rdx
    8fa7:	48 8b 45 e0          	mov    -0x20(%rbp),%rax
    8fab:	48 01 d0             	add    %rdx,%rax
    8fae:	48 89 45 f0          	mov    %rax,-0x10(%rbp)
    8fb2:	48 8b 55 f0          	mov    -0x10(%rbp),%rdx
    8fb6:	48 8b 45 e8          	mov    -0x18(%rbp),%rax
    8fba:	48 89 d6             	mov    %rdx,%rsi
    8fbd:	48 89 c7             	mov    %rax,%rdi
    8fc0:	e8 d1 fe ff ff       	call   8e96 <_ZN18PageFrameAllocator8FreePageEPv>
    8fc5:	48 83 45 f8 01       	addq   $0x1,-0x8(%rbp)
    8fca:	48 8b 45 f8          	mov    -0x8(%rbp),%rax
    8fce:	48 3b 45 d8          	cmp    -0x28(%rbp),%rax
    8fd2:	72 c8                	jb     8f9c <_ZN18PageFrameAllocator9FreePagesEPvm+0x22>
    8fd4:	90                   	nop
    8fd5:	90                   	nop
    8fd6:	c9                   	leave
    8fd7:	c3                   	ret

0000000000008fd8 <_ZN18PageFrameAllocator11ReservePageEPv>:
    8fd8:	f3 0f 1e fa          	endbr64
    8fdc:	55                   	push   %rbp
    8fdd:	48 89 e5             	mov    %rsp,%rbp
    8fe0:	53                   	push   %rbx
    8fe1:	48 83 ec 28          	sub    $0x28,%rsp
    8fe5:	48 89 7d d8          	mov    %rdi,-0x28(%rbp)
    8fe9:	48 89 75 d0          	mov    %rsi,-0x30(%rbp)
    8fed:	48 8b 45 d0          	mov    -0x30(%rbp),%rax
    8ff1:	48 c1 e8 0c          	shr    $0xc,%rax
    8ff5:	48 89 45 e8          	mov    %rax,-0x18(%rbp)
    8ff9:	48 8b 45 d8          	mov    -0x28(%rbp),%rax
    8ffd:	48 8d 50 18          	lea    0x18(%rax),%rdx
    9001:	48 8b 45 e8          	mov    -0x18(%rbp),%rax
    9005:	48 89 c6             	mov    %rax,%rsi
    9008:	48 89 d7             	mov    %rdx,%rdi
    900b:	e8 74 f7 ff ff       	call   8784 <_ZN6BitmapixEm>
    9010:	0f b6 c0             	movzbl %al,%eax
    9013:	83 f8 01             	cmp    $0x1,%eax
    9016:	0f 94 c0             	sete   %al
    9019:	84 c0                	test   %al,%al
    901b:	0f 85 95 00 00 00    	jne    90b6 <_ZN18PageFrameAllocator11ReservePageEPv+0xde>
    9021:	48 8b 45 d8          	mov    -0x28(%rbp),%rax
    9025:	48 8d 48 18          	lea    0x18(%rax),%rcx
    9029:	48 8b 45 e8          	mov    -0x18(%rbp),%rax
    902d:	ba 01 00 00 00       	mov    $0x1,%edx
    9032:	48 89 c6             	mov    %rax,%rsi
    9035:	48 89 cf             	mov    %rcx,%rdi
    9038:	e8 0f f8 ff ff       	call   884c <_ZN6Bitmap3SetEmb>
    903d:	84 c0                	test   %al,%al
    903f:	74 30                	je     9071 <_ZN18PageFrameAllocator11ReservePageEPv+0x99>
    9041:	48 8b 45 d8          	mov    -0x28(%rbp),%rax
    9045:	48 8b 40 38          	mov    0x38(%rax),%rax
    9049:	48 8d 90 00 f0 ff ff 	lea    -0x1000(%rax),%rdx
    9050:	48 8b 45 d8          	mov    -0x28(%rbp),%rax
    9054:	48 89 50 38          	mov    %rdx,0x38(%rax)
    9058:	48 8b 45 d8          	mov    -0x28(%rbp),%rax
    905c:	48 8b 40 40          	mov    0x40(%rax),%rax
    9060:	48 8d 90 00 10 00 00 	lea    0x1000(%rax),%rdx
    9067:	48 8b 45 d8          	mov    -0x28(%rbp),%rax
    906b:	48 89 50 40          	mov    %rdx,0x40(%rax)
    906f:	eb 46                	jmp    90b7 <_ZN18PageFrameAllocator11ReservePageEPv+0xdf>
    9071:	48 8b 45 d8          	mov    -0x28(%rbp),%rax
    9075:	48 8b 40 50          	mov    0x50(%rax),%rax
    9079:	ba ff ff ff ff       	mov    $0xffffffff,%edx
    907e:	48 8d 0d cb 50 01 00 	lea    0x150cb(%rip),%rcx        # 1e150 <_ZL4font+0x1090>
    9085:	48 89 ce             	mov    %rcx,%rsi
    9088:	48 89 c7             	mov    %rax,%rdi
    908b:	e8 de 94 ff ff       	call   256e <_ZN12BasicConsole5PrintEPKcj>
    9090:	48 8b 45 d8          	mov    -0x28(%rbp),%rax
    9094:	48 8b 58 50          	mov    0x50(%rax),%rbx
    9098:	48 8b 45 d0          	mov    -0x30(%rbp),%rax
    909c:	48 89 c7             	mov    %rax,%rdi
    909f:	e8 90 15 00 00       	call   a634 <_Z10to_hstringm>
    90a4:	ba ff ff ff ff       	mov    $0xffffffff,%edx
    90a9:	48 89 c6             	mov    %rax,%rsi
    90ac:	48 89 df             	mov    %rbx,%rdi
    90af:	e8 86 95 ff ff       	call   263a <_ZN12BasicConsole7PrintlnEPKcj>
    90b4:	eb 01                	jmp    90b7 <_ZN18PageFrameAllocator11ReservePageEPv+0xdf>
    90b6:	90                   	nop
    90b7:	48 8b 5d f8          	mov    -0x8(%rbp),%rbx
    90bb:	c9                   	leave
    90bc:	c3                   	ret
    90bd:	90                   	nop

00000000000090be <_ZN18PageFrameAllocator12ReservePagesEPvm>:
    90be:	f3 0f 1e fa          	endbr64
    90c2:	55                   	push   %rbp
    90c3:	48 89 e5             	mov    %rsp,%rbp
    90c6:	48 83 ec 30          	sub    $0x30,%rsp
    90ca:	48 89 7d e8          	mov    %rdi,-0x18(%rbp)
    90ce:	48 89 75 e0          	mov    %rsi,-0x20(%rbp)
    90d2:	48 89 55 d8          	mov    %rdx,-0x28(%rbp)
    90d6:	48 c7 45 f8 00 00 00 	movq   $0x0,-0x8(%rbp)
    90dd:	00 
    90de:	eb 2e                	jmp    910e <_ZN18PageFrameAllocator12ReservePagesEPvm+0x50>
    90e0:	48 8b 45 f8          	mov    -0x8(%rbp),%rax
    90e4:	48 c1 e0 0c          	shl    $0xc,%rax
    90e8:	48 89 c2             	mov    %rax,%rdx
    90eb:	48 8b 45 e0          	mov    -0x20(%rbp),%rax
    90ef:	48 01 d0             	add    %rdx,%rax
    90f2:	48 89 45 f0          	mov    %rax,-0x10(%rbp)
    90f6:	48 8b 55 f0          	mov    -0x10(%rbp),%rdx
    90fa:	48 8b 45 e8          	mov    -0x18(%rbp),%rax
    90fe:	48 89 d6             	mov    %rdx,%rsi
    9101:	48 89 c7             	mov    %rax,%rdi
    9104:	e8 cf fe ff ff       	call   8fd8 <_ZN18PageFrameAllocator11ReservePageEPv>
    9109:	48 83 45 f8 01       	addq   $0x1,-0x8(%rbp)
    910e:	48 8b 45 f8          	mov    -0x8(%rbp),%rax
    9112:	48 3b 45 d8          	cmp    -0x28(%rbp),%rax
    9116:	72 c8                	jb     90e0 <_ZN18PageFrameAllocator12ReservePagesEPvm+0x22>
    9118:	90                   	nop
    9119:	90                   	nop
    911a:	c9                   	leave
    911b:	c3                   	ret

000000000000911c <_ZN18PageFrameAllocator13UnReservePageEPv>:
    911c:	f3 0f 1e fa          	endbr64
    9120:	55                   	push   %rbp
    9121:	48 89 e5             	mov    %rsp,%rbp
    9124:	53                   	push   %rbx
    9125:	48 83 ec 28          	sub    $0x28,%rsp
    9129:	48 89 7d d8          	mov    %rdi,-0x28(%rbp)
    912d:	48 89 75 d0          	mov    %rsi,-0x30(%rbp)
    9131:	48 8b 45 d0          	mov    -0x30(%rbp),%rax
    9135:	48 c1 e8 0c          	shr    $0xc,%rax
    9139:	48 89 45 e8          	mov    %rax,-0x18(%rbp)
    913d:	48 8b 45 d8          	mov    -0x28(%rbp),%rax
    9141:	48 8d 50 18          	lea    0x18(%rax),%rdx
    9145:	48 8b 45 e8          	mov    -0x18(%rbp),%rax
    9149:	48 89 c6             	mov    %rax,%rsi
    914c:	48 89 d7             	mov    %rdx,%rdi
    914f:	e8 30 f6 ff ff       	call   8784 <_ZN6BitmapixEm>
    9154:	0f b6 c0             	movzbl %al,%eax
    9157:	85 c0                	test   %eax,%eax
    9159:	0f 94 c0             	sete   %al
    915c:	84 c0                	test   %al,%al
    915e:	0f 85 95 00 00 00    	jne    91f9 <_ZN18PageFrameAllocator13UnReservePageEPv+0xdd>
    9164:	48 8b 45 d8          	mov    -0x28(%rbp),%rax
    9168:	48 8d 48 18          	lea    0x18(%rax),%rcx
    916c:	48 8b 45 e8          	mov    -0x18(%rbp),%rax
    9170:	ba 00 00 00 00       	mov    $0x0,%edx
    9175:	48 89 c6             	mov    %rax,%rsi
    9178:	48 89 cf             	mov    %rcx,%rdi
    917b:	e8 cc f6 ff ff       	call   884c <_ZN6Bitmap3SetEmb>
    9180:	84 c0                	test   %al,%al
    9182:	74 30                	je     91b4 <_ZN18PageFrameAllocator13UnReservePageEPv+0x98>
    9184:	48 8b 45 d8          	mov    -0x28(%rbp),%rax
    9188:	48 8b 40 38          	mov    0x38(%rax),%rax
    918c:	48 8d 90 00 10 00 00 	lea    0x1000(%rax),%rdx
    9193:	48 8b 45 d8          	mov    -0x28(%rbp),%rax
    9197:	48 89 50 38          	mov    %rdx,0x38(%rax)
    919b:	48 8b 45 d8          	mov    -0x28(%rbp),%rax
    919f:	48 8b 40 40          	mov    0x40(%rax),%rax
    91a3:	48 8d 90 00 f0 ff ff 	lea    -0x1000(%rax),%rdx
    91aa:	48 8b 45 d8          	mov    -0x28(%rbp),%rax
    91ae:	48 89 50 40          	mov    %rdx,0x40(%rax)
    91b2:	eb 46                	jmp    91fa <_ZN18PageFrameAllocator13UnReservePageEPv+0xde>
    91b4:	48 8b 45 d8          	mov    -0x28(%rbp),%rax
    91b8:	48 8b 40 50          	mov    0x50(%rax),%rax
    91bc:	ba ff ff ff ff       	mov    $0xffffffff,%edx
    91c1:	48 8d 0d b0 4f 01 00 	lea    0x14fb0(%rip),%rcx        # 1e178 <_ZL4font+0x10b8>
    91c8:	48 89 ce             	mov    %rcx,%rsi
    91cb:	48 89 c7             	mov    %rax,%rdi
    91ce:	e8 9b 93 ff ff       	call   256e <_ZN12BasicConsole5PrintEPKcj>
    91d3:	48 8b 45 d8          	mov    -0x28(%rbp),%rax
    91d7:	48 8b 58 50          	mov    0x50(%rax),%rbx
    91db:	48 8b 45 d0          	mov    -0x30(%rbp),%rax
    91df:	48 89 c7             	mov    %rax,%rdi
    91e2:	e8 4d 14 00 00       	call   a634 <_Z10to_hstringm>
    91e7:	ba ff ff ff ff       	mov    $0xffffffff,%edx
    91ec:	48 89 c6             	mov    %rax,%rsi
    91ef:	48 89 df             	mov    %rbx,%rdi
    91f2:	e8 43 94 ff ff       	call   263a <_ZN12BasicConsole7PrintlnEPKcj>
    91f7:	eb 01                	jmp    91fa <_ZN18PageFrameAllocator13UnReservePageEPv+0xde>
    91f9:	90                   	nop
    91fa:	48 8b 5d f8          	mov    -0x8(%rbp),%rbx
    91fe:	c9                   	leave
    91ff:	c3                   	ret

0000000000009200 <_ZN18PageFrameAllocator14UnReservePagesEPvm>:
    9200:	f3 0f 1e fa          	endbr64
    9204:	55                   	push   %rbp
    9205:	48 89 e5             	mov    %rsp,%rbp
    9208:	48 83 ec 30          	sub    $0x30,%rsp
    920c:	48 89 7d e8          	mov    %rdi,-0x18(%rbp)
    9210:	48 89 75 e0          	mov    %rsi,-0x20(%rbp)
    9214:	48 89 55 d8          	mov    %rdx,-0x28(%rbp)
    9218:	48 c7 45 f8 00 00 00 	movq   $0x0,-0x8(%rbp)
    921f:	00 
    9220:	eb 2e                	jmp    9250 <_ZN18PageFrameAllocator14UnReservePagesEPvm+0x50>
    9222:	48 8b 45 f8          	mov    -0x8(%rbp),%rax
    9226:	48 c1 e0 0c          	shl    $0xc,%rax
    922a:	48 89 c2             	mov    %rax,%rdx
    922d:	48 8b 45 e0          	mov    -0x20(%rbp),%rax
    9231:	48 01 d0             	add    %rdx,%rax
    9234:	48 89 45 f0          	mov    %rax,-0x10(%rbp)
    9238:	48 8b 55 f0          	mov    -0x10(%rbp),%rdx
    923c:	48 8b 45 e8          	mov    -0x18(%rbp),%rax
    9240:	48 89 d6             	mov    %rdx,%rsi
    9243:	48 89 c7             	mov    %rax,%rdi
    9246:	e8 d1 fe ff ff       	call   911c <_ZN18PageFrameAllocator13UnReservePageEPv>
    924b:	48 83 45 f8 01       	addq   $0x1,-0x8(%rbp)
    9250:	48 8b 45 f8          	mov    -0x8(%rbp),%rax
    9254:	48 3b 45 d8          	cmp    -0x28(%rbp),%rax
    9258:	72 c8                	jb     9222 <_ZN18PageFrameAllocator14UnReservePagesEPvm+0x22>
    925a:	90                   	nop
    925b:	90                   	nop
    925c:	c9                   	leave
    925d:	c3                   	ret

000000000000925e <_ZN18PageFrameAllocator10GetFreeRAMEv>:
    925e:	f3 0f 1e fa          	endbr64
    9262:	55                   	push   %rbp
    9263:	48 89 e5             	mov    %rsp,%rbp
    9266:	48 89 7d f8          	mov    %rdi,-0x8(%rbp)
    926a:	48 8b 45 f8          	mov    -0x8(%rbp),%rax
    926e:	48 8b 40 38          	mov    0x38(%rax),%rax
    9272:	5d                   	pop    %rbp
    9273:	c3                   	ret

0000000000009274 <_ZN18PageFrameAllocator10GetUsedRAMEv>:
    9274:	f3 0f 1e fa          	endbr64
    9278:	55                   	push   %rbp
    9279:	48 89 e5             	mov    %rsp,%rbp
    927c:	48 89 7d f8          	mov    %rdi,-0x8(%rbp)
    9280:	48 8b 45 f8          	mov    -0x8(%rbp),%rax
    9284:	48 8b 40 48          	mov    0x48(%rax),%rax
    9288:	5d                   	pop    %rbp
    9289:	c3                   	ret

000000000000928a <_ZN18PageFrameAllocator14GetReservedRAMEv>:
    928a:	f3 0f 1e fa          	endbr64
    928e:	55                   	push   %rbp
    928f:	48 89 e5             	mov    %rsp,%rbp
    9292:	48 89 7d f8          	mov    %rdi,-0x8(%rbp)
    9296:	48 8b 45 f8          	mov    -0x8(%rbp),%rax
    929a:	48 8b 40 40          	mov    0x40(%rax),%rax
    929e:	5d                   	pop    %rbp
    929f:	c3                   	ret

00000000000092a0 <_ZN18PageFrameAllocator11RequestPageEv>:
    92a0:	f3 0f 1e fa          	endbr64
    92a4:	55                   	push   %rbp
    92a5:	48 89 e5             	mov    %rsp,%rbp
    92a8:	48 83 ec 20          	sub    $0x20,%rsp
    92ac:	48 89 7d e8          	mov    %rdi,-0x18(%rbp)
    92b0:	48 c7 45 f8 00 00 00 	movq   $0x0,-0x8(%rbp)
    92b7:	00 
    92b8:	eb 4e                	jmp    9308 <_ZN18PageFrameAllocator11RequestPageEv+0x68>
    92ba:	48 8b 45 e8          	mov    -0x18(%rbp),%rax
    92be:	48 8d 50 18          	lea    0x18(%rax),%rdx
    92c2:	48 8b 45 f8          	mov    -0x8(%rbp),%rax
    92c6:	48 89 c6             	mov    %rax,%rsi
    92c9:	48 89 d7             	mov    %rdx,%rdi
    92cc:	e8 b3 f4 ff ff       	call   8784 <_ZN6BitmapixEm>
    92d1:	0f b6 c0             	movzbl %al,%eax
    92d4:	83 f8 01             	cmp    $0x1,%eax
    92d7:	0f 94 c0             	sete   %al
    92da:	84 c0                	test   %al,%al
    92dc:	75 24                	jne    9302 <_ZN18PageFrameAllocator11RequestPageEv+0x62>
    92de:	48 8b 45 f8          	mov    -0x8(%rbp),%rax
    92e2:	48 c1 e0 0c          	shl    $0xc,%rax
    92e6:	48 89 c2             	mov    %rax,%rdx
    92e9:	48 8b 45 e8          	mov    -0x18(%rbp),%rax
    92ed:	48 89 d6             	mov    %rdx,%rsi
    92f0:	48 89 c7             	mov    %rax,%rdi
    92f3:	e8 5a fa ff ff       	call   8d52 <_ZN18PageFrameAllocator8LockPageEPv>
    92f8:	48 8b 45 f8          	mov    -0x8(%rbp),%rax
    92fc:	48 c1 e0 0c          	shl    $0xc,%rax
    9300:	eb 1d                	jmp    931f <_ZN18PageFrameAllocator11RequestPageEv+0x7f>
    9302:	90                   	nop
    9303:	48 83 45 f8 01       	addq   $0x1,-0x8(%rbp)
    9308:	48 8b 45 e8          	mov    -0x18(%rbp),%rax
    930c:	48 8b 40 20          	mov    0x20(%rax),%rax
    9310:	48 c1 e0 03          	shl    $0x3,%rax
    9314:	48 39 45 f8          	cmp    %rax,-0x8(%rbp)
    9318:	72 a0                	jb     92ba <_ZN18PageFrameAllocator11RequestPageEv+0x1a>
    931a:	b8 00 00 00 00       	mov    $0x0,%eax
    931f:	c9                   	leave
    9320:	c3                   	ret
    9321:	90                   	nop

0000000000009322 <_ZN16PageTableManager10InitializeEP9PageTableP18PageFrameAllocatorP12BasicConsole>:
    9322:	f3 0f 1e fa          	endbr64
    9326:	55                   	push   %rbp
    9327:	48 89 e5             	mov    %rsp,%rbp
    932a:	48 89 7d f8          	mov    %rdi,-0x8(%rbp)
    932e:	48 89 75 f0          	mov    %rsi,-0x10(%rbp)
    9332:	48 89 55 e8          	mov    %rdx,-0x18(%rbp)
    9336:	48 89 4d e0          	mov    %rcx,-0x20(%rbp)
    933a:	48 8b 45 f8          	mov    -0x8(%rbp),%rax
    933e:	48 8b 55 f0          	mov    -0x10(%rbp),%rdx
    9342:	48 89 50 08          	mov    %rdx,0x8(%rax)
    9346:	48 8b 45 f8          	mov    -0x8(%rbp),%rax
    934a:	48 8b 55 e8          	mov    -0x18(%rbp),%rdx
    934e:	48 89 10             	mov    %rdx,(%rax)
    9351:	48 8b 45 f8          	mov    -0x8(%rbp),%rax
    9355:	48 8b 55 e0          	mov    -0x20(%rbp),%rdx
    9359:	48 89 50 10          	mov    %rdx,0x10(%rax)
    935d:	48 8b 45 f8          	mov    -0x8(%rbp),%rax
    9361:	c6 40 18 01          	movb   $0x1,0x18(%rax)
    9365:	90                   	nop
    9366:	5d                   	pop    %rbp
    9367:	c3                   	ret

0000000000009368 <_ZN16PageTableManager9MapMemoryEPvS0_b>:
    9368:	f3 0f 1e fa          	endbr64
    936c:	55                   	push   %rbp
    936d:	48 89 e5             	mov    %rsp,%rbp
    9370:	48 83 ec 70          	sub    $0x70,%rsp
    9374:	48 89 7d a8          	mov    %rdi,-0x58(%rbp)
    9378:	48 89 75 a0          	mov    %rsi,-0x60(%rbp)
    937c:	48 89 55 98          	mov    %rdx,-0x68(%rbp)
    9380:	89 c8                	mov    %ecx,%eax
    9382:	88 45 94             	mov    %al,-0x6c(%rbp)
    9385:	48 8b 45 a8          	mov    -0x58(%rbp),%rax
    9389:	0f b6 40 18          	movzbl 0x18(%rax),%eax
    938d:	83 f0 01             	xor    $0x1,%eax
    9390:	84 c0                	test   %al,%al
    9392:	74 43                	je     93d7 <_ZN16PageTableManager9MapMemoryEPvS0_b+0x6f>
    9394:	48 8b 45 a8          	mov    -0x58(%rbp),%rax
    9398:	48 8b 40 10          	mov    0x10(%rax),%rax
    939c:	ba ff ff ff ff       	mov    $0xffffffff,%edx
    93a1:	48 8d 0d f8 5d 01 00 	lea    0x15df8(%rip),%rcx        # 1f1a0 <_ZL4font+0x1000>
    93a8:	48 89 ce             	mov    %rcx,%rsi
    93ab:	48 89 c7             	mov    %rax,%rdi
    93ae:	e8 87 92 ff ff       	call   263a <_ZN12BasicConsole7PrintlnEPKcj>
    93b3:	48 8b 45 a8          	mov    -0x58(%rbp),%rax
    93b7:	48 8b 40 10          	mov    0x10(%rax),%rax
    93bb:	ba ff ff ff ff       	mov    $0xffffffff,%edx
    93c0:	48 8d 0d 0e 5e 01 00 	lea    0x15e0e(%rip),%rcx        # 1f1d5 <_ZL4font+0x1035>
    93c7:	48 89 ce             	mov    %rcx,%rsi
    93ca:	48 89 c7             	mov    %rax,%rdi
    93cd:	e8 68 92 ff ff       	call   263a <_ZN12BasicConsole7PrintlnEPKcj>
    93d2:	e9 99 03 00 00       	jmp    9770 <_ZN16PageTableManager9MapMemoryEPvS0_b+0x408>
    93d7:	48 8b 55 a0          	mov    -0x60(%rbp),%rdx
    93db:	48 8d 45 c0          	lea    -0x40(%rbp),%rax
    93df:	48 89 d6             	mov    %rdx,%rsi
    93e2:	48 89 c7             	mov    %rax,%rdi
    93e5:	e8 3c 05 00 00       	call   9926 <_ZN14PageMapIndexerC1Em>
    93ea:	c6 45 ff 00          	movb   $0x0,-0x1(%rbp)
    93ee:	c6 45 fe 00          	movb   $0x0,-0x2(%rbp)
    93f2:	c6 45 fd 00          	movb   $0x0,-0x3(%rbp)
    93f6:	48 8b 45 a8          	mov    -0x58(%rbp),%rax
    93fa:	48 8b 40 08          	mov    0x8(%rax),%rax
    93fe:	48 8b 55 c0          	mov    -0x40(%rbp),%rdx
    9402:	48 8b 04 d0          	mov    (%rax,%rdx,8),%rax
    9406:	48 89 45 b8          	mov    %rax,-0x48(%rbp)
    940a:	48 8d 45 b8          	lea    -0x48(%rbp),%rax
    940e:	be 00 00 00 00       	mov    $0x0,%esi
    9413:	48 89 c7             	mov    %rax,%rdi
    9416:	e8 df 05 00 00       	call   99fa <_ZN18PageDirectoryEntry7GetFlagE7PT_Flag>
    941b:	83 f0 01             	xor    $0x1,%eax
    941e:	84 c0                	test   %al,%al
    9420:	0f 84 89 00 00 00    	je     94af <_ZN16PageTableManager9MapMemoryEPvS0_b+0x147>
    9426:	48 8b 45 a8          	mov    -0x58(%rbp),%rax
    942a:	48 8b 00             	mov    (%rax),%rax
    942d:	48 89 c7             	mov    %rax,%rdi
    9430:	e8 6b fe ff ff       	call   92a0 <_ZN18PageFrameAllocator11RequestPageEv>
    9435:	48 89 45 f0          	mov    %rax,-0x10(%rbp)
    9439:	48 8b 45 f0          	mov    -0x10(%rbp),%rax
    943d:	ba 00 10 00 00       	mov    $0x1000,%edx
    9442:	be 00 00 00 00       	mov    $0x0,%esi
    9447:	48 89 c7             	mov    %rax,%rdi
    944a:	e8 ce f5 ff ff       	call   8a1d <_Z6memsetPvhm>
    944f:	48 8b 45 f0          	mov    -0x10(%rbp),%rax
    9453:	48 c1 e8 0c          	shr    $0xc,%rax
    9457:	48 89 c2             	mov    %rax,%rdx
    945a:	48 8d 45 b8          	lea    -0x48(%rbp),%rax
    945e:	48 89 d6             	mov    %rdx,%rsi
    9461:	48 89 c7             	mov    %rax,%rdi
    9464:	e8 fb 05 00 00       	call   9a64 <_ZN18PageDirectoryEntry10SetAddressEm>
    9469:	48 8d 45 b8          	lea    -0x48(%rbp),%rax
    946d:	ba 01 00 00 00       	mov    $0x1,%edx
    9472:	be 00 00 00 00       	mov    $0x0,%esi
    9477:	48 89 c7             	mov    %rax,%rdi
    947a:	e8 1d 05 00 00       	call   999c <_ZN18PageDirectoryEntry7SetFlagE7PT_Flagb>
    947f:	48 8d 45 b8          	lea    -0x48(%rbp),%rax
    9483:	ba 01 00 00 00       	mov    $0x1,%edx
    9488:	be 01 00 00 00       	mov    $0x1,%esi
    948d:	48 89 c7             	mov    %rax,%rdi
    9490:	e8 07 05 00 00       	call   999c <_ZN18PageDirectoryEntry7SetFlagE7PT_Flagb>
    9495:	48 8b 45 a8          	mov    -0x58(%rbp),%rax
    9499:	48 8b 40 08          	mov    0x8(%rax),%rax
    949d:	48 8b 55 c0          	mov    -0x40(%rbp),%rdx
    94a1:	48 8b 4d b8          	mov    -0x48(%rbp),%rcx
    94a5:	48 89 0c d0          	mov    %rcx,(%rax,%rdx,8)
    94a9:	c6 45 ff 01          	movb   $0x1,-0x1(%rbp)
    94ad:	eb 14                	jmp    94c3 <_ZN16PageTableManager9MapMemoryEPvS0_b+0x15b>
    94af:	48 8d 45 b8          	lea    -0x48(%rbp),%rax
    94b3:	48 89 c7             	mov    %rax,%rdi
    94b6:	e8 7f 05 00 00       	call   9a3a <_ZN18PageDirectoryEntry10GetAddressEv>
    94bb:	48 c1 e0 0c          	shl    $0xc,%rax
    94bf:	48 89 45 f0          	mov    %rax,-0x10(%rbp)
    94c3:	48 8b 55 c8          	mov    -0x38(%rbp),%rdx
    94c7:	48 8b 45 f0          	mov    -0x10(%rbp),%rax
    94cb:	48 8b 04 d0          	mov    (%rax,%rdx,8),%rax
    94cf:	48 89 45 b8          	mov    %rax,-0x48(%rbp)
    94d3:	48 8d 45 b8          	lea    -0x48(%rbp),%rax
    94d7:	be 00 00 00 00       	mov    $0x0,%esi
    94dc:	48 89 c7             	mov    %rax,%rdi
    94df:	e8 16 05 00 00       	call   99fa <_ZN18PageDirectoryEntry7GetFlagE7PT_Flag>
    94e4:	83 f0 01             	xor    $0x1,%eax
    94e7:	84 c0                	test   %al,%al
    94e9:	0f 84 85 00 00 00    	je     9574 <_ZN16PageTableManager9MapMemoryEPvS0_b+0x20c>
    94ef:	48 8b 45 a8          	mov    -0x58(%rbp),%rax
    94f3:	48 8b 00             	mov    (%rax),%rax
    94f6:	48 89 c7             	mov    %rax,%rdi
    94f9:	e8 a2 fd ff ff       	call   92a0 <_ZN18PageFrameAllocator11RequestPageEv>
    94fe:	48 89 45 e8          	mov    %rax,-0x18(%rbp)
    9502:	48 8b 45 e8          	mov    -0x18(%rbp),%rax
    9506:	ba 00 10 00 00       	mov    $0x1000,%edx
    950b:	be 00 00 00 00       	mov    $0x0,%esi
    9510:	48 89 c7             	mov    %rax,%rdi
    9513:	e8 05 f5 ff ff       	call   8a1d <_Z6memsetPvhm>
    9518:	48 8b 45 e8          	mov    -0x18(%rbp),%rax
    951c:	48 c1 e8 0c          	shr    $0xc,%rax
    9520:	48 89 c2             	mov    %rax,%rdx
    9523:	48 8d 45 b8          	lea    -0x48(%rbp),%rax
    9527:	48 89 d6             	mov    %rdx,%rsi
    952a:	48 89 c7             	mov    %rax,%rdi
    952d:	e8 32 05 00 00       	call   9a64 <_ZN18PageDirectoryEntry10SetAddressEm>
    9532:	48 8d 45 b8          	lea    -0x48(%rbp),%rax
    9536:	ba 01 00 00 00       	mov    $0x1,%edx
    953b:	be 00 00 00 00       	mov    $0x0,%esi
    9540:	48 89 c7             	mov    %rax,%rdi
    9543:	e8 54 04 00 00       	call   999c <_ZN18PageDirectoryEntry7SetFlagE7PT_Flagb>
    9548:	48 8d 45 b8          	lea    -0x48(%rbp),%rax
    954c:	ba 01 00 00 00       	mov    $0x1,%edx
    9551:	be 01 00 00 00       	mov    $0x1,%esi
    9556:	48 89 c7             	mov    %rax,%rdi
    9559:	e8 3e 04 00 00       	call   999c <_ZN18PageDirectoryEntry7SetFlagE7PT_Flagb>
    955e:	48 8b 55 c8          	mov    -0x38(%rbp),%rdx
    9562:	48 8b 45 f0          	mov    -0x10(%rbp),%rax
    9566:	48 8b 4d b8          	mov    -0x48(%rbp),%rcx
    956a:	48 89 0c d0          	mov    %rcx,(%rax,%rdx,8)
    956e:	c6 45 fe 01          	movb   $0x1,-0x2(%rbp)
    9572:	eb 14                	jmp    9588 <_ZN16PageTableManager9MapMemoryEPvS0_b+0x220>
    9574:	48 8d 45 b8          	lea    -0x48(%rbp),%rax
    9578:	48 89 c7             	mov    %rax,%rdi
    957b:	e8 ba 04 00 00       	call   9a3a <_ZN18PageDirectoryEntry10GetAddressEv>
    9580:	48 c1 e0 0c          	shl    $0xc,%rax
    9584:	48 89 45 e8          	mov    %rax,-0x18(%rbp)
    9588:	48 8b 55 d0          	mov    -0x30(%rbp),%rdx
    958c:	48 8b 45 e8          	mov    -0x18(%rbp),%rax
    9590:	48 8b 04 d0          	mov    (%rax,%rdx,8),%rax
    9594:	48 89 45 b8          	mov    %rax,-0x48(%rbp)
    9598:	48 8d 45 b8          	lea    -0x48(%rbp),%rax
    959c:	be 00 00 00 00       	mov    $0x0,%esi
    95a1:	48 89 c7             	mov    %rax,%rdi
    95a4:	e8 51 04 00 00       	call   99fa <_ZN18PageDirectoryEntry7GetFlagE7PT_Flag>
    95a9:	83 f0 01             	xor    $0x1,%eax
    95ac:	84 c0                	test   %al,%al
    95ae:	0f 84 85 00 00 00    	je     9639 <_ZN16PageTableManager9MapMemoryEPvS0_b+0x2d1>
    95b4:	48 8b 45 a8          	mov    -0x58(%rbp),%rax
    95b8:	48 8b 00             	mov    (%rax),%rax
    95bb:	48 89 c7             	mov    %rax,%rdi
    95be:	e8 dd fc ff ff       	call   92a0 <_ZN18PageFrameAllocator11RequestPageEv>
    95c3:	48 89 45 e0          	mov    %rax,-0x20(%rbp)
    95c7:	48 8b 45 e0          	mov    -0x20(%rbp),%rax
    95cb:	ba 00 10 00 00       	mov    $0x1000,%edx
    95d0:	be 00 00 00 00       	mov    $0x0,%esi
    95d5:	48 89 c7             	mov    %rax,%rdi
    95d8:	e8 40 f4 ff ff       	call   8a1d <_Z6memsetPvhm>
    95dd:	48 8b 45 e0          	mov    -0x20(%rbp),%rax
    95e1:	48 c1 e8 0c          	shr    $0xc,%rax
    95e5:	48 89 c2             	mov    %rax,%rdx
    95e8:	48 8d 45 b8          	lea    -0x48(%rbp),%rax
    95ec:	48 89 d6             	mov    %rdx,%rsi
    95ef:	48 89 c7             	mov    %rax,%rdi
    95f2:	e8 6d 04 00 00       	call   9a64 <_ZN18PageDirectoryEntry10SetAddressEm>
    95f7:	48 8d 45 b8          	lea    -0x48(%rbp),%rax
    95fb:	ba 01 00 00 00       	mov    $0x1,%edx
    9600:	be 00 00 00 00       	mov    $0x0,%esi
    9605:	48 89 c7             	mov    %rax,%rdi
    9608:	e8 8f 03 00 00       	call   999c <_ZN18PageDirectoryEntry7SetFlagE7PT_Flagb>
    960d:	48 8d 45 b8          	lea    -0x48(%rbp),%rax
    9611:	ba 01 00 00 00       	mov    $0x1,%edx
    9616:	be 01 00 00 00       	mov    $0x1,%esi
    961b:	48 89 c7             	mov    %rax,%rdi
    961e:	e8 79 03 00 00       	call   999c <_ZN18PageDirectoryEntry7SetFlagE7PT_Flagb>
    9623:	48 8b 55 d0          	mov    -0x30(%rbp),%rdx
    9627:	48 8b 45 e8          	mov    -0x18(%rbp),%rax
    962b:	48 8b 4d b8          	mov    -0x48(%rbp),%rcx
    962f:	48 89 0c d0          	mov    %rcx,(%rax,%rdx,8)
    9633:	c6 45 fd 01          	movb   $0x1,-0x3(%rbp)
    9637:	eb 14                	jmp    964d <_ZN16PageTableManager9MapMemoryEPvS0_b+0x2e5>
    9639:	48 8d 45 b8          	lea    -0x48(%rbp),%rax
    963d:	48 89 c7             	mov    %rax,%rdi
    9640:	e8 f5 03 00 00       	call   9a3a <_ZN18PageDirectoryEntry10GetAddressEv>
    9645:	48 c1 e0 0c          	shl    $0xc,%rax
    9649:	48 89 45 e0          	mov    %rax,-0x20(%rbp)
    964d:	48 8b 55 d8          	mov    -0x28(%rbp),%rdx
    9651:	48 8b 45 e0          	mov    -0x20(%rbp),%rax
    9655:	48 8b 04 d0          	mov    (%rax,%rdx,8),%rax
    9659:	48 89 45 b8          	mov    %rax,-0x48(%rbp)
    965d:	48 8b 45 98          	mov    -0x68(%rbp),%rax
    9661:	48 c1 e8 0c          	shr    $0xc,%rax
    9665:	48 89 c2             	mov    %rax,%rdx
    9668:	48 8d 45 b8          	lea    -0x48(%rbp),%rax
    966c:	48 89 d6             	mov    %rdx,%rsi
    966f:	48 89 c7             	mov    %rax,%rdi
    9672:	e8 ed 03 00 00       	call   9a64 <_ZN18PageDirectoryEntry10SetAddressEm>
    9677:	48 8d 45 b8          	lea    -0x48(%rbp),%rax
    967b:	ba 01 00 00 00       	mov    $0x1,%edx
    9680:	be 00 00 00 00       	mov    $0x0,%esi
    9685:	48 89 c7             	mov    %rax,%rdi
    9688:	e8 0f 03 00 00       	call   999c <_ZN18PageDirectoryEntry7SetFlagE7PT_Flagb>
    968d:	48 8d 45 b8          	lea    -0x48(%rbp),%rax
    9691:	ba 01 00 00 00       	mov    $0x1,%edx
    9696:	be 01 00 00 00       	mov    $0x1,%esi
    969b:	48 89 c7             	mov    %rax,%rdi
    969e:	e8 f9 02 00 00       	call   999c <_ZN18PageDirectoryEntry7SetFlagE7PT_Flagb>
    96a3:	80 7d 94 00          	cmpb   $0x0,-0x6c(%rbp)
    96a7:	74 2e                	je     96d7 <_ZN16PageTableManager9MapMemoryEPvS0_b+0x36f>
    96a9:	48 8d 45 b8          	lea    -0x48(%rbp),%rax
    96ad:	ba 00 00 00 00       	mov    $0x0,%edx
    96b2:	be 03 00 00 00       	mov    $0x3,%esi
    96b7:	48 89 c7             	mov    %rax,%rdi
    96ba:	e8 dd 02 00 00       	call   999c <_ZN18PageDirectoryEntry7SetFlagE7PT_Flagb>
    96bf:	48 8d 45 b8          	lea    -0x48(%rbp),%rax
    96c3:	ba 00 00 00 00       	mov    $0x0,%edx
    96c8:	be 04 00 00 00       	mov    $0x4,%esi
    96cd:	48 89 c7             	mov    %rax,%rdi
    96d0:	e8 c7 02 00 00       	call   999c <_ZN18PageDirectoryEntry7SetFlagE7PT_Flagb>
    96d5:	eb 2c                	jmp    9703 <_ZN16PageTableManager9MapMemoryEPvS0_b+0x39b>
    96d7:	48 8d 45 b8          	lea    -0x48(%rbp),%rax
    96db:	ba 01 00 00 00       	mov    $0x1,%edx
    96e0:	be 03 00 00 00       	mov    $0x3,%esi
    96e5:	48 89 c7             	mov    %rax,%rdi
    96e8:	e8 af 02 00 00       	call   999c <_ZN18PageDirectoryEntry7SetFlagE7PT_Flagb>
    96ed:	48 8d 45 b8          	lea    -0x48(%rbp),%rax
    96f1:	ba 01 00 00 00       	mov    $0x1,%edx
    96f6:	be 04 00 00 00       	mov    $0x4,%esi
    96fb:	48 89 c7             	mov    %rax,%rdi
    96fe:	e8 99 02 00 00       	call   999c <_ZN18PageDirectoryEntry7SetFlagE7PT_Flagb>
    9703:	48 8b 55 d8          	mov    -0x28(%rbp),%rdx
    9707:	48 8b 45 e0          	mov    -0x20(%rbp),%rax
    970b:	48 8b 4d b8          	mov    -0x48(%rbp),%rcx
    970f:	48 89 0c d0          	mov    %rcx,(%rax,%rdx,8)
    9713:	80 7d ff 00          	cmpb   $0x0,-0x1(%rbp)
    9717:	74 19                	je     9732 <_ZN16PageTableManager9MapMemoryEPvS0_b+0x3ca>
    9719:	48 8b 55 f0          	mov    -0x10(%rbp),%rdx
    971d:	48 8b 75 f0          	mov    -0x10(%rbp),%rsi
    9721:	48 8b 45 a8          	mov    -0x58(%rbp),%rax
    9725:	b9 01 00 00 00       	mov    $0x1,%ecx
    972a:	48 89 c7             	mov    %rax,%rdi
    972d:	e8 36 fc ff ff       	call   9368 <_ZN16PageTableManager9MapMemoryEPvS0_b>
    9732:	80 7d fe 00          	cmpb   $0x0,-0x2(%rbp)
    9736:	74 19                	je     9751 <_ZN16PageTableManager9MapMemoryEPvS0_b+0x3e9>
    9738:	48 8b 55 e8          	mov    -0x18(%rbp),%rdx
    973c:	48 8b 75 e8          	mov    -0x18(%rbp),%rsi
    9740:	48 8b 45 a8          	mov    -0x58(%rbp),%rax
    9744:	b9 01 00 00 00       	mov    $0x1,%ecx
    9749:	48 89 c7             	mov    %rax,%rdi
    974c:	e8 17 fc ff ff       	call   9368 <_ZN16PageTableManager9MapMemoryEPvS0_b>
    9751:	80 7d fd 00          	cmpb   $0x0,-0x3(%rbp)
    9755:	74 19                	je     9770 <_ZN16PageTableManager9MapMemoryEPvS0_b+0x408>
    9757:	48 8b 55 e0          	mov    -0x20(%rbp),%rdx
    975b:	48 8b 75 e0          	mov    -0x20(%rbp),%rsi
    975f:	48 8b 45 a8          	mov    -0x58(%rbp),%rax
    9763:	b9 01 00 00 00       	mov    $0x1,%ecx
    9768:	48 89 c7             	mov    %rax,%rdi
    976b:	e8 f8 fb ff ff       	call   9368 <_ZN16PageTableManager9MapMemoryEPvS0_b>
    9770:	c9                   	leave
    9771:	c3                   	ret

0000000000009772 <_ZN16PageTableManager11UnmapMemoryEPv>:
    9772:	f3 0f 1e fa          	endbr64
    9776:	55                   	push   %rbp
    9777:	48 89 e5             	mov    %rsp,%rbp
    977a:	48 83 ec 60          	sub    $0x60,%rsp
    977e:	48 89 7d a8          	mov    %rdi,-0x58(%rbp)
    9782:	48 89 75 a0          	mov    %rsi,-0x60(%rbp)
    9786:	48 8b 45 a8          	mov    -0x58(%rbp),%rax
    978a:	0f b6 40 18          	movzbl 0x18(%rax),%eax
    978e:	83 f0 01             	xor    $0x1,%eax
    9791:	84 c0                	test   %al,%al
    9793:	74 24                	je     97b9 <_ZN16PageTableManager11UnmapMemoryEPv+0x47>
    9795:	48 8b 45 a8          	mov    -0x58(%rbp),%rax
    9799:	48 8b 40 10          	mov    0x10(%rax),%rax
    979d:	ba ff ff ff ff       	mov    $0xffffffff,%edx
    97a2:	48 8d 0d 47 5a 01 00 	lea    0x15a47(%rip),%rcx        # 1f1f0 <_ZL4font+0x1050>
    97a9:	48 89 ce             	mov    %rcx,%rsi
    97ac:	48 89 c7             	mov    %rax,%rdi
    97af:	e8 86 8e ff ff       	call   263a <_ZN12BasicConsole7PrintlnEPKcj>
    97b4:	e9 26 01 00 00       	jmp    98df <_ZN16PageTableManager11UnmapMemoryEPv+0x16d>
    97b9:	48 8b 55 a0          	mov    -0x60(%rbp),%rdx
    97bd:	48 8d 45 c0          	lea    -0x40(%rbp),%rax
    97c1:	48 89 d6             	mov    %rdx,%rsi
    97c4:	48 89 c7             	mov    %rax,%rdi
    97c7:	e8 5a 01 00 00       	call   9926 <_ZN14PageMapIndexerC1Em>
    97cc:	48 8b 45 a8          	mov    -0x58(%rbp),%rax
    97d0:	48 8b 40 08          	mov    0x8(%rax),%rax
    97d4:	48 8b 55 c0          	mov    -0x40(%rbp),%rdx
    97d8:	48 8b 04 d0          	mov    (%rax,%rdx,8),%rax
    97dc:	48 89 45 b8          	mov    %rax,-0x48(%rbp)
    97e0:	48 8d 45 b8          	lea    -0x48(%rbp),%rax
    97e4:	be 00 00 00 00       	mov    $0x0,%esi
    97e9:	48 89 c7             	mov    %rax,%rdi
    97ec:	e8 09 02 00 00       	call   99fa <_ZN18PageDirectoryEntry7GetFlagE7PT_Flag>
    97f1:	83 f0 01             	xor    $0x1,%eax
    97f4:	84 c0                	test   %al,%al
    97f6:	0f 85 d9 00 00 00    	jne    98d5 <_ZN16PageTableManager11UnmapMemoryEPv+0x163>
    97fc:	48 8d 45 b8          	lea    -0x48(%rbp),%rax
    9800:	48 89 c7             	mov    %rax,%rdi
    9803:	e8 32 02 00 00       	call   9a3a <_ZN18PageDirectoryEntry10GetAddressEv>
    9808:	48 c1 e0 0c          	shl    $0xc,%rax
    980c:	48 89 45 f8          	mov    %rax,-0x8(%rbp)
    9810:	48 8b 55 c8          	mov    -0x38(%rbp),%rdx
    9814:	48 8b 45 f8          	mov    -0x8(%rbp),%rax
    9818:	48 8b 04 d0          	mov    (%rax,%rdx,8),%rax
    981c:	48 89 45 b8          	mov    %rax,-0x48(%rbp)
    9820:	48 8d 45 b8          	lea    -0x48(%rbp),%rax
    9824:	be 00 00 00 00       	mov    $0x0,%esi
    9829:	48 89 c7             	mov    %rax,%rdi
    982c:	e8 c9 01 00 00       	call   99fa <_ZN18PageDirectoryEntry7GetFlagE7PT_Flag>
    9831:	83 f0 01             	xor    $0x1,%eax
    9834:	84 c0                	test   %al,%al
    9836:	0f 85 9c 00 00 00    	jne    98d8 <_ZN16PageTableManager11UnmapMemoryEPv+0x166>
    983c:	48 8d 45 b8          	lea    -0x48(%rbp),%rax
    9840:	48 89 c7             	mov    %rax,%rdi
    9843:	e8 f2 01 00 00       	call   9a3a <_ZN18PageDirectoryEntry10GetAddressEv>
    9848:	48 c1 e0 0c          	shl    $0xc,%rax
    984c:	48 89 45 f0          	mov    %rax,-0x10(%rbp)
    9850:	48 8b 55 d0          	mov    -0x30(%rbp),%rdx
    9854:	48 8b 45 f0          	mov    -0x10(%rbp),%rax
    9858:	48 8b 04 d0          	mov    (%rax,%rdx,8),%rax
    985c:	48 89 45 b8          	mov    %rax,-0x48(%rbp)
    9860:	48 8d 45 b8          	lea    -0x48(%rbp),%rax
    9864:	be 00 00 00 00       	mov    $0x0,%esi
    9869:	48 89 c7             	mov    %rax,%rdi
    986c:	e8 89 01 00 00       	call   99fa <_ZN18PageDirectoryEntry7GetFlagE7PT_Flag>
    9871:	83 f0 01             	xor    $0x1,%eax
    9874:	84 c0                	test   %al,%al
    9876:	75 63                	jne    98db <_ZN16PageTableManager11UnmapMemoryEPv+0x169>
    9878:	48 8d 45 b8          	lea    -0x48(%rbp),%rax
    987c:	48 89 c7             	mov    %rax,%rdi
    987f:	e8 b6 01 00 00       	call   9a3a <_ZN18PageDirectoryEntry10GetAddressEv>
    9884:	48 c1 e0 0c          	shl    $0xc,%rax
    9888:	48 89 45 e8          	mov    %rax,-0x18(%rbp)
    988c:	48 8b 55 d8          	mov    -0x28(%rbp),%rdx
    9890:	48 8b 45 e8          	mov    -0x18(%rbp),%rax
    9894:	48 8b 04 d0          	mov    (%rax,%rdx,8),%rax
    9898:	48 89 45 b8          	mov    %rax,-0x48(%rbp)
    989c:	48 8d 45 b8          	lea    -0x48(%rbp),%rax
    98a0:	be 00 00 00 00       	mov    $0x0,%esi
    98a5:	48 89 c7             	mov    %rax,%rdi
    98a8:	e8 4d 01 00 00       	call   99fa <_ZN18PageDirectoryEntry7GetFlagE7PT_Flag>
    98ad:	83 f0 01             	xor    $0x1,%eax
    98b0:	84 c0                	test   %al,%al
    98b2:	75 2a                	jne    98de <_ZN16PageTableManager11UnmapMemoryEPv+0x16c>
    98b4:	48 8b 45 b8          	mov    -0x48(%rbp),%rax
    98b8:	48 89 45 b8          	mov    %rax,-0x48(%rbp)
    98bc:	48 8b 55 d8          	mov    -0x28(%rbp),%rdx
    98c0:	48 8b 45 e8          	mov    -0x18(%rbp),%rax
    98c4:	48 8b 4d b8          	mov    -0x48(%rbp),%rcx
    98c8:	48 89 0c d0          	mov    %rcx,(%rax,%rdx,8)
    98cc:	48 8b 45 a0          	mov    -0x60(%rbp),%rax
    98d0:	0f 01 38             	invlpg (%rax)
    98d3:	eb 0a                	jmp    98df <_ZN16PageTableManager11UnmapMemoryEPv+0x16d>
    98d5:	90                   	nop
    98d6:	eb 07                	jmp    98df <_ZN16PageTableManager11UnmapMemoryEPv+0x16d>
    98d8:	90                   	nop
    98d9:	eb 04                	jmp    98df <_ZN16PageTableManager11UnmapMemoryEPv+0x16d>
    98db:	90                   	nop
    98dc:	eb 01                	jmp    98df <_ZN16PageTableManager11UnmapMemoryEPv+0x16d>
    98de:	90                   	nop
    98df:	c9                   	leave
    98e0:	c3                   	ret
    98e1:	90                   	nop

00000000000098e2 <_ZN16PageTableManager12GetNextTableEP9PageTablem>:
    98e2:	f3 0f 1e fa          	endbr64
    98e6:	55                   	push   %rbp
    98e7:	48 89 e5             	mov    %rsp,%rbp
    98ea:	48 89 7d f8          	mov    %rdi,-0x8(%rbp)
    98ee:	48 89 75 f0          	mov    %rsi,-0x10(%rbp)
    98f2:	48 89 55 e8          	mov    %rdx,-0x18(%rbp)
    98f6:	48 8b 45 f0          	mov    -0x10(%rbp),%rax
    98fa:	48 8b 55 e8          	mov    -0x18(%rbp),%rdx
    98fe:	48 8b 04 d0          	mov    (%rax,%rdx,8),%rax
    9902:	83 e0 01             	and    $0x1,%eax
    9905:	48 85 c0             	test   %rax,%rax
    9908:	75 07                	jne    9911 <_ZN16PageTableManager12GetNextTableEP9PageTablem+0x2f>
    990a:	b8 00 00 00 00       	mov    $0x0,%eax
    990f:	eb 12                	jmp    9923 <_ZN16PageTableManager12GetNextTableEP9PageTablem+0x41>
    9911:	48 8b 45 f0          	mov    -0x10(%rbp),%rax
    9915:	48 8b 55 e8          	mov    -0x18(%rbp),%rdx
    9919:	48 8b 04 d0          	mov    (%rax,%rdx,8),%rax
    991d:	48 25 00 f0 ff ff    	and    $0xfffffffffffff000,%rax
    9923:	5d                   	pop    %rbp
    9924:	c3                   	ret
    9925:	90                   	nop

0000000000009926 <_ZN14PageMapIndexerC1Em>:
    9926:	f3 0f 1e fa          	endbr64
    992a:	55                   	push   %rbp
    992b:	48 89 e5             	mov    %rsp,%rbp
    992e:	48 89 7d f8          	mov    %rdi,-0x8(%rbp)
    9932:	48 89 75 f0          	mov    %rsi,-0x10(%rbp)
    9936:	48 c1 6d f0 0c       	shrq   $0xc,-0x10(%rbp)
    993b:	48 8b 45 f0          	mov    -0x10(%rbp),%rax
    993f:	25 ff 01 00 00       	and    $0x1ff,%eax
    9944:	48 89 c2             	mov    %rax,%rdx
    9947:	48 8b 45 f8          	mov    -0x8(%rbp),%rax
    994b:	48 89 50 18          	mov    %rdx,0x18(%rax)
    994f:	48 c1 6d f0 09       	shrq   $0x9,-0x10(%rbp)
    9954:	48 8b 45 f0          	mov    -0x10(%rbp),%rax
    9958:	25 ff 01 00 00       	and    $0x1ff,%eax
    995d:	48 89 c2             	mov    %rax,%rdx
    9960:	48 8b 45 f8          	mov    -0x8(%rbp),%rax
    9964:	48 89 50 10          	mov    %rdx,0x10(%rax)
    9968:	48 c1 6d f0 09       	shrq   $0x9,-0x10(%rbp)
    996d:	48 8b 45 f0          	mov    -0x10(%rbp),%rax
    9971:	25 ff 01 00 00       	and    $0x1ff,%eax
    9976:	48 89 c2             	mov    %rax,%rdx
    9979:	48 8b 45 f8          	mov    -0x8(%rbp),%rax
    997d:	48 89 50 08          	mov    %rdx,0x8(%rax)
    9981:	48 c1 6d f0 09       	shrq   $0x9,-0x10(%rbp)
    9986:	48 8b 45 f0          	mov    -0x10(%rbp),%rax
    998a:	25 ff 01 00 00       	and    $0x1ff,%eax
    998f:	48 89 c2             	mov    %rax,%rdx
    9992:	48 8b 45 f8          	mov    -0x8(%rbp),%rax
    9996:	48 89 10             	mov    %rdx,(%rax)
    9999:	90                   	nop
    999a:	5d                   	pop    %rbp
    999b:	c3                   	ret

000000000000999c <_ZN18PageDirectoryEntry7SetFlagE7PT_Flagb>:
    999c:	f3 0f 1e fa          	endbr64
    99a0:	55                   	push   %rbp
    99a1:	48 89 e5             	mov    %rsp,%rbp
    99a4:	48 89 7d e8          	mov    %rdi,-0x18(%rbp)
    99a8:	89 75 e4             	mov    %esi,-0x1c(%rbp)
    99ab:	89 d0                	mov    %edx,%eax
    99ad:	88 45 e0             	mov    %al,-0x20(%rbp)
    99b0:	8b 45 e4             	mov    -0x1c(%rbp),%eax
    99b3:	ba 01 00 00 00       	mov    $0x1,%edx
    99b8:	89 c1                	mov    %eax,%ecx
    99ba:	48 d3 e2             	shl    %cl,%rdx
    99bd:	48 89 d0             	mov    %rdx,%rax
    99c0:	48 89 45 f8          	mov    %rax,-0x8(%rbp)
    99c4:	48 8b 45 e8          	mov    -0x18(%rbp),%rax
    99c8:	48 8b 10             	mov    (%rax),%rdx
    99cb:	48 8b 45 f8          	mov    -0x8(%rbp),%rax
    99cf:	48 f7 d0             	not    %rax
    99d2:	48 21 c2             	and    %rax,%rdx
    99d5:	48 8b 45 e8          	mov    -0x18(%rbp),%rax
    99d9:	48 89 10             	mov    %rdx,(%rax)
    99dc:	80 7d e0 00          	cmpb   $0x0,-0x20(%rbp)
    99e0:	74 15                	je     99f7 <_ZN18PageDirectoryEntry7SetFlagE7PT_Flagb+0x5b>
    99e2:	48 8b 45 e8          	mov    -0x18(%rbp),%rax
    99e6:	48 8b 00             	mov    (%rax),%rax
    99e9:	48 0b 45 f8          	or     -0x8(%rbp),%rax
    99ed:	48 89 c2             	mov    %rax,%rdx
    99f0:	48 8b 45 e8          	mov    -0x18(%rbp),%rax
    99f4:	48 89 10             	mov    %rdx,(%rax)
    99f7:	90                   	nop
    99f8:	5d                   	pop    %rbp
    99f9:	c3                   	ret

00000000000099fa <_ZN18PageDirectoryEntry7GetFlagE7PT_Flag>:
    99fa:	f3 0f 1e fa          	endbr64
    99fe:	55                   	push   %rbp
    99ff:	48 89 e5             	mov    %rsp,%rbp
    9a02:	48 89 7d e8          	mov    %rdi,-0x18(%rbp)
    9a06:	89 75 e4             	mov    %esi,-0x1c(%rbp)
    9a09:	8b 45 e4             	mov    -0x1c(%rbp),%eax
    9a0c:	ba 01 00 00 00       	mov    $0x1,%edx
    9a11:	89 c1                	mov    %eax,%ecx
    9a13:	48 d3 e2             	shl    %cl,%rdx
    9a16:	48 89 d0             	mov    %rdx,%rax
    9a19:	48 89 45 f8          	mov    %rax,-0x8(%rbp)
    9a1d:	48 8b 45 e8          	mov    -0x18(%rbp),%rax
    9a21:	48 8b 10             	mov    (%rax),%rdx
    9a24:	48 83 7d f8 00       	cmpq   $0x0,-0x8(%rbp)
    9a29:	0f 95 c0             	setne  %al
    9a2c:	0f b6 c0             	movzbl %al,%eax
    9a2f:	48 21 d0             	and    %rdx,%rax
    9a32:	48 85 c0             	test   %rax,%rax
    9a35:	0f 95 c0             	setne  %al
    9a38:	5d                   	pop    %rbp
    9a39:	c3                   	ret

0000000000009a3a <_ZN18PageDirectoryEntry10GetAddressEv>:
    9a3a:	f3 0f 1e fa          	endbr64
    9a3e:	55                   	push   %rbp
    9a3f:	48 89 e5             	mov    %rsp,%rbp
    9a42:	48 89 7d f8          	mov    %rdi,-0x8(%rbp)
    9a46:	48 8b 45 f8          	mov    -0x8(%rbp),%rax
    9a4a:	48 8b 00             	mov    (%rax),%rax
    9a4d:	48 c1 e8 0c          	shr    $0xc,%rax
    9a51:	48 89 c2             	mov    %rax,%rdx
    9a54:	48 b8 ff ff ff ff ff 	movabs $0xffffffffff,%rax
    9a5b:	00 00 00 
    9a5e:	48 21 d0             	and    %rdx,%rax
    9a61:	5d                   	pop    %rbp
    9a62:	c3                   	ret
    9a63:	90                   	nop

0000000000009a64 <_ZN18PageDirectoryEntry10SetAddressEm>:
    9a64:	f3 0f 1e fa          	endbr64
    9a68:	55                   	push   %rbp
    9a69:	48 89 e5             	mov    %rsp,%rbp
    9a6c:	48 89 7d f8          	mov    %rdi,-0x8(%rbp)
    9a70:	48 89 75 f0          	mov    %rsi,-0x10(%rbp)
    9a74:	48 b8 ff ff ff ff ff 	movabs $0xffffffffff,%rax
    9a7b:	00 00 00 
    9a7e:	48 21 45 f0          	and    %rax,-0x10(%rbp)
    9a82:	48 8b 45 f8          	mov    -0x8(%rbp),%rax
    9a86:	48 8b 00             	mov    (%rax),%rax
    9a89:	48 ba ff 0f 00 00 00 	movabs $0xfff0000000000fff,%rdx
    9a90:	00 f0 ff 
    9a93:	48 21 c2             	and    %rax,%rdx
    9a96:	48 8b 45 f8          	mov    -0x8(%rbp),%rax
    9a9a:	48 89 10             	mov    %rdx,(%rax)
    9a9d:	48 8b 45 f8          	mov    -0x8(%rbp),%rax
    9aa1:	48 8b 00             	mov    (%rax),%rax
    9aa4:	48 8b 55 f0          	mov    -0x10(%rbp),%rdx
    9aa8:	48 c1 e2 0c          	shl    $0xc,%rdx
    9aac:	48 09 c2             	or     %rax,%rdx
    9aaf:	48 8b 45 f8          	mov    -0x8(%rbp),%rax
    9ab3:	48 89 10             	mov    %rdx,(%rax)
    9ab6:	90                   	nop
    9ab7:	5d                   	pop    %rbp
    9ab8:	c3                   	ret

0000000000009ab9 <InitializePaging>:
    9ab9:	f3 0f 1e fa          	endbr64
    9abd:	55                   	push   %rbp
    9abe:	48 89 e5             	mov    %rsp,%rbp
    9ac1:	41 54                	push   %r12
    9ac3:	53                   	push   %rbx
    9ac4:	48 81 ec d0 00 00 00 	sub    $0xd0,%rsp
    9acb:	48 89 bd 28 ff ff ff 	mov    %rdi,-0xd8(%rbp)
    9ad2:	48 89 b5 20 ff ff ff 	mov    %rsi,-0xe0(%rbp)
    9ad9:	48 8d 05 20 75 ff ff 	lea    -0x8ae0(%rip),%rax        # 1000 <strncmp>
    9ae0:	48 89 45 b8          	mov    %rax,-0x48(%rbp)
    9ae4:	48 8d 05 55 2a 02 00 	lea    0x22a55(%rip),%rax        # 2c540 <_kernel_end>
    9aeb:	48 89 45 b0          	mov    %rax,-0x50(%rbp)
    9aef:	48 8b 45 b0          	mov    -0x50(%rbp),%rax
    9af3:	48 2b 45 b8          	sub    -0x48(%rbp),%rax
    9af7:	48 89 45 a8          	mov    %rax,-0x58(%rbp)
    9afb:	48 8b 45 a8          	mov    -0x58(%rbp),%rax
    9aff:	48 c1 e8 0c          	shr    $0xc,%rax
    9b03:	48 83 c0 01          	add    $0x1,%rax
    9b07:	48 89 45 a0          	mov    %rax,-0x60(%rbp)
    9b0b:	48 8b 85 20 ff ff ff 	mov    -0xe0(%rbp),%rax
    9b12:	48 8b 40 28          	mov    0x28(%rax),%rax
    9b16:	48 8b 95 20 ff ff ff 	mov    -0xe0(%rbp),%rdx
    9b1d:	48 8b 5a 30          	mov    0x30(%rdx),%rbx
    9b21:	ba 00 00 00 00       	mov    $0x0,%edx
    9b26:	48 f7 f3             	div    %rbx
    9b29:	48 89 45 98          	mov    %rax,-0x68(%rbp)
    9b2d:	48 8b 85 20 ff ff ff 	mov    -0xe0(%rbp),%rax
    9b34:	48 8b 50 30          	mov    0x30(%rax),%rdx
    9b38:	48 8b 85 20 ff ff ff 	mov    -0xe0(%rbp),%rax
    9b3f:	48 8b 40 20          	mov    0x20(%rax),%rax
    9b43:	48 8b 4d 98          	mov    -0x68(%rbp),%rcx
    9b47:	48 89 ce             	mov    %rcx,%rsi
    9b4a:	48 89 c7             	mov    %rax,%rdi
    9b4d:	e8 03 ee ff ff       	call   8955 <_Z13GetMemorySizeP21EFI_MEMORY_DESCRIPTORmm>
    9b52:	48 89 45 90          	mov    %rax,-0x70(%rbp)
    9b56:	48 8b 85 28 ff ff ff 	mov    -0xd8(%rbp),%rax
    9b5d:	48 8d 78 28          	lea    0x28(%rax),%rdi
    9b61:	48 8b 85 20 ff ff ff 	mov    -0xe0(%rbp),%rax
    9b68:	48 8b 48 30          	mov    0x30(%rax),%rcx
    9b6c:	48 8b 85 20 ff ff ff 	mov    -0xe0(%rbp),%rax
    9b73:	48 8b 50 28          	mov    0x28(%rax),%rdx
    9b77:	48 8b 85 20 ff ff ff 	mov    -0xe0(%rbp),%rax
    9b7e:	48 8b 40 20          	mov    0x20(%rax),%rax
    9b82:	48 89 c6             	mov    %rax,%rsi
    9b85:	e8 16 ef ff ff       	call   8aa0 <_ZN18PageFrameAllocator16ReadEFIMemoryMapEP21EFI_MEMORY_DESCRIPTORmm>
    9b8a:	48 8b 85 28 ff ff ff 	mov    -0xd8(%rbp),%rax
    9b91:	48 8d 48 28          	lea    0x28(%rax),%rcx
    9b95:	48 8b 45 a0          	mov    -0x60(%rbp),%rax
    9b99:	48 89 c2             	mov    %rax,%rdx
    9b9c:	48 8d 05 5d 74 ff ff 	lea    -0x8ba3(%rip),%rax        # 1000 <strncmp>
    9ba3:	48 89 c6             	mov    %rax,%rsi
    9ba6:	48 89 cf             	mov    %rcx,%rdi
    9ba9:	e8 8a f2 ff ff       	call   8e38 <_ZN18PageFrameAllocator9LockPagesEPvm>
    9bae:	48 8b 85 28 ff ff ff 	mov    -0xd8(%rbp),%rax
    9bb5:	48 83 c0 28          	add    $0x28,%rax
    9bb9:	48 89 c7             	mov    %rax,%rdi
    9bbc:	e8 df f6 ff ff       	call   92a0 <_ZN18PageFrameAllocator11RequestPageEv>
    9bc1:	48 8b 95 28 ff ff ff 	mov    -0xd8(%rbp),%rdx
    9bc8:	48 89 82 a0 00 00 00 	mov    %rax,0xa0(%rdx)
    9bcf:	48 8b 85 28 ff ff ff 	mov    -0xd8(%rbp),%rax
    9bd6:	48 8b 80 a0 00 00 00 	mov    0xa0(%rax),%rax
    9bdd:	ba 00 10 00 00       	mov    $0x1000,%edx
    9be2:	be 00 00 00 00       	mov    $0x0,%esi
    9be7:	48 89 c7             	mov    %rax,%rdi
    9bea:	e8 e8 ed ff ff       	call   89d7 <memsetC>
    9bef:	48 8b 85 28 ff ff ff 	mov    -0xd8(%rbp),%rax
    9bf6:	48 8d b8 80 00 00 00 	lea    0x80(%rax),%rdi
    9bfd:	48 8b 95 28 ff ff ff 	mov    -0xd8(%rbp),%rdx
    9c04:	48 8b 85 28 ff ff ff 	mov    -0xd8(%rbp),%rax
    9c0b:	48 8d 70 28          	lea    0x28(%rax),%rsi
    9c0f:	48 8b 85 28 ff ff ff 	mov    -0xd8(%rbp),%rax
    9c16:	48 8b 80 a0 00 00 00 	mov    0xa0(%rax),%rax
    9c1d:	48 89 d1             	mov    %rdx,%rcx
    9c20:	48 89 f2             	mov    %rsi,%rdx
    9c23:	48 89 c6             	mov    %rax,%rsi
    9c26:	e8 f7 f6 ff ff       	call   9322 <_ZN16PageTableManager10InitializeEP9PageTableP18PageFrameAllocatorP12BasicConsole>
    9c2b:	48 8b 85 28 ff ff ff 	mov    -0xd8(%rbp),%rax
    9c32:	48 8d b8 80 00 00 00 	lea    0x80(%rax),%rdi
    9c39:	48 8b 85 28 ff ff ff 	mov    -0xd8(%rbp),%rax
    9c40:	48 8b 90 a0 00 00 00 	mov    0xa0(%rax),%rdx
    9c47:	48 8b 85 28 ff ff ff 	mov    -0xd8(%rbp),%rax
    9c4e:	48 8b 80 a0 00 00 00 	mov    0xa0(%rax),%rax
    9c55:	b9 01 00 00 00       	mov    $0x1,%ecx
    9c5a:	48 89 c6             	mov    %rax,%rsi
    9c5d:	e8 06 f7 ff ff       	call   9368 <_ZN16PageTableManager9MapMemoryEPvS0_b>
    9c62:	48 c7 45 e8 00 00 00 	movq   $0x0,-0x18(%rbp)
    9c69:	00 
    9c6a:	eb 08                	jmp    9c74 <InitializePaging+0x1bb>
    9c6c:	48 81 45 e8 00 10 00 	addq   $0x1000,-0x18(%rbp)
    9c73:	00 
    9c74:	48 8b 45 e8          	mov    -0x18(%rbp),%rax
    9c78:	48 3b 45 90          	cmp    -0x70(%rbp),%rax
    9c7c:	72 ee                	jb     9c6c <InitializePaging+0x1b3>
    9c7e:	48 8b 85 20 ff ff ff 	mov    -0xe0(%rbp),%rax
    9c85:	48 8b 40 20          	mov    0x20(%rax),%rax
    9c89:	48 89 45 88          	mov    %rax,-0x78(%rbp)
    9c8d:	48 8b 85 20 ff ff ff 	mov    -0xe0(%rbp),%rax
    9c94:	48 8b 40 28          	mov    0x28(%rax),%rax
    9c98:	48 89 45 80          	mov    %rax,-0x80(%rbp)
    9c9c:	48 8b 45 80          	mov    -0x80(%rbp),%rax
    9ca0:	48 05 ff 0f 00 00    	add    $0xfff,%rax
    9ca6:	48 c1 e8 0c          	shr    $0xc,%rax
    9caa:	48 89 85 78 ff ff ff 	mov    %rax,-0x88(%rbp)
    9cb1:	48 c7 45 e0 00 00 00 	movq   $0x0,-0x20(%rbp)
    9cb8:	00 
    9cb9:	e9 b8 00 00 00       	jmp    9d76 <InitializePaging+0x2bd>
    9cbe:	48 8b 85 28 ff ff ff 	mov    -0xd8(%rbp),%rax
    9cc5:	48 83 e8 80          	sub    $0xffffffffffffff80,%rax
    9cc9:	48 8b 95 20 ff ff ff 	mov    -0xe0(%rbp),%rdx
    9cd0:	48 8b 52 20          	mov    0x20(%rdx),%rdx
    9cd4:	48 89 d1             	mov    %rdx,%rcx
    9cd7:	48 8b 55 e0          	mov    -0x20(%rbp),%rdx
    9cdb:	48 c1 e2 0c          	shl    $0xc,%rdx
    9cdf:	48 01 ca             	add    %rcx,%rdx
    9ce2:	48 89 d7             	mov    %rdx,%rdi
    9ce5:	48 8b 95 20 ff ff ff 	mov    -0xe0(%rbp),%rdx
    9cec:	48 8b 52 20          	mov    0x20(%rdx),%rdx
    9cf0:	48 89 d1             	mov    %rdx,%rcx
    9cf3:	48 8b 55 e0          	mov    -0x20(%rbp),%rdx
    9cf7:	48 c1 e2 0c          	shl    $0xc,%rdx
    9cfb:	48 01 ca             	add    %rcx,%rdx
    9cfe:	48 89 d6             	mov    %rdx,%rsi
    9d01:	b9 01 00 00 00       	mov    $0x1,%ecx
    9d06:	48 89 fa             	mov    %rdi,%rdx
    9d09:	48 89 c7             	mov    %rax,%rdi
    9d0c:	e8 57 f6 ff ff       	call   9368 <_ZN16PageTableManager9MapMemoryEPvS0_b>
    9d11:	48 8b 85 28 ff ff ff 	mov    -0xd8(%rbp),%rax
    9d18:	48 83 e8 80          	sub    $0xffffffffffffff80,%rax
    9d1c:	48 8b 95 20 ff ff ff 	mov    -0xe0(%rbp),%rdx
    9d23:	48 8b 52 20          	mov    0x20(%rdx),%rdx
    9d27:	48 89 d1             	mov    %rdx,%rcx
    9d2a:	48 8b 55 e0          	mov    -0x20(%rbp),%rdx
    9d2e:	48 c1 e2 0c          	shl    $0xc,%rdx
    9d32:	48 01 ca             	add    %rcx,%rdx
    9d35:	48 89 d7             	mov    %rdx,%rdi
    9d38:	48 8b 95 20 ff ff ff 	mov    -0xe0(%rbp),%rdx
    9d3f:	48 8b 52 20          	mov    0x20(%rdx),%rdx
    9d43:	48 89 d1             	mov    %rdx,%rcx
    9d46:	48 8b 55 e0          	mov    -0x20(%rbp),%rdx
    9d4a:	48 c1 e2 0c          	shl    $0xc,%rdx
    9d4e:	48 01 d1             	add    %rdx,%rcx
    9d51:	48 ba 00 00 00 00 ff 	movabs $0xffffffff00000000,%rdx
    9d58:	ff ff ff 
    9d5b:	48 01 ca             	add    %rcx,%rdx
    9d5e:	48 89 d6             	mov    %rdx,%rsi
    9d61:	b9 01 00 00 00       	mov    $0x1,%ecx
    9d66:	48 89 fa             	mov    %rdi,%rdx
    9d69:	48 89 c7             	mov    %rax,%rdi
    9d6c:	e8 f7 f5 ff ff       	call   9368 <_ZN16PageTableManager9MapMemoryEPvS0_b>
    9d71:	48 83 45 e0 01       	addq   $0x1,-0x20(%rbp)
    9d76:	48 8b 45 e0          	mov    -0x20(%rbp),%rax
    9d7a:	48 3b 85 78 ff ff ff 	cmp    -0x88(%rbp),%rax
    9d81:	0f 82 37 ff ff ff    	jb     9cbe <InitializePaging+0x205>
    9d87:	48 8b 85 20 ff ff ff 	mov    -0xe0(%rbp),%rax
    9d8e:	48 8b 00             	mov    (%rax),%rax
    9d91:	48 89 85 70 ff ff ff 	mov    %rax,-0x90(%rbp)
    9d98:	48 8b 85 20 ff ff ff 	mov    -0xe0(%rbp),%rax
    9d9f:	48 8b 40 08          	mov    0x8(%rax),%rax
    9da3:	48 05 00 10 00 00    	add    $0x1000,%rax
    9da9:	48 89 85 68 ff ff ff 	mov    %rax,-0x98(%rbp)
    9db0:	48 8b 85 28 ff ff ff 	mov    -0xd8(%rbp),%rax
    9db7:	48 8d 48 28          	lea    0x28(%rax),%rcx
    9dbb:	48 8b 85 68 ff ff ff 	mov    -0x98(%rbp),%rax
    9dc2:	48 c1 e8 0c          	shr    $0xc,%rax
    9dc6:	48 8d 50 01          	lea    0x1(%rax),%rdx
    9dca:	48 8b 85 70 ff ff ff 	mov    -0x90(%rbp),%rax
    9dd1:	48 89 c6             	mov    %rax,%rsi
    9dd4:	48 89 cf             	mov    %rcx,%rdi
    9dd7:	e8 5c f0 ff ff       	call   8e38 <_ZN18PageFrameAllocator9LockPagesEPvm>
    9ddc:	48 8b 85 70 ff ff ff 	mov    -0x90(%rbp),%rax
    9de3:	48 89 45 d8          	mov    %rax,-0x28(%rbp)
    9de7:	eb 5e                	jmp    9e47 <InitializePaging+0x38e>
    9de9:	48 8b 85 28 ff ff ff 	mov    -0xd8(%rbp),%rax
    9df0:	48 8d b8 80 00 00 00 	lea    0x80(%rax),%rdi
    9df7:	48 8b 45 d8          	mov    -0x28(%rbp),%rax
    9dfb:	48 b9 00 00 00 00 ff 	movabs $0xffffffff00000000,%rcx
    9e02:	ff ff ff 
    9e05:	48 8b 55 d8          	mov    -0x28(%rbp),%rdx
    9e09:	48 01 ca             	add    %rcx,%rdx
    9e0c:	48 89 d6             	mov    %rdx,%rsi
    9e0f:	b9 01 00 00 00       	mov    $0x1,%ecx
    9e14:	48 89 c2             	mov    %rax,%rdx
    9e17:	e8 4c f5 ff ff       	call   9368 <_ZN16PageTableManager9MapMemoryEPvS0_b>
    9e1c:	48 8b 85 28 ff ff ff 	mov    -0xd8(%rbp),%rax
    9e23:	48 8d b8 80 00 00 00 	lea    0x80(%rax),%rdi
    9e2a:	48 8b 55 d8          	mov    -0x28(%rbp),%rdx
    9e2e:	48 8b 45 d8          	mov    -0x28(%rbp),%rax
    9e32:	b9 01 00 00 00       	mov    $0x1,%ecx
    9e37:	48 89 c6             	mov    %rax,%rsi
    9e3a:	e8 29 f5 ff ff       	call   9368 <_ZN16PageTableManager9MapMemoryEPvS0_b>
    9e3f:	48 81 45 d8 00 10 00 	addq   $0x1000,-0x28(%rbp)
    9e46:	00 
    9e47:	48 8b 95 70 ff ff ff 	mov    -0x90(%rbp),%rdx
    9e4e:	48 8b 85 68 ff ff ff 	mov    -0x98(%rbp),%rax
    9e55:	48 01 d0             	add    %rdx,%rax
    9e58:	48 39 45 d8          	cmp    %rax,-0x28(%rbp)
    9e5c:	72 8b                	jb     9de9 <InitializePaging+0x330>
    9e5e:	48 8b 85 28 ff ff ff 	mov    -0xd8(%rbp),%rax
    9e65:	48 8d b8 80 00 00 00 	lea    0x80(%rax),%rdi
    9e6c:	48 8b 85 20 ff ff ff 	mov    -0xe0(%rbp),%rax
    9e73:	48 8b 40 40          	mov    0x40(%rax),%rax
    9e77:	48 8b 95 20 ff ff ff 	mov    -0xe0(%rbp),%rdx
    9e7e:	48 8b 52 40          	mov    0x40(%rdx),%rdx
    9e82:	48 89 d1             	mov    %rdx,%rcx
    9e85:	48 ba 00 00 00 00 ff 	movabs $0xffffffff00000000,%rdx
    9e8c:	ff ff ff 
    9e8f:	48 01 ca             	add    %rcx,%rdx
    9e92:	48 89 d6             	mov    %rdx,%rsi
    9e95:	b9 01 00 00 00       	mov    $0x1,%ecx
    9e9a:	48 89 c2             	mov    %rax,%rdx
    9e9d:	e8 c6 f4 ff ff       	call   9368 <_ZN16PageTableManager9MapMemoryEPvS0_b>
    9ea2:	48 8b 85 28 ff ff ff 	mov    -0xd8(%rbp),%rax
    9ea9:	48 8b 80 00 12 00 00 	mov    0x1200(%rax),%rax
    9eb0:	48 89 c2             	mov    %rax,%rdx
    9eb3:	48 b8 00 00 00 00 ff 	movabs $0xffffffff00000000,%rax
    9eba:	ff ff ff 
    9ebd:	48 01 d0             	add    %rdx,%rax
    9ec0:	48 89 c2             	mov    %rax,%rdx
    9ec3:	48 8b 85 28 ff ff ff 	mov    -0xd8(%rbp),%rax
    9eca:	48 89 90 00 12 00 00 	mov    %rdx,0x1200(%rax)
    9ed1:	48 8b 85 28 ff ff ff 	mov    -0xd8(%rbp),%rax
    9ed8:	48 8b 80 c8 11 00 00 	mov    0x11c8(%rax),%rax
    9edf:	48 89 c2             	mov    %rax,%rdx
    9ee2:	48 b8 00 00 00 00 ff 	movabs $0xffffffff00000000,%rax
    9ee9:	ff ff ff 
    9eec:	48 01 d0             	add    %rdx,%rax
    9eef:	48 89 c2             	mov    %rax,%rdx
    9ef2:	48 8b 85 28 ff ff ff 	mov    -0xd8(%rbp),%rax
    9ef9:	48 89 90 c8 11 00 00 	mov    %rdx,0x11c8(%rax)
    9f00:	48 8b 85 28 ff ff ff 	mov    -0xd8(%rbp),%rax
    9f07:	48 8b 80 08 12 00 00 	mov    0x1208(%rax),%rax
    9f0e:	48 89 c2             	mov    %rax,%rdx
    9f11:	48 b8 00 00 00 00 ff 	movabs $0xffffffff00000000,%rax
    9f18:	ff ff ff 
    9f1b:	48 01 d0             	add    %rdx,%rax
    9f1e:	48 89 c2             	mov    %rax,%rdx
    9f21:	48 8b 85 28 ff ff ff 	mov    -0xd8(%rbp),%rax
    9f28:	48 89 90 08 12 00 00 	mov    %rdx,0x1208(%rax)
    9f2f:	48 8b 85 20 ff ff ff 	mov    -0xe0(%rbp),%rax
    9f36:	48 8b 40 20          	mov    0x20(%rax),%rax
    9f3a:	48 89 c2             	mov    %rax,%rdx
    9f3d:	48 b8 00 00 00 00 ff 	movabs $0xffffffff00000000,%rax
    9f44:	ff ff ff 
    9f47:	48 01 d0             	add    %rdx,%rax
    9f4a:	48 89 c2             	mov    %rax,%rdx
    9f4d:	48 8b 85 28 ff ff ff 	mov    -0xd8(%rbp),%rax
    9f54:	48 89 90 e8 11 00 00 	mov    %rdx,0x11e8(%rax)
    9f5b:	48 8b 85 20 ff ff ff 	mov    -0xe0(%rbp),%rax
    9f62:	48 8b 40 40          	mov    0x40(%rax),%rax
    9f66:	48 89 c2             	mov    %rax,%rdx
    9f69:	48 b8 00 00 00 00 ff 	movabs $0xffffffff00000000,%rax
    9f70:	ff ff ff 
    9f73:	48 01 d0             	add    %rdx,%rax
    9f76:	48 89 c2             	mov    %rax,%rdx
    9f79:	48 8b 85 28 ff ff ff 	mov    -0xd8(%rbp),%rax
    9f80:	48 89 90 08 12 00 00 	mov    %rdx,0x1208(%rax)
    9f87:	48 8b 85 28 ff ff ff 	mov    -0xd8(%rbp),%rax
    9f8e:	48 8d b8 80 00 00 00 	lea    0x80(%rax),%rdi
    9f95:	48 8b 85 20 ff ff ff 	mov    -0xe0(%rbp),%rax
    9f9c:	48 8b 50 38          	mov    0x38(%rax),%rdx
    9fa0:	48 8b 85 28 ff ff ff 	mov    -0xd8(%rbp),%rax
    9fa7:	48 8b 80 00 12 00 00 	mov    0x1200(%rax),%rax
    9fae:	b9 01 00 00 00       	mov    $0x1,%ecx
    9fb3:	48 89 c6             	mov    %rax,%rsi
    9fb6:	e8 ad f3 ff ff       	call   9368 <_ZN16PageTableManager9MapMemoryEPvS0_b>
    9fbb:	48 8b 85 28 ff ff ff 	mov    -0xd8(%rbp),%rax
    9fc2:	48 8d b8 80 00 00 00 	lea    0x80(%rax),%rdi
    9fc9:	48 8b 85 20 ff ff ff 	mov    -0xe0(%rbp),%rax
    9fd0:	48 8b 50 38          	mov    0x38(%rax),%rdx
    9fd4:	48 8b 85 20 ff ff ff 	mov    -0xe0(%rbp),%rax
    9fdb:	48 8b 40 38          	mov    0x38(%rax),%rax
    9fdf:	b9 01 00 00 00       	mov    $0x1,%ecx
    9fe4:	48 89 c6             	mov    %rax,%rsi
    9fe7:	e8 7c f3 ff ff       	call   9368 <_ZN16PageTableManager9MapMemoryEPvS0_b>
    9fec:	48 8b 85 20 ff ff ff 	mov    -0xe0(%rbp),%rax
    9ff3:	48 8b 40 48          	mov    0x48(%rax),%rax
    9ff7:	48 05 ff 0f 00 00    	add    $0xfff,%rax
    9ffd:	48 c1 e8 0c          	shr    $0xc,%rax
    a001:	48 89 85 60 ff ff ff 	mov    %rax,-0xa0(%rbp)
    a008:	48 8b 85 20 ff ff ff 	mov    -0xe0(%rbp),%rax
    a00f:	48 8b 40 40          	mov    0x40(%rax),%rax
    a013:	48 89 85 58 ff ff ff 	mov    %rax,-0xa8(%rbp)
    a01a:	48 c7 45 d0 00 00 00 	movq   $0x0,-0x30(%rbp)
    a021:	00 
    a022:	e9 91 00 00 00       	jmp    a0b8 <InitializePaging+0x5ff>
    a027:	48 8b 45 d0          	mov    -0x30(%rbp),%rax
    a02b:	48 c1 e0 0c          	shl    $0xc,%rax
    a02f:	48 89 c2             	mov    %rax,%rdx
    a032:	48 8b 85 58 ff ff ff 	mov    -0xa8(%rbp),%rax
    a039:	48 01 d0             	add    %rdx,%rax
    a03c:	48 89 85 30 ff ff ff 	mov    %rax,-0xd0(%rbp)
    a043:	48 8b 85 28 ff ff ff 	mov    -0xd8(%rbp),%rax
    a04a:	48 8d b8 80 00 00 00 	lea    0x80(%rax),%rdi
    a051:	48 8b 95 30 ff ff ff 	mov    -0xd0(%rbp),%rdx
    a058:	48 8b 85 30 ff ff ff 	mov    -0xd0(%rbp),%rax
    a05f:	b9 01 00 00 00       	mov    $0x1,%ecx
    a064:	48 89 c6             	mov    %rax,%rsi
    a067:	e8 fc f2 ff ff       	call   9368 <_ZN16PageTableManager9MapMemoryEPvS0_b>
    a06c:	48 8b 85 28 ff ff ff 	mov    -0xd8(%rbp),%rax
    a073:	48 8d b8 80 00 00 00 	lea    0x80(%rax),%rdi
    a07a:	48 8b 45 d0          	mov    -0x30(%rbp),%rax
    a07e:	48 c1 e0 0c          	shl    $0xc,%rax
    a082:	48 89 c2             	mov    %rax,%rdx
    a085:	48 8b 85 58 ff ff ff 	mov    -0xa8(%rbp),%rax
    a08c:	48 01 c2             	add    %rax,%rdx
    a08f:	48 b8 00 00 00 00 ff 	movabs $0xffffffff00000000,%rax
    a096:	ff ff ff 
    a099:	48 01 d0             	add    %rdx,%rax
    a09c:	48 89 c6             	mov    %rax,%rsi
    a09f:	48 8b 85 30 ff ff ff 	mov    -0xd0(%rbp),%rax
    a0a6:	b9 01 00 00 00       	mov    $0x1,%ecx
    a0ab:	48 89 c2             	mov    %rax,%rdx
    a0ae:	e8 b5 f2 ff ff       	call   9368 <_ZN16PageTableManager9MapMemoryEPvS0_b>
    a0b3:	48 83 45 d0 01       	addq   $0x1,-0x30(%rbp)
    a0b8:	48 8b 45 d0          	mov    -0x30(%rbp),%rax
    a0bc:	48 3b 85 60 ff ff ff 	cmp    -0xa0(%rbp),%rax
    a0c3:	0f 82 5e ff ff ff    	jb     a027 <InitializePaging+0x56e>
    a0c9:	48 8b 85 28 ff ff ff 	mov    -0xd8(%rbp),%rax
    a0d0:	48 83 e8 80          	sub    $0xffffffffffffff80,%rax
    a0d4:	b9 00 00 00 00       	mov    $0x0,%ecx
    a0d9:	ba 00 00 e0 fe       	mov    $0xfee00000,%edx
    a0de:	48 c7 c6 00 00 e0 fe 	mov    $0xfffffffffee00000,%rsi
    a0e5:	48 89 c7             	mov    %rax,%rdi
    a0e8:	e8 7b f2 ff ff       	call   9368 <_ZN16PageTableManager9MapMemoryEPvS0_b>
    a0ed:	48 8b 85 28 ff ff ff 	mov    -0xd8(%rbp),%rax
    a0f4:	48 05 00 11 00 00    	add    $0x1100,%rax
    a0fa:	48 c7 c6 00 00 e0 fe 	mov    $0xfffffffffee00000,%rsi
    a101:	48 89 c7             	mov    %rax,%rdi
    a104:	e8 8f 7c ff ff       	call   1d98 <_ZN4APIC11SetAPICBaseEm>
    a109:	48 8b 85 28 ff ff ff 	mov    -0xd8(%rbp),%rax
    a110:	48 83 c0 28          	add    $0x28,%rax
    a114:	48 89 c7             	mov    %rax,%rdi
    a117:	e8 70 03 00 00       	call   a48c <_ZN18PageFrameAllocator9GetBitmapEv>
    a11c:	48 89 d0             	mov    %rdx,%rax
    a11f:	48 05 ff 0f 00 00    	add    $0xfff,%rax
    a125:	48 c1 e8 0c          	shr    $0xc,%rax
    a129:	48 89 85 50 ff ff ff 	mov    %rax,-0xb0(%rbp)
    a130:	48 c7 45 c8 00 00 00 	movq   $0x0,-0x38(%rbp)
    a137:	00 
    a138:	eb 6b                	jmp    a1a5 <InitializePaging+0x6ec>
    a13a:	48 8b 85 28 ff ff ff 	mov    -0xd8(%rbp),%rax
    a141:	48 8d 98 80 00 00 00 	lea    0x80(%rax),%rbx
    a148:	48 8b 85 28 ff ff ff 	mov    -0xd8(%rbp),%rax
    a14f:	48 83 c0 28          	add    $0x28,%rax
    a153:	48 89 c7             	mov    %rax,%rdi
    a156:	e8 31 03 00 00       	call   a48c <_ZN18PageFrameAllocator9GetBitmapEv>
    a15b:	48 89 c2             	mov    %rax,%rdx
    a15e:	48 8b 45 c8          	mov    -0x38(%rbp),%rax
    a162:	48 c1 e0 0c          	shl    $0xc,%rax
    a166:	48 01 d0             	add    %rdx,%rax
    a169:	49 89 c4             	mov    %rax,%r12
    a16c:	48 8b 85 28 ff ff ff 	mov    -0xd8(%rbp),%rax
    a173:	48 83 c0 28          	add    $0x28,%rax
    a177:	48 89 c7             	mov    %rax,%rdi
    a17a:	e8 0d 03 00 00       	call   a48c <_ZN18PageFrameAllocator9GetBitmapEv>
    a17f:	48 89 c2             	mov    %rax,%rdx
    a182:	48 8b 45 c8          	mov    -0x38(%rbp),%rax
    a186:	48 c1 e0 0c          	shl    $0xc,%rax
    a18a:	48 01 d0             	add    %rdx,%rax
    a18d:	b9 01 00 00 00       	mov    $0x1,%ecx
    a192:	4c 89 e2             	mov    %r12,%rdx
    a195:	48 89 c6             	mov    %rax,%rsi
    a198:	48 89 df             	mov    %rbx,%rdi
    a19b:	e8 c8 f1 ff ff       	call   9368 <_ZN16PageTableManager9MapMemoryEPvS0_b>
    a1a0:	48 83 45 c8 01       	addq   $0x1,-0x38(%rbp)
    a1a5:	48 8b 45 c8          	mov    -0x38(%rbp),%rax
    a1a9:	48 3b 85 50 ff ff ff 	cmp    -0xb0(%rbp),%rax
    a1b0:	72 88                	jb     a13a <InitializePaging+0x681>
    a1b2:	48 c7 85 48 ff ff ff 	movq   $0x1000,-0xb8(%rbp)
    a1b9:	00 10 00 00 
    a1bd:	48 b8 00 00 00 00 ff 	movabs $0xffffffff00000000,%rax
    a1c4:	ff ff ff 
    a1c7:	48 89 85 40 ff ff ff 	mov    %rax,-0xc0(%rbp)
    a1ce:	48 8b 45 a8          	mov    -0x58(%rbp),%rax
    a1d2:	48 05 ff 0f 00 00    	add    $0xfff,%rax
    a1d8:	48 c1 e8 0c          	shr    $0xc,%rax
    a1dc:	48 89 85 38 ff ff ff 	mov    %rax,-0xc8(%rbp)
    a1e3:	48 c7 45 c0 00 00 00 	movq   $0x0,-0x40(%rbp)
    a1ea:	00 
    a1eb:	e9 9b 00 00 00       	jmp    a28b <InitializePaging+0x7d2>
    a1f0:	48 8b 85 28 ff ff ff 	mov    -0xd8(%rbp),%rax
    a1f7:	48 83 e8 80          	sub    $0xffffffffffffff80,%rax
    a1fb:	48 8b 55 c0          	mov    -0x40(%rbp),%rdx
    a1ff:	48 89 d1             	mov    %rdx,%rcx
    a202:	48 c1 e1 0c          	shl    $0xc,%rcx
    a206:	48 8b 95 48 ff ff ff 	mov    -0xb8(%rbp),%rdx
    a20d:	48 01 ca             	add    %rcx,%rdx
    a210:	48 89 d7             	mov    %rdx,%rdi
    a213:	48 8b 55 c0          	mov    -0x40(%rbp),%rdx
    a217:	48 89 d1             	mov    %rdx,%rcx
    a21a:	48 c1 e1 0c          	shl    $0xc,%rcx
    a21e:	48 8b 95 40 ff ff ff 	mov    -0xc0(%rbp),%rdx
    a225:	48 01 ca             	add    %rcx,%rdx
    a228:	48 89 d6             	mov    %rdx,%rsi
    a22b:	b9 01 00 00 00       	mov    $0x1,%ecx
    a230:	48 89 fa             	mov    %rdi,%rdx
    a233:	48 89 c7             	mov    %rax,%rdi
    a236:	e8 2d f1 ff ff       	call   9368 <_ZN16PageTableManager9MapMemoryEPvS0_b>
    a23b:	48 8b 85 28 ff ff ff 	mov    -0xd8(%rbp),%rax
    a242:	48 83 e8 80          	sub    $0xffffffffffffff80,%rax
    a246:	48 8b 55 c0          	mov    -0x40(%rbp),%rdx
    a24a:	48 89 d1             	mov    %rdx,%rcx
    a24d:	48 c1 e1 0c          	shl    $0xc,%rcx
    a251:	48 8b 95 48 ff ff ff 	mov    -0xb8(%rbp),%rdx
    a258:	48 01 ca             	add    %rcx,%rdx
    a25b:	48 89 d7             	mov    %rdx,%rdi
    a25e:	48 8b 55 c0          	mov    -0x40(%rbp),%rdx
    a262:	48 89 d1             	mov    %rdx,%rcx
    a265:	48 c1 e1 0c          	shl    $0xc,%rcx
    a269:	48 8b 95 48 ff ff ff 	mov    -0xb8(%rbp),%rdx
    a270:	48 01 ca             	add    %rcx,%rdx
    a273:	48 89 d6             	mov    %rdx,%rsi
    a276:	b9 01 00 00 00       	mov    $0x1,%ecx
    a27b:	48 89 fa             	mov    %rdi,%rdx
    a27e:	48 89 c7             	mov    %rax,%rdi
    a281:	e8 e2 f0 ff ff       	call   9368 <_ZN16PageTableManager9MapMemoryEPvS0_b>
    a286:	48 83 45 c0 01       	addq   $0x1,-0x40(%rbp)
    a28b:	48 8b 45 c0          	mov    -0x40(%rbp),%rax
    a28f:	48 3b 85 38 ff ff ff 	cmp    -0xc8(%rbp),%rax
    a296:	0f 82 54 ff ff ff    	jb     a1f0 <InitializePaging+0x737>
    a29c:	48 8b 85 28 ff ff ff 	mov    -0xd8(%rbp),%rax
    a2a3:	ba ff ff ff ff       	mov    $0xffffffff,%edx
    a2a8:	48 8d 0d 91 5f 01 00 	lea    0x15f91(%rip),%rcx        # 20240 <_ZL4font+0x1000>
    a2af:	48 89 ce             	mov    %rcx,%rsi
    a2b2:	48 89 c7             	mov    %rax,%rdi
    a2b5:	e8 b4 82 ff ff       	call   256e <_ZN12BasicConsole5PrintEPKcj>
    a2ba:	48 8b 9d 28 ff ff ff 	mov    -0xd8(%rbp),%rbx
    a2c1:	48 8b 85 28 ff ff ff 	mov    -0xd8(%rbp),%rax
    a2c8:	48 8b 80 a0 00 00 00 	mov    0xa0(%rax),%rax
    a2cf:	48 89 c7             	mov    %rax,%rdi
    a2d2:	e8 5d 03 00 00       	call   a634 <_Z10to_hstringm>
    a2d7:	ba ff ff ff ff       	mov    $0xffffffff,%edx
    a2dc:	48 89 c6             	mov    %rax,%rsi
    a2df:	48 89 df             	mov    %rbx,%rdi
    a2e2:	e8 53 83 ff ff       	call   263a <_ZN12BasicConsole7PrintlnEPKcj>
    a2e7:	48 8b 85 28 ff ff ff 	mov    -0xd8(%rbp),%rax
    a2ee:	48 8b 80 a0 00 00 00 	mov    0xa0(%rax),%rax
    a2f5:	0f 22 d8             	mov    %rax,%cr3
    a2f8:	90                   	nop
    a2f9:	48 81 c4 d0 00 00 00 	add    $0xd0,%rsp
    a300:	5b                   	pop    %rbx
    a301:	41 5c                	pop    %r12
    a303:	5d                   	pop    %rbp
    a304:	c3                   	ret

000000000000a305 <InitializeIDT>:
    a305:	f3 0f 1e fa          	endbr64
    a309:	55                   	push   %rbp
    a30a:	48 89 e5             	mov    %rsp,%rbp
    a30d:	41 55                	push   %r13
    a30f:	41 54                	push   %r12
    a311:	53                   	push   %rbx
    a312:	48 83 ec 18          	sub    $0x18,%rsp
    a316:	48 89 7d d8          	mov    %rdi,-0x28(%rbp)
    a31a:	48 89 75 d0          	mov    %rsi,-0x30(%rbp)
    a31e:	48 8b 45 d8          	mov    -0x28(%rbp),%rax
    a322:	48 05 e0 00 00 00    	add    $0xe0,%rax
    a328:	48 89 c7             	mov    %rax,%rdi
    a32b:	e8 ec 8b ff ff       	call   2f1c <_ZN3IDT9CreateIDTEv>
    a330:	48 8b 45 d8          	mov    -0x28(%rbp),%rax
    a334:	ba ff ff ff ff       	mov    $0xffffffff,%edx
    a339:	48 8d 0d 0c 5f 01 00 	lea    0x15f0c(%rip),%rcx        # 2024c <_ZL4font+0x100c>
    a340:	48 89 ce             	mov    %rcx,%rsi
    a343:	48 89 c7             	mov    %rax,%rdi
    a346:	e8 ef 82 ff ff       	call   263a <_ZN12BasicConsole7PrintlnEPKcj>
    a34b:	48 8b 45 d8          	mov    -0x28(%rbp),%rax
    a34f:	48 05 00 11 00 00    	add    $0x1100,%rax
    a355:	48 89 c7             	mov    %rax,%rdi
    a358:	e8 07 7a ff ff       	call   1d64 <_ZN4APIC9CheckAPICEv>
    a35d:	84 c0                	test   %al,%al
    a35f:	0f 84 19 01 00 00    	je     a47e <InitializeIDT+0x179>
    a365:	48 8b 45 d8          	mov    -0x28(%rbp),%rax
    a369:	ba ff ff ff ff       	mov    $0xffffffff,%edx
    a36e:	48 8d 0d ef 5e 01 00 	lea    0x15eef(%rip),%rcx        # 20264 <_ZL4font+0x1024>
    a375:	48 89 ce             	mov    %rcx,%rsi
    a378:	48 89 c7             	mov    %rax,%rdi
    a37b:	e8 ba 82 ff ff       	call   263a <_ZN12BasicConsole7PrintlnEPKcj>
    a380:	48 8b 45 d8          	mov    -0x28(%rbp),%rax
    a384:	48 05 00 11 00 00    	add    $0x1100,%rax
    a38a:	48 89 c7             	mov    %rax,%rdi
    a38d:	e8 80 7a ff ff       	call   1e12 <_ZN4APIC10EnableAPICEv>
    a392:	48 8b 45 d8          	mov    -0x28(%rbp),%rax
    a396:	48 8d 98 80 00 00 00 	lea    0x80(%rax),%rbx
    a39d:	48 8b 45 d8          	mov    -0x28(%rbp),%rax
    a3a1:	48 05 30 11 00 00    	add    $0x1130,%rax
    a3a7:	48 89 c7             	mov    %rax,%rdi
    a3aa:	e8 e3 78 ff ff       	call   1c92 <_ZN4ACPI9GetIOAPICEv>
    a3af:	8b 40 04             	mov    0x4(%rax),%eax
    a3b2:	89 c0                	mov    %eax,%eax
    a3b4:	49 89 c4             	mov    %rax,%r12
    a3b7:	48 8b 45 d8          	mov    -0x28(%rbp),%rax
    a3bb:	48 05 30 11 00 00    	add    $0x1130,%rax
    a3c1:	48 89 c7             	mov    %rax,%rdi
    a3c4:	e8 c9 78 ff ff       	call   1c92 <_ZN4ACPI9GetIOAPICEv>
    a3c9:	8b 40 04             	mov    0x4(%rax),%eax
    a3cc:	89 c2                	mov    %eax,%edx
    a3ce:	48 b8 00 00 00 00 ff 	movabs $0xffffffff00000000,%rax
    a3d5:	ff ff ff 
    a3d8:	48 01 d0             	add    %rdx,%rax
    a3db:	b9 00 00 00 00       	mov    $0x0,%ecx
    a3e0:	4c 89 e2             	mov    %r12,%rdx
    a3e3:	48 89 c6             	mov    %rax,%rsi
    a3e6:	48 89 df             	mov    %rbx,%rdi
    a3e9:	e8 7a ef ff ff       	call   9368 <_ZN16PageTableManager9MapMemoryEPvS0_b>
    a3ee:	48 8b 45 d8          	mov    -0x28(%rbp),%rax
    a3f2:	4c 8d a0 08 11 00 00 	lea    0x1108(%rax),%r12
    a3f9:	48 8b 45 d8          	mov    -0x28(%rbp),%rax
    a3fd:	48 05 30 11 00 00    	add    $0x1130,%rax
    a403:	48 89 c7             	mov    %rax,%rdi
    a406:	e8 87 78 ff ff       	call   1c92 <_ZN4ACPI9GetIOAPICEv>
    a40b:	8b 40 08             	mov    0x8(%rax),%eax
    a40e:	41 89 c5             	mov    %eax,%r13d
    a411:	48 8b 45 d8          	mov    -0x28(%rbp),%rax
    a415:	48 05 30 11 00 00    	add    $0x1130,%rax
    a41b:	48 89 c7             	mov    %rax,%rdi
    a41e:	e8 6f 78 ff ff       	call   1c92 <_ZN4ACPI9GetIOAPICEv>
    a423:	0f b6 40 02          	movzbl 0x2(%rax),%eax
    a427:	0f b6 d8             	movzbl %al,%ebx
    a42a:	48 8b 45 d8          	mov    -0x28(%rbp),%rax
    a42e:	48 05 30 11 00 00    	add    $0x1130,%rax
    a434:	48 89 c7             	mov    %rax,%rdi
    a437:	e8 56 78 ff ff       	call   1c92 <_ZN4ACPI9GetIOAPICEv>
    a43c:	8b 40 04             	mov    0x4(%rax),%eax
    a43f:	89 c2                	mov    %eax,%edx
    a441:	48 b8 00 00 00 00 ff 	movabs $0xffffffff00000000,%rax
    a448:	ff ff ff 
    a44b:	48 01 c2             	add    %rax,%rdx
    a44e:	48 8b 45 d8          	mov    -0x28(%rbp),%rax
    a452:	4d 89 e8             	mov    %r13,%r8
    a455:	48 89 d9             	mov    %rbx,%rcx
    a458:	48 89 c6             	mov    %rax,%rsi
    a45b:	4c 89 e7             	mov    %r12,%rdi
    a45e:	e8 b5 8b ff ff       	call   3018 <_ZN6IOAPIC10InitializeEP12BasicConsolemmm>
    a463:	48 8b 45 d8          	mov    -0x28(%rbp),%rax
    a467:	ba ff ff ff ff       	mov    $0xffffffff,%edx
    a46c:	48 8d 0d 04 5e 01 00 	lea    0x15e04(%rip),%rcx        # 20277 <_ZL4font+0x1037>
    a473:	48 89 ce             	mov    %rcx,%rsi
    a476:	48 89 c7             	mov    %rax,%rdi
    a479:	e8 bc 81 ff ff       	call   263a <_ZN12BasicConsole7PrintlnEPKcj>
    a47e:	fb                   	sti
    a47f:	90                   	nop
    a480:	48 83 c4 18          	add    $0x18,%rsp
    a484:	5b                   	pop    %rbx
    a485:	41 5c                	pop    %r12
    a487:	41 5d                	pop    %r13
    a489:	5d                   	pop    %rbp
    a48a:	c3                   	ret
    a48b:	90                   	nop

000000000000a48c <_ZN18PageFrameAllocator9GetBitmapEv>:
    a48c:	f3 0f 1e fa          	endbr64
    a490:	55                   	push   %rbp
    a491:	48 89 e5             	mov    %rsp,%rbp
    a494:	48 89 7d f8          	mov    %rdi,-0x8(%rbp)
    a498:	48 8b 45 f8          	mov    -0x8(%rbp),%rax
    a49c:	48 8b 50 20          	mov    0x20(%rax),%rdx
    a4a0:	48 8b 40 18          	mov    0x18(%rax),%rax
    a4a4:	5d                   	pop    %rbp
    a4a5:	c3                   	ret

000000000000a4a6 <_Z9to_stringm>:
    a4a6:	f3 0f 1e fa          	endbr64
    a4aa:	55                   	push   %rbp
    a4ab:	48 89 e5             	mov    %rsp,%rbp
    a4ae:	48 89 7d e8          	mov    %rdi,-0x18(%rbp)
    a4b2:	c7 45 fc 14 00 00 00 	movl   $0x14,-0x4(%rbp)
    a4b9:	8b 45 fc             	mov    -0x4(%rbp),%eax
    a4bc:	48 98                	cltq
    a4be:	48 8d 15 5b c4 01 00 	lea    0x1c45b(%rip),%rdx        # 26920 <_ZZ9to_stringmE6buffer>
    a4c5:	c6 04 10 00          	movb   $0x0,(%rax,%rdx,1)
    a4c9:	48 83 7d e8 00       	cmpq   $0x0,-0x18(%rbp)
    a4ce:	0f 85 86 00 00 00    	jne    a55a <_Z9to_stringm+0xb4>
    a4d4:	83 6d fc 01          	subl   $0x1,-0x4(%rbp)
    a4d8:	8b 45 fc             	mov    -0x4(%rbp),%eax
    a4db:	48 98                	cltq
    a4dd:	48 8d 15 3c c4 01 00 	lea    0x1c43c(%rip),%rdx        # 26920 <_ZZ9to_stringmE6buffer>
    a4e4:	c6 04 10 30          	movb   $0x30,(%rax,%rdx,1)
    a4e8:	8b 45 fc             	mov    -0x4(%rbp),%eax
    a4eb:	48 98                	cltq
    a4ed:	48 8d 15 2c c4 01 00 	lea    0x1c42c(%rip),%rdx        # 26920 <_ZZ9to_stringmE6buffer>
    a4f4:	48 01 d0             	add    %rdx,%rax
    a4f7:	eb 77                	jmp    a570 <_Z9to_stringm+0xca>
    a4f9:	48 8b 4d e8          	mov    -0x18(%rbp),%rcx
    a4fd:	48 ba cd cc cc cc cc 	movabs $0xcccccccccccccccd,%rdx
    a504:	cc cc cc 
    a507:	48 89 c8             	mov    %rcx,%rax
    a50a:	48 f7 e2             	mul    %rdx
    a50d:	48 c1 ea 03          	shr    $0x3,%rdx
    a511:	48 89 d0             	mov    %rdx,%rax
    a514:	48 c1 e0 02          	shl    $0x2,%rax
    a518:	48 01 d0             	add    %rdx,%rax
    a51b:	48 01 c0             	add    %rax,%rax
    a51e:	48 29 c1             	sub    %rax,%rcx
    a521:	48 89 ca             	mov    %rcx,%rdx
    a524:	89 d0                	mov    %edx,%eax
    a526:	83 c0 30             	add    $0x30,%eax
    a529:	89 c1                	mov    %eax,%ecx
    a52b:	83 6d fc 01          	subl   $0x1,-0x4(%rbp)
    a52f:	8b 45 fc             	mov    -0x4(%rbp),%eax
    a532:	48 98                	cltq
    a534:	48 8d 15 e5 c3 01 00 	lea    0x1c3e5(%rip),%rdx        # 26920 <_ZZ9to_stringmE6buffer>
    a53b:	88 0c 10             	mov    %cl,(%rax,%rdx,1)
    a53e:	48 8b 45 e8          	mov    -0x18(%rbp),%rax
    a542:	48 ba cd cc cc cc cc 	movabs $0xcccccccccccccccd,%rdx
    a549:	cc cc cc 
    a54c:	48 f7 e2             	mul    %rdx
    a54f:	48 89 d0             	mov    %rdx,%rax
    a552:	48 c1 e8 03          	shr    $0x3,%rax
    a556:	48 89 45 e8          	mov    %rax,-0x18(%rbp)
    a55a:	48 83 7d e8 00       	cmpq   $0x0,-0x18(%rbp)
    a55f:	75 98                	jne    a4f9 <_Z9to_stringm+0x53>
    a561:	8b 45 fc             	mov    -0x4(%rbp),%eax
    a564:	48 98                	cltq
    a566:	48 8d 15 b3 c3 01 00 	lea    0x1c3b3(%rip),%rdx        # 26920 <_ZZ9to_stringmE6buffer>
    a56d:	48 01 d0             	add    %rdx,%rax
    a570:	5d                   	pop    %rbp
    a571:	c3                   	ret

000000000000a572 <_Z9to_stringl>:
    a572:	f3 0f 1e fa          	endbr64
    a576:	55                   	push   %rbp
    a577:	48 89 e5             	mov    %rsp,%rbp
    a57a:	48 89 7d e8          	mov    %rdi,-0x18(%rbp)
    a57e:	48 8d 05 cf c3 01 00 	lea    0x1c3cf(%rip),%rax        # 26954 <_ZZ9to_stringlE6buffer+0x14>
    a585:	48 89 45 f8          	mov    %rax,-0x8(%rbp)
    a589:	48 8b 45 f8          	mov    -0x8(%rbp),%rax
    a58d:	c6 00 00             	movb   $0x0,(%rax)
    a590:	48 8b 45 e8          	mov    -0x18(%rbp),%rax
    a594:	48 c1 e8 3f          	shr    $0x3f,%rax
    a598:	88 45 f7             	mov    %al,-0x9(%rbp)
    a59b:	80 7d f7 00          	cmpb   $0x0,-0x9(%rbp)
    a59f:	74 04                	je     a5a5 <_Z9to_stringl+0x33>
    a5a1:	48 f7 5d e8          	negq   -0x18(%rbp)
    a5a5:	48 8b 4d e8          	mov    -0x18(%rbp),%rcx
    a5a9:	48 ba 67 66 66 66 66 	movabs $0x6666666666666667,%rdx
    a5b0:	66 66 66 
    a5b3:	48 89 c8             	mov    %rcx,%rax
    a5b6:	48 f7 ea             	imul   %rdx
    a5b9:	48 c1 fa 02          	sar    $0x2,%rdx
    a5bd:	48 89 c8             	mov    %rcx,%rax
    a5c0:	48 c1 f8 3f          	sar    $0x3f,%rax
    a5c4:	48 29 c2             	sub    %rax,%rdx
    a5c7:	48 89 d0             	mov    %rdx,%rax
    a5ca:	48 c1 e0 02          	shl    $0x2,%rax
    a5ce:	48 01 d0             	add    %rdx,%rax
    a5d1:	48 01 c0             	add    %rax,%rax
    a5d4:	48 29 c1             	sub    %rax,%rcx
    a5d7:	48 89 ca             	mov    %rcx,%rdx
    a5da:	89 d0                	mov    %edx,%eax
    a5dc:	83 c0 30             	add    $0x30,%eax
    a5df:	89 c2                	mov    %eax,%edx
    a5e1:	48 83 6d f8 01       	subq   $0x1,-0x8(%rbp)
    a5e6:	48 8b 45 f8          	mov    -0x8(%rbp),%rax
    a5ea:	88 10                	mov    %dl,(%rax)
    a5ec:	48 8b 4d e8          	mov    -0x18(%rbp),%rcx
    a5f0:	48 ba 67 66 66 66 66 	movabs $0x6666666666666667,%rdx
    a5f7:	66 66 66 
    a5fa:	48 89 c8             	mov    %rcx,%rax
    a5fd:	48 f7 ea             	imul   %rdx
    a600:	48 89 d0             	mov    %rdx,%rax
    a603:	48 c1 f8 02          	sar    $0x2,%rax
    a607:	48 c1 f9 3f          	sar    $0x3f,%rcx
    a60b:	48 89 ca             	mov    %rcx,%rdx
    a60e:	48 29 d0             	sub    %rdx,%rax
    a611:	48 89 45 e8          	mov    %rax,-0x18(%rbp)
    a615:	48 83 7d e8 00       	cmpq   $0x0,-0x18(%rbp)
    a61a:	7f 89                	jg     a5a5 <_Z9to_stringl+0x33>
    a61c:	80 7d f7 00          	cmpb   $0x0,-0x9(%rbp)
    a620:	74 0c                	je     a62e <_Z9to_stringl+0xbc>
    a622:	48 83 6d f8 01       	subq   $0x1,-0x8(%rbp)
    a627:	48 8b 45 f8          	mov    -0x8(%rbp),%rax
    a62b:	c6 00 2d             	movb   $0x2d,(%rax)
    a62e:	48 8b 45 f8          	mov    -0x8(%rbp),%rax
    a632:	5d                   	pop    %rbp
    a633:	c3                   	ret

000000000000a634 <_Z10to_hstringm>:
    a634:	f3 0f 1e fa          	endbr64
    a638:	55                   	push   %rbp
    a639:	48 89 e5             	mov    %rsp,%rbp
    a63c:	48 89 7d e8          	mov    %rdi,-0x18(%rbp)
    a640:	48 8d 05 2b c3 01 00 	lea    0x1c32b(%rip),%rax        # 26972 <_ZZ10to_hstringmE6buffer+0x12>
    a647:	48 89 45 f8          	mov    %rax,-0x8(%rbp)
    a64b:	48 8b 45 f8          	mov    -0x8(%rbp),%rax
    a64f:	c6 00 00             	movb   $0x0,(%rax)
    a652:	48 8b 45 e8          	mov    -0x18(%rbp),%rax
    a656:	83 e0 0f             	and    $0xf,%eax
    a659:	88 45 f7             	mov    %al,-0x9(%rbp)
    a65c:	80 7d f7 09          	cmpb   $0x9,-0x9(%rbp)
    a660:	77 0b                	ja     a66d <_Z10to_hstringm+0x39>
    a662:	0f b6 45 f7          	movzbl -0x9(%rbp),%eax
    a666:	83 c0 30             	add    $0x30,%eax
    a669:	89 c2                	mov    %eax,%edx
    a66b:	eb 09                	jmp    a676 <_Z10to_hstringm+0x42>
    a66d:	0f b6 45 f7          	movzbl -0x9(%rbp),%eax
    a671:	83 c0 37             	add    $0x37,%eax
    a674:	89 c2                	mov    %eax,%edx
    a676:	48 83 6d f8 01       	subq   $0x1,-0x8(%rbp)
    a67b:	48 8b 45 f8          	mov    -0x8(%rbp),%rax
    a67f:	88 10                	mov    %dl,(%rax)
    a681:	48 c1 6d e8 04       	shrq   $0x4,-0x18(%rbp)
    a686:	48 83 7d e8 00       	cmpq   $0x0,-0x18(%rbp)
    a68b:	75 c5                	jne    a652 <_Z10to_hstringm+0x1e>
    a68d:	48 83 6d f8 01       	subq   $0x1,-0x8(%rbp)
    a692:	48 8b 45 f8          	mov    -0x8(%rbp),%rax
    a696:	c6 00 78             	movb   $0x78,(%rax)
    a699:	48 83 6d f8 01       	subq   $0x1,-0x8(%rbp)
    a69e:	48 8b 45 f8          	mov    -0x8(%rbp),%rax
    a6a2:	c6 00 30             	movb   $0x30,(%rax)
    a6a5:	48 8b 45 f8          	mov    -0x8(%rbp),%rax
    a6a9:	5d                   	pop    %rbp
    a6aa:	c3                   	ret

000000000000a6ab <_Z10to_hstringj>:
    a6ab:	f3 0f 1e fa          	endbr64
    a6af:	55                   	push   %rbp
    a6b0:	48 89 e5             	mov    %rsp,%rbp
    a6b3:	89 7d ec             	mov    %edi,-0x14(%rbp)
    a6b6:	48 8d 05 c5 c2 01 00 	lea    0x1c2c5(%rip),%rax        # 26982 <_ZZ10to_hstringjE6buffer+0xa>
    a6bd:	48 89 45 f8          	mov    %rax,-0x8(%rbp)
    a6c1:	48 8b 45 f8          	mov    -0x8(%rbp),%rax
    a6c5:	c6 00 00             	movb   $0x0,(%rax)
    a6c8:	8b 45 ec             	mov    -0x14(%rbp),%eax
    a6cb:	83 e0 0f             	and    $0xf,%eax
    a6ce:	88 45 f7             	mov    %al,-0x9(%rbp)
    a6d1:	80 7d f7 09          	cmpb   $0x9,-0x9(%rbp)
    a6d5:	77 0b                	ja     a6e2 <_Z10to_hstringj+0x37>
    a6d7:	0f b6 45 f7          	movzbl -0x9(%rbp),%eax
    a6db:	83 c0 30             	add    $0x30,%eax
    a6de:	89 c2                	mov    %eax,%edx
    a6e0:	eb 09                	jmp    a6eb <_Z10to_hstringj+0x40>
    a6e2:	0f b6 45 f7          	movzbl -0x9(%rbp),%eax
    a6e6:	83 c0 37             	add    $0x37,%eax
    a6e9:	89 c2                	mov    %eax,%edx
    a6eb:	48 83 6d f8 01       	subq   $0x1,-0x8(%rbp)
    a6f0:	48 8b 45 f8          	mov    -0x8(%rbp),%rax
    a6f4:	88 10                	mov    %dl,(%rax)
    a6f6:	c1 6d ec 04          	shrl   $0x4,-0x14(%rbp)
    a6fa:	83 7d ec 00          	cmpl   $0x0,-0x14(%rbp)
    a6fe:	75 c8                	jne    a6c8 <_Z10to_hstringj+0x1d>
    a700:	48 83 6d f8 01       	subq   $0x1,-0x8(%rbp)
    a705:	48 8b 45 f8          	mov    -0x8(%rbp),%rax
    a709:	c6 00 78             	movb   $0x78,(%rax)
    a70c:	48 83 6d f8 01       	subq   $0x1,-0x8(%rbp)
    a711:	48 8b 45 f8          	mov    -0x8(%rbp),%rax
    a715:	c6 00 30             	movb   $0x30,(%rax)
    a718:	48 8b 45 f8          	mov    -0x8(%rbp),%rax
    a71c:	5d                   	pop    %rbp
    a71d:	c3                   	ret

000000000000a71e <_Z10to_hstringt>:
    a71e:	f3 0f 1e fa          	endbr64
    a722:	55                   	push   %rbp
    a723:	48 89 e5             	mov    %rsp,%rbp
    a726:	89 f8                	mov    %edi,%eax
    a728:	66 89 45 ec          	mov    %ax,-0x14(%rbp)
    a72c:	48 8d 05 56 c2 01 00 	lea    0x1c256(%rip),%rax        # 26989 <_ZZ10to_hstringtE6buffer+0x6>
    a733:	48 89 45 f8          	mov    %rax,-0x8(%rbp)
    a737:	48 8b 45 f8          	mov    -0x8(%rbp),%rax
    a73b:	c6 00 00             	movb   $0x0,(%rax)
    a73e:	0f b7 45 ec          	movzwl -0x14(%rbp),%eax
    a742:	83 e0 0f             	and    $0xf,%eax
    a745:	88 45 f7             	mov    %al,-0x9(%rbp)
    a748:	80 7d f7 09          	cmpb   $0x9,-0x9(%rbp)
    a74c:	77 0b                	ja     a759 <_Z10to_hstringt+0x3b>
    a74e:	0f b6 45 f7          	movzbl -0x9(%rbp),%eax
    a752:	83 c0 30             	add    $0x30,%eax
    a755:	89 c2                	mov    %eax,%edx
    a757:	eb 09                	jmp    a762 <_Z10to_hstringt+0x44>
    a759:	0f b6 45 f7          	movzbl -0x9(%rbp),%eax
    a75d:	83 c0 37             	add    $0x37,%eax
    a760:	89 c2                	mov    %eax,%edx
    a762:	48 83 6d f8 01       	subq   $0x1,-0x8(%rbp)
    a767:	48 8b 45 f8          	mov    -0x8(%rbp),%rax
    a76b:	88 10                	mov    %dl,(%rax)
    a76d:	66 c1 6d ec 04       	shrw   $0x4,-0x14(%rbp)
    a772:	66 83 7d ec 00       	cmpw   $0x0,-0x14(%rbp)
    a777:	75 c5                	jne    a73e <_Z10to_hstringt+0x20>
    a779:	48 83 6d f8 01       	subq   $0x1,-0x8(%rbp)
    a77e:	48 8b 45 f8          	mov    -0x8(%rbp),%rax
    a782:	c6 00 78             	movb   $0x78,(%rax)
    a785:	48 83 6d f8 01       	subq   $0x1,-0x8(%rbp)
    a78a:	48 8b 45 f8          	mov    -0x8(%rbp),%rax
    a78e:	c6 00 30             	movb   $0x30,(%rax)
    a791:	48 8b 45 f8          	mov    -0x8(%rbp),%rax
    a795:	5d                   	pop    %rbp
    a796:	c3                   	ret

000000000000a797 <_Z10to_hstringh>:
    a797:	f3 0f 1e fa          	endbr64
    a79b:	55                   	push   %rbp
    a79c:	48 89 e5             	mov    %rsp,%rbp
    a79f:	89 f8                	mov    %edi,%eax
    a7a1:	88 45 ec             	mov    %al,-0x14(%rbp)
    a7a4:	48 8d 05 e3 c1 01 00 	lea    0x1c1e3(%rip),%rax        # 2698e <_ZZ10to_hstringhE6buffer+0x4>
    a7ab:	48 89 45 f8          	mov    %rax,-0x8(%rbp)
    a7af:	48 8b 45 f8          	mov    -0x8(%rbp),%rax
    a7b3:	c6 00 00             	movb   $0x0,(%rax)
    a7b6:	0f b6 45 ec          	movzbl -0x14(%rbp),%eax
    a7ba:	83 e0 0f             	and    $0xf,%eax
    a7bd:	88 45 f7             	mov    %al,-0x9(%rbp)
    a7c0:	80 7d f7 09          	cmpb   $0x9,-0x9(%rbp)
    a7c4:	77 0b                	ja     a7d1 <_Z10to_hstringh+0x3a>
    a7c6:	0f b6 45 f7          	movzbl -0x9(%rbp),%eax
    a7ca:	83 c0 30             	add    $0x30,%eax
    a7cd:	89 c2                	mov    %eax,%edx
    a7cf:	eb 09                	jmp    a7da <_Z10to_hstringh+0x43>
    a7d1:	0f b6 45 f7          	movzbl -0x9(%rbp),%eax
    a7d5:	83 c0 37             	add    $0x37,%eax
    a7d8:	89 c2                	mov    %eax,%edx
    a7da:	48 83 6d f8 01       	subq   $0x1,-0x8(%rbp)
    a7df:	48 8b 45 f8          	mov    -0x8(%rbp),%rax
    a7e3:	88 10                	mov    %dl,(%rax)
    a7e5:	c0 6d ec 04          	shrb   $0x4,-0x14(%rbp)
    a7e9:	80 7d ec 00          	cmpb   $0x0,-0x14(%rbp)
    a7ed:	75 c7                	jne    a7b6 <_Z10to_hstringh+0x1f>
    a7ef:	48 83 6d f8 01       	subq   $0x1,-0x8(%rbp)
    a7f4:	48 8b 45 f8          	mov    -0x8(%rbp),%rax
    a7f8:	c6 00 78             	movb   $0x78,(%rax)
    a7fb:	48 83 6d f8 01       	subq   $0x1,-0x8(%rbp)
    a800:	48 8b 45 f8          	mov    -0x8(%rbp),%rax
    a804:	c6 00 30             	movb   $0x30,(%rax)
    a807:	48 8b 45 f8          	mov    -0x8(%rbp),%rax
    a80b:	5d                   	pop    %rbp
    a80c:	c3                   	ret

000000000000a80d <_Z9to_stringdh>:
    a80d:	f3 0f 1e fa          	endbr64
    a811:	55                   	push   %rbp
    a812:	48 89 e5             	mov    %rsp,%rbp
    a815:	f2 0f 11 45 b8       	movsd  %xmm0,-0x48(%rbp)
    a81a:	89 f8                	mov    %edi,%eax
    a81c:	88 45 b4             	mov    %al,-0x4c(%rbp)
    a81f:	48 8d 05 7a c1 01 00 	lea    0x1c17a(%rip),%rax        # 269a0 <_ZZ9to_stringdhE6buffer>
    a826:	48 89 45 f8          	mov    %rax,-0x8(%rbp)
    a82a:	66 0f ef c0          	pxor   %xmm0,%xmm0
    a82e:	66 0f 2f 45 b8       	comisd -0x48(%rbp),%xmm0
    a833:	76 25                	jbe    a85a <_Z9to_stringdh+0x4d>
    a835:	48 8b 45 f8          	mov    -0x8(%rbp),%rax
    a839:	48 8d 50 01          	lea    0x1(%rax),%rdx
    a83d:	48 89 55 f8          	mov    %rdx,-0x8(%rbp)
    a841:	c6 00 2d             	movb   $0x2d,(%rax)
    a844:	f2 0f 10 45 b8       	movsd  -0x48(%rbp),%xmm0
    a849:	f3 0f 7e 0d 4f 6a 01 	movq   0x16a4f(%rip),%xmm1        # 212a0 <_ZL4font+0x1000>
    a850:	00 
    a851:	66 0f 57 c1          	xorpd  %xmm1,%xmm0
    a855:	f2 0f 11 45 b8       	movsd  %xmm0,-0x48(%rbp)
    a85a:	f2 0f 10 45 b8       	movsd  -0x48(%rbp),%xmm0
    a85f:	66 0f 2f 05 49 6a 01 	comisd 0x16a49(%rip),%xmm0        # 212b0 <_ZL4font+0x1010>
    a866:	00 
    a867:	73 10                	jae    a879 <_Z9to_stringdh+0x6c>
    a869:	f2 0f 10 45 b8       	movsd  -0x48(%rbp),%xmm0
    a86e:	f2 48 0f 2c c0       	cvttsd2si %xmm0,%rax
    a873:	48 89 45 f0          	mov    %rax,-0x10(%rbp)
    a877:	eb 28                	jmp    a8a1 <_Z9to_stringdh+0x94>
    a879:	f2 0f 10 45 b8       	movsd  -0x48(%rbp),%xmm0
    a87e:	f2 0f 10 0d 2a 6a 01 	movsd  0x16a2a(%rip),%xmm1        # 212b0 <_ZL4font+0x1010>
    a885:	00 
    a886:	f2 0f 5c c1          	subsd  %xmm1,%xmm0
    a88a:	f2 48 0f 2c c0       	cvttsd2si %xmm0,%rax
    a88f:	48 89 45 f0          	mov    %rax,-0x10(%rbp)
    a893:	48 b8 00 00 00 00 00 	movabs $0x8000000000000000,%rax
    a89a:	00 00 80 
    a89d:	48 31 45 f0          	xor    %rax,-0x10(%rbp)
    a8a1:	48 8b 45 f0          	mov    -0x10(%rbp),%rax
    a8a5:	48 89 45 f0          	mov    %rax,-0x10(%rbp)
    a8a9:	48 8b 45 f0          	mov    -0x10(%rbp),%rax
    a8ad:	48 85 c0             	test   %rax,%rax
    a8b0:	78 0b                	js     a8bd <_Z9to_stringdh+0xb0>
    a8b2:	66 0f ef c0          	pxor   %xmm0,%xmm0
    a8b6:	f2 48 0f 2a c0       	cvtsi2sd %rax,%xmm0
    a8bb:	eb 19                	jmp    a8d6 <_Z9to_stringdh+0xc9>
    a8bd:	48 89 c2             	mov    %rax,%rdx
    a8c0:	48 d1 ea             	shr    $1,%rdx
    a8c3:	83 e0 01             	and    $0x1,%eax
    a8c6:	48 09 c2             	or     %rax,%rdx
    a8c9:	66 0f ef c0          	pxor   %xmm0,%xmm0
    a8cd:	f2 48 0f 2a c2       	cvtsi2sd %rdx,%xmm0
    a8d2:	f2 0f 58 c0          	addsd  %xmm0,%xmm0
    a8d6:	f2 0f 10 4d b8       	movsd  -0x48(%rbp),%xmm1
    a8db:	f2 0f 5c c8          	subsd  %xmm0,%xmm1
    a8df:	f2 0f 11 4d e8       	movsd  %xmm1,-0x18(%rbp)
    a8e4:	48 8d 05 d4 c0 01 00 	lea    0x1c0d4(%rip),%rax        # 269bf <_ZZ9to_stringdhE6buffer+0x1f>
    a8eb:	48 89 45 d0          	mov    %rax,-0x30(%rbp)
    a8ef:	48 8b 45 d0          	mov    -0x30(%rbp),%rax
    a8f3:	c6 00 00             	movb   $0x0,(%rax)
    a8f6:	48 8b 45 d0          	mov    -0x30(%rbp),%rax
    a8fa:	48 89 45 e0          	mov    %rax,-0x20(%rbp)
    a8fe:	48 8b 4d f0          	mov    -0x10(%rbp),%rcx
    a902:	48 ba cd cc cc cc cc 	movabs $0xcccccccccccccccd,%rdx
    a909:	cc cc cc 
    a90c:	48 89 c8             	mov    %rcx,%rax
    a90f:	48 f7 e2             	mul    %rdx
    a912:	48 c1 ea 03          	shr    $0x3,%rdx
    a916:	48 89 d0             	mov    %rdx,%rax
    a919:	48 c1 e0 02          	shl    $0x2,%rax
    a91d:	48 01 d0             	add    %rdx,%rax
    a920:	48 01 c0             	add    %rax,%rax
    a923:	48 29 c1             	sub    %rax,%rcx
    a926:	48 89 ca             	mov    %rcx,%rdx
    a929:	89 d0                	mov    %edx,%eax
    a92b:	83 c0 30             	add    $0x30,%eax
    a92e:	89 c2                	mov    %eax,%edx
    a930:	48 83 6d e0 01       	subq   $0x1,-0x20(%rbp)
    a935:	48 8b 45 e0          	mov    -0x20(%rbp),%rax
    a939:	88 10                	mov    %dl,(%rax)
    a93b:	48 8b 45 f0          	mov    -0x10(%rbp),%rax
    a93f:	48 ba cd cc cc cc cc 	movabs $0xcccccccccccccccd,%rdx
    a946:	cc cc cc 
    a949:	48 f7 e2             	mul    %rdx
    a94c:	48 89 d0             	mov    %rdx,%rax
    a94f:	48 c1 e8 03          	shr    $0x3,%rax
    a953:	48 89 45 f0          	mov    %rax,-0x10(%rbp)
    a957:	48 83 7d f0 00       	cmpq   $0x0,-0x10(%rbp)
    a95c:	75 a0                	jne    a8fe <_Z9to_stringdh+0xf1>
    a95e:	eb 1d                	jmp    a97d <_Z9to_stringdh+0x170>
    a960:	48 8b 45 e0          	mov    -0x20(%rbp),%rax
    a964:	48 8d 50 01          	lea    0x1(%rax),%rdx
    a968:	48 89 55 e0          	mov    %rdx,-0x20(%rbp)
    a96c:	0f b6 10             	movzbl (%rax),%edx
    a96f:	48 8b 45 f8          	mov    -0x8(%rbp),%rax
    a973:	48 8d 48 01          	lea    0x1(%rax),%rcx
    a977:	48 89 4d f8          	mov    %rcx,-0x8(%rbp)
    a97b:	88 10                	mov    %dl,(%rax)
    a97d:	48 8b 45 e0          	mov    -0x20(%rbp),%rax
    a981:	0f b6 00             	movzbl (%rax),%eax
    a984:	84 c0                	test   %al,%al
    a986:	75 d8                	jne    a960 <_Z9to_stringdh+0x153>
    a988:	48 8b 45 f8          	mov    -0x8(%rbp),%rax
    a98c:	48 8d 50 01          	lea    0x1(%rax),%rdx
    a990:	48 89 55 f8          	mov    %rdx,-0x8(%rbp)
    a994:	c6 00 2e             	movb   $0x2e,(%rax)
    a997:	c6 45 df 00          	movb   $0x0,-0x21(%rbp)
    a99b:	eb 53                	jmp    a9f0 <_Z9to_stringdh+0x1e3>
    a99d:	f2 0f 10 4d e8       	movsd  -0x18(%rbp),%xmm1
    a9a2:	f2 0f 10 05 0e 69 01 	movsd  0x1690e(%rip),%xmm0        # 212b8 <_ZL4font+0x1018>
    a9a9:	00 
    a9aa:	f2 0f 59 c1          	mulsd  %xmm1,%xmm0
    a9ae:	f2 0f 11 45 e8       	movsd  %xmm0,-0x18(%rbp)
    a9b3:	f2 0f 2c 45 e8       	cvttsd2si -0x18(%rbp),%eax
    a9b8:	88 45 cf             	mov    %al,-0x31(%rbp)
    a9bb:	0f b6 45 cf          	movzbl -0x31(%rbp),%eax
    a9bf:	83 c0 30             	add    $0x30,%eax
    a9c2:	89 c1                	mov    %eax,%ecx
    a9c4:	48 8b 45 f8          	mov    -0x8(%rbp),%rax
    a9c8:	48 8d 50 01          	lea    0x1(%rax),%rdx
    a9cc:	48 89 55 f8          	mov    %rdx,-0x8(%rbp)
    a9d0:	88 08                	mov    %cl,(%rax)
    a9d2:	0f b6 45 cf          	movzbl -0x31(%rbp),%eax
    a9d6:	66 0f ef c9          	pxor   %xmm1,%xmm1
    a9da:	f2 0f 2a c8          	cvtsi2sd %eax,%xmm1
    a9de:	f2 0f 10 45 e8       	movsd  -0x18(%rbp),%xmm0
    a9e3:	f2 0f 5c c1          	subsd  %xmm1,%xmm0
    a9e7:	f2 0f 11 45 e8       	movsd  %xmm0,-0x18(%rbp)
    a9ec:	80 45 df 01          	addb   $0x1,-0x21(%rbp)
    a9f0:	0f b6 45 df          	movzbl -0x21(%rbp),%eax
    a9f4:	3a 45 b4             	cmp    -0x4c(%rbp),%al
    a9f7:	72 a4                	jb     a99d <_Z9to_stringdh+0x190>
    a9f9:	48 8b 45 f8          	mov    -0x8(%rbp),%rax
    a9fd:	c6 00 00             	movb   $0x0,(%rax)
    aa00:	48 8d 05 99 bf 01 00 	lea    0x1bf99(%rip),%rax        # 269a0 <_ZZ9to_stringdhE6buffer>
    aa07:	5d                   	pop    %rbp
    aa08:	c3                   	ret

000000000000aa09 <_Z9to_stringd>:
    aa09:	f3 0f 1e fa          	endbr64
    aa0d:	55                   	push   %rbp
    aa0e:	48 89 e5             	mov    %rsp,%rbp
    aa11:	f2 0f 11 45 b8       	movsd  %xmm0,-0x48(%rbp)
    aa16:	48 8d 05 a3 bf 01 00 	lea    0x1bfa3(%rip),%rax        # 269c0 <_ZZ9to_stringdE6buffer>
    aa1d:	48 89 45 f8          	mov    %rax,-0x8(%rbp)
    aa21:	66 0f ef c0          	pxor   %xmm0,%xmm0
    aa25:	66 0f 2f 45 b8       	comisd -0x48(%rbp),%xmm0
    aa2a:	76 25                	jbe    aa51 <_Z9to_stringd+0x48>
    aa2c:	48 8b 45 f8          	mov    -0x8(%rbp),%rax
    aa30:	48 8d 50 01          	lea    0x1(%rax),%rdx
    aa34:	48 89 55 f8          	mov    %rdx,-0x8(%rbp)
    aa38:	c6 00 2d             	movb   $0x2d,(%rax)
    aa3b:	f2 0f 10 45 b8       	movsd  -0x48(%rbp),%xmm0
    aa40:	f3 0f 7e 0d 58 68 01 	movq   0x16858(%rip),%xmm1        # 212a0 <_ZL4font+0x1000>
    aa47:	00 
    aa48:	66 0f 57 c1          	xorpd  %xmm1,%xmm0
    aa4c:	f2 0f 11 45 b8       	movsd  %xmm0,-0x48(%rbp)
    aa51:	f2 0f 10 45 b8       	movsd  -0x48(%rbp),%xmm0
    aa56:	66 0f 2f 05 52 68 01 	comisd 0x16852(%rip),%xmm0        # 212b0 <_ZL4font+0x1010>
    aa5d:	00 
    aa5e:	73 10                	jae    aa70 <_Z9to_stringd+0x67>
    aa60:	f2 0f 10 45 b8       	movsd  -0x48(%rbp),%xmm0
    aa65:	f2 48 0f 2c c0       	cvttsd2si %xmm0,%rax
    aa6a:	48 89 45 f0          	mov    %rax,-0x10(%rbp)
    aa6e:	eb 28                	jmp    aa98 <_Z9to_stringd+0x8f>
    aa70:	f2 0f 10 45 b8       	movsd  -0x48(%rbp),%xmm0
    aa75:	f2 0f 10 0d 33 68 01 	movsd  0x16833(%rip),%xmm1        # 212b0 <_ZL4font+0x1010>
    aa7c:	00 
    aa7d:	f2 0f 5c c1          	subsd  %xmm1,%xmm0
    aa81:	f2 48 0f 2c c0       	cvttsd2si %xmm0,%rax
    aa86:	48 89 45 f0          	mov    %rax,-0x10(%rbp)
    aa8a:	48 b8 00 00 00 00 00 	movabs $0x8000000000000000,%rax
    aa91:	00 00 80 
    aa94:	48 31 45 f0          	xor    %rax,-0x10(%rbp)
    aa98:	48 8b 45 f0          	mov    -0x10(%rbp),%rax
    aa9c:	48 89 45 f0          	mov    %rax,-0x10(%rbp)
    aaa0:	48 8b 45 f0          	mov    -0x10(%rbp),%rax
    aaa4:	48 85 c0             	test   %rax,%rax
    aaa7:	78 0b                	js     aab4 <_Z9to_stringd+0xab>
    aaa9:	66 0f ef c0          	pxor   %xmm0,%xmm0
    aaad:	f2 48 0f 2a c0       	cvtsi2sd %rax,%xmm0
    aab2:	eb 19                	jmp    aacd <_Z9to_stringd+0xc4>
    aab4:	48 89 c2             	mov    %rax,%rdx
    aab7:	48 d1 ea             	shr    $1,%rdx
    aaba:	83 e0 01             	and    $0x1,%eax
    aabd:	48 09 c2             	or     %rax,%rdx
    aac0:	66 0f ef c0          	pxor   %xmm0,%xmm0
    aac4:	f2 48 0f 2a c2       	cvtsi2sd %rdx,%xmm0
    aac9:	f2 0f 58 c0          	addsd  %xmm0,%xmm0
    aacd:	f2 0f 10 4d b8       	movsd  -0x48(%rbp),%xmm1
    aad2:	f2 0f 5c c8          	subsd  %xmm0,%xmm1
    aad6:	f2 0f 11 4d e8       	movsd  %xmm1,-0x18(%rbp)
    aadb:	48 8d 05 fd be 01 00 	lea    0x1befd(%rip),%rax        # 269df <_ZZ9to_stringdE6buffer+0x1f>
    aae2:	48 89 45 d0          	mov    %rax,-0x30(%rbp)
    aae6:	48 8b 45 d0          	mov    -0x30(%rbp),%rax
    aaea:	c6 00 00             	movb   $0x0,(%rax)
    aaed:	48 8b 45 d0          	mov    -0x30(%rbp),%rax
    aaf1:	48 89 45 e0          	mov    %rax,-0x20(%rbp)
    aaf5:	48 8b 4d f0          	mov    -0x10(%rbp),%rcx
    aaf9:	48 ba cd cc cc cc cc 	movabs $0xcccccccccccccccd,%rdx
    ab00:	cc cc cc 
    ab03:	48 89 c8             	mov    %rcx,%rax
    ab06:	48 f7 e2             	mul    %rdx
    ab09:	48 c1 ea 03          	shr    $0x3,%rdx
    ab0d:	48 89 d0             	mov    %rdx,%rax
    ab10:	48 c1 e0 02          	shl    $0x2,%rax
    ab14:	48 01 d0             	add    %rdx,%rax
    ab17:	48 01 c0             	add    %rax,%rax
    ab1a:	48 29 c1             	sub    %rax,%rcx
    ab1d:	48 89 ca             	mov    %rcx,%rdx
    ab20:	89 d0                	mov    %edx,%eax
    ab22:	83 c0 30             	add    $0x30,%eax
    ab25:	89 c2                	mov    %eax,%edx
    ab27:	48 83 6d e0 01       	subq   $0x1,-0x20(%rbp)
    ab2c:	48 8b 45 e0          	mov    -0x20(%rbp),%rax
    ab30:	88 10                	mov    %dl,(%rax)
    ab32:	48 8b 45 f0          	mov    -0x10(%rbp),%rax
    ab36:	48 ba cd cc cc cc cc 	movabs $0xcccccccccccccccd,%rdx
    ab3d:	cc cc cc 
    ab40:	48 f7 e2             	mul    %rdx
    ab43:	48 89 d0             	mov    %rdx,%rax
    ab46:	48 c1 e8 03          	shr    $0x3,%rax
    ab4a:	48 89 45 f0          	mov    %rax,-0x10(%rbp)
    ab4e:	48 83 7d f0 00       	cmpq   $0x0,-0x10(%rbp)
    ab53:	75 a0                	jne    aaf5 <_Z9to_stringd+0xec>
    ab55:	eb 1d                	jmp    ab74 <_Z9to_stringd+0x16b>
    ab57:	48 8b 45 e0          	mov    -0x20(%rbp),%rax
    ab5b:	48 8d 50 01          	lea    0x1(%rax),%rdx
    ab5f:	48 89 55 e0          	mov    %rdx,-0x20(%rbp)
    ab63:	0f b6 10             	movzbl (%rax),%edx
    ab66:	48 8b 45 f8          	mov    -0x8(%rbp),%rax
    ab6a:	48 8d 48 01          	lea    0x1(%rax),%rcx
    ab6e:	48 89 4d f8          	mov    %rcx,-0x8(%rbp)
    ab72:	88 10                	mov    %dl,(%rax)
    ab74:	48 8b 45 e0          	mov    -0x20(%rbp),%rax
    ab78:	0f b6 00             	movzbl (%rax),%eax
    ab7b:	84 c0                	test   %al,%al
    ab7d:	75 d8                	jne    ab57 <_Z9to_stringd+0x14e>
    ab7f:	48 8b 45 f8          	mov    -0x8(%rbp),%rax
    ab83:	48 8d 50 01          	lea    0x1(%rax),%rdx
    ab87:	48 89 55 f8          	mov    %rdx,-0x8(%rbp)
    ab8b:	c6 00 2e             	movb   $0x2e,(%rax)
    ab8e:	c7 45 dc 00 00 00 00 	movl   $0x0,-0x24(%rbp)
    ab95:	eb 53                	jmp    abea <_Z9to_stringd+0x1e1>
    ab97:	f2 0f 10 4d e8       	movsd  -0x18(%rbp),%xmm1
    ab9c:	f2 0f 10 05 14 67 01 	movsd  0x16714(%rip),%xmm0        # 212b8 <_ZL4font+0x1018>
    aba3:	00 
    aba4:	f2 0f 59 c1          	mulsd  %xmm1,%xmm0
    aba8:	f2 0f 11 45 e8       	movsd  %xmm0,-0x18(%rbp)
    abad:	f2 0f 2c 45 e8       	cvttsd2si -0x18(%rbp),%eax
    abb2:	88 45 cf             	mov    %al,-0x31(%rbp)
    abb5:	0f b6 45 cf          	movzbl -0x31(%rbp),%eax
    abb9:	83 c0 30             	add    $0x30,%eax
    abbc:	89 c1                	mov    %eax,%ecx
    abbe:	48 8b 45 f8          	mov    -0x8(%rbp),%rax
    abc2:	48 8d 50 01          	lea    0x1(%rax),%rdx
    abc6:	48 89 55 f8          	mov    %rdx,-0x8(%rbp)
    abca:	88 08                	mov    %cl,(%rax)
    abcc:	0f b6 45 cf          	movzbl -0x31(%rbp),%eax
    abd0:	66 0f ef c9          	pxor   %xmm1,%xmm1
    abd4:	f2 0f 2a c8          	cvtsi2sd %eax,%xmm1
    abd8:	f2 0f 10 45 e8       	movsd  -0x18(%rbp),%xmm0
    abdd:	f2 0f 5c c1          	subsd  %xmm1,%xmm0
    abe1:	f2 0f 11 45 e8       	movsd  %xmm0,-0x18(%rbp)
    abe6:	83 45 dc 01          	addl   $0x1,-0x24(%rbp)
    abea:	83 7d dc 01          	cmpl   $0x1,-0x24(%rbp)
    abee:	7e a7                	jle    ab97 <_Z9to_stringd+0x18e>
    abf0:	48 8b 45 f8          	mov    -0x8(%rbp),%rax
    abf4:	c6 00 00             	movb   $0x0,(%rax)
    abf7:	48 8d 05 c2 bd 01 00 	lea    0x1bdc2(%rip),%rax        # 269c0 <_ZZ9to_stringdE6buffer>
    abfe:	5d                   	pop    %rbp
    abff:	c3                   	ret

000000000000ac00 <_start>:
    ac00:	f3 0f 1e fa          	endbr64
    ac04:	55                   	push   %rbp
    ac05:	48 89 e5             	mov    %rsp,%rbp
    ac08:	53                   	push   %rbx
    ac09:	48 81 ec 00 10 00 00 	sub    $0x1000,%rsp
    ac10:	48 83 0c 24 00       	orq    $0x0,(%rsp)
    ac15:	48 81 ec 58 02 00 00 	sub    $0x258,%rsp
    ac1c:	48 89 bd a8 ed ff ff 	mov    %rdi,-0x1258(%rbp)
    ac23:	fa                   	cli
    ac24:	48 8d 05 b5 fd 01 00 	lea    0x1fdb5(%rip),%rax        # 2a9e0 <_stack_end>
    ac2b:	48 89 c4             	mov    %rax,%rsp
    ac2e:	48 8d 15 ab fd 01 00 	lea    0x1fdab(%rip),%rdx        # 2a9e0 <_stack_end>
    ac35:	48 b8 00 00 00 00 ff 	movabs $0xffffffff00000000,%rax
    ac3c:	ff ff ff 
    ac3f:	48 01 d0             	add    %rdx,%rax
    ac42:	48 89 45 e8          	mov    %rax,-0x18(%rbp)
    ac46:	48 8d 05 f3 00 00 00 	lea    0xf3(%rip),%rax        # ad40 <start>
    ac4d:	48 89 45 e0          	mov    %rax,-0x20(%rbp)
    ac51:	48 ba 00 f0 ff ff fe 	movabs $0xfffffffefffff000,%rdx
    ac58:	ff ff ff 
    ac5b:	48 8b 45 e0          	mov    -0x20(%rbp),%rax
    ac5f:	48 01 d0             	add    %rdx,%rax
    ac62:	48 89 45 d8          	mov    %rax,-0x28(%rbp)
    ac66:	48 8b 45 d8          	mov    -0x28(%rbp),%rax
    ac6a:	48 89 45 d0          	mov    %rax,-0x30(%rbp)
    ac6e:	48 8b 95 a8 ed ff ff 	mov    -0x1258(%rbp),%rdx
    ac75:	48 8d 85 b0 ed ff ff 	lea    -0x1250(%rbp),%rax
    ac7c:	48 89 d6             	mov    %rdx,%rsi
    ac7f:	48 89 c7             	mov    %rax,%rdi
    ac82:	e8 a1 8f ff ff       	call   3c28 <_ZN14KernelServicesC1EP8BootInfo>
    ac87:	48 8b 85 a8 ed ff ff 	mov    -0x1258(%rbp),%rax
    ac8e:	48 8b 08             	mov    (%rax),%rcx
    ac91:	48 8b 58 08          	mov    0x8(%rax),%rbx
    ac95:	48 89 8d 78 ff ff ff 	mov    %rcx,-0x88(%rbp)
    ac9c:	48 89 5d 80          	mov    %rbx,-0x80(%rbp)
    aca0:	48 8b 48 10          	mov    0x10(%rax),%rcx
    aca4:	48 8b 58 18          	mov    0x18(%rax),%rbx
    aca8:	48 89 4d 88          	mov    %rcx,-0x78(%rbp)
    acac:	48 89 5d 90          	mov    %rbx,-0x70(%rbp)
    acb0:	48 8b 48 20          	mov    0x20(%rax),%rcx
    acb4:	48 8b 58 28          	mov    0x28(%rax),%rbx
    acb8:	48 89 4d 98          	mov    %rcx,-0x68(%rbp)
    acbc:	48 89 5d a0          	mov    %rbx,-0x60(%rbp)
    acc0:	48 8b 48 30          	mov    0x30(%rax),%rcx
    acc4:	48 8b 58 38          	mov    0x38(%rax),%rbx
    acc8:	48 89 4d a8          	mov    %rcx,-0x58(%rbp)
    accc:	48 89 5d b0          	mov    %rbx,-0x50(%rbp)
    acd0:	48 8b 50 48          	mov    0x48(%rax),%rdx
    acd4:	48 8b 40 40          	mov    0x40(%rax),%rax
    acd8:	48 89 45 b8          	mov    %rax,-0x48(%rbp)
    acdc:	48 89 55 c0          	mov    %rdx,-0x40(%rbp)
    ace0:	48 8b 85 a8 ed ff ff 	mov    -0x1258(%rbp),%rax
    ace7:	48 8b 00             	mov    (%rax),%rax
    acea:	48 89 85 b8 ed ff ff 	mov    %rax,-0x1248(%rbp)
    acf1:	48 8b 95 a8 ed ff ff 	mov    -0x1258(%rbp),%rdx
    acf8:	48 8d 85 b0 ed ff ff 	lea    -0x1250(%rbp),%rax
    acff:	48 89 d6             	mov    %rdx,%rsi
    ad02:	48 89 c7             	mov    %rax,%rdi
    ad05:	e8 af ed ff ff       	call   9ab9 <InitializePaging>
    ad0a:	48 8b 45 e8          	mov    -0x18(%rbp),%rax
    ad0e:	48 8b 55 d0          	mov    -0x30(%rbp),%rdx
    ad12:	48 8d 8d b0 ed ff ff 	lea    -0x1250(%rbp),%rcx
    ad19:	48 8d b5 b0 ed ff ff 	lea    -0x1250(%rbp),%rsi
    ad20:	48 81 c6 c8 11 00 00 	add    $0x11c8,%rsi
    ad27:	48 89 cf             	mov    %rcx,%rdi
    ad2a:	48 89 c4             	mov    %rax,%rsp
    ad2d:	ff e2                	jmp    *%rdx
    ad2f:	48 8d 85 b0 ed ff ff 	lea    -0x1250(%rbp),%rax
    ad36:	48 89 c7             	mov    %rax,%rdi
    ad39:	e8 7e 05 00 00       	call   b2bc <_ZN14KernelServicesD1Ev>
    ad3e:	0f 0b                	ud2

000000000000ad40 <start>:
    ad40:	f3 0f 1e fa          	endbr64
    ad44:	55                   	push   %rbp
    ad45:	48 89 e5             	mov    %rsp,%rbp
    ad48:	53                   	push   %rbx
    ad49:	48 83 ec 58          	sub    $0x58,%rsp
    ad4d:	48 89 7d a8          	mov    %rdi,-0x58(%rbp)
    ad51:	48 89 75 a0          	mov    %rsi,-0x60(%rbp)
    ad55:	48 8d 05 00 00 00 00 	lea    0x0(%rip),%rax        # ad5c <start+0x1c>
    ad5c:	48 89 45 d8          	mov    %rax,-0x28(%rbp)
    ad60:	48 8b 45 a8          	mov    -0x58(%rbp),%rax
    ad64:	48 8b 90 d0 11 00 00 	mov    0x11d0(%rax),%rdx
    ad6b:	48 8b 45 a8          	mov    -0x58(%rbp),%rax
    ad6f:	48 8b 80 c8 11 00 00 	mov    0x11c8(%rax),%rax
    ad76:	be 00 00 00 00       	mov    $0x0,%esi
    ad7b:	48 89 c7             	mov    %rax,%rdi
    ad7e:	e8 54 dc ff ff       	call   89d7 <memsetC>
    ad83:	48 8b 5d a8          	mov    -0x58(%rbp),%rbx
    ad87:	48 8b 45 d8          	mov    -0x28(%rbp),%rax
    ad8b:	48 89 c7             	mov    %rax,%rdi
    ad8e:	e8 a1 f8 ff ff       	call   a634 <_Z10to_hstringm>
    ad93:	ba ff ff ff ff       	mov    $0xffffffff,%edx
    ad98:	48 89 c6             	mov    %rax,%rsi
    ad9b:	48 89 df             	mov    %rbx,%rdi
    ad9e:	e8 97 78 ff ff       	call   263a <_ZN12BasicConsole7PrintlnEPKcj>
    ada3:	48 8b 5d a8          	mov    -0x58(%rbp),%rbx
    ada7:	48 8b 45 a8          	mov    -0x58(%rbp),%rax
    adab:	48 8b 80 08 12 00 00 	mov    0x1208(%rax),%rax
    adb2:	48 89 c7             	mov    %rax,%rdi
    adb5:	e8 7a f8 ff ff       	call   a634 <_Z10to_hstringm>
    adba:	ba ff ff ff ff       	mov    $0xffffffff,%edx
    adbf:	48 89 c6             	mov    %rax,%rsi
    adc2:	48 89 df             	mov    %rbx,%rdi
    adc5:	e8 70 78 ff ff       	call   263a <_ZN12BasicConsole7PrintlnEPKcj>
    adca:	48 8b 45 a8          	mov    -0x58(%rbp),%rax
    adce:	48 8d 88 b8 11 00 00 	lea    0x11b8(%rax),%rcx
    add5:	48 8b 45 a0          	mov    -0x60(%rbp),%rax
    add9:	48 8b 50 48          	mov    0x48(%rax),%rdx
    addd:	48 8b 45 a0          	mov    -0x60(%rbp),%rax
    ade1:	48 8b 40 40          	mov    0x40(%rax),%rax
    ade5:	48 89 c6             	mov    %rax,%rsi
    ade8:	48 89 cf             	mov    %rcx,%rdi
    adeb:	e8 60 87 ff ff       	call   3550 <_ZN12InitialRamFS10InitializeEPvm>
    adf0:	48 8b 45 a8          	mov    -0x58(%rbp),%rax
    adf4:	48 05 b8 11 00 00    	add    $0x11b8,%rax
    adfa:	48 8d 15 bf 74 01 00 	lea    0x174bf(%rip),%rdx        # 222c0 <_ZL4font+0x1000>
    ae01:	48 89 d6             	mov    %rdx,%rsi
    ae04:	48 89 c7             	mov    %rax,%rdi
    ae07:	e8 36 8c ff ff       	call   3a42 <_ZN12InitialRamFS4listEPc>
    ae0c:	48 89 45 d0          	mov    %rax,-0x30(%rbp)
    ae10:	48 83 7d d0 00       	cmpq   $0x0,-0x30(%rbp)
    ae15:	75 1b                	jne    ae32 <start+0xf2>
    ae17:	48 8b 45 a8          	mov    -0x58(%rbp),%rax
    ae1b:	ba ff ff ff ff       	mov    $0xffffffff,%edx
    ae20:	48 8d 0d 9a 74 01 00 	lea    0x1749a(%rip),%rcx        # 222c1 <_ZL4font+0x1001>
    ae27:	48 89 ce             	mov    %rcx,%rsi
    ae2a:	48 89 c7             	mov    %rax,%rdi
    ae2d:	e8 08 78 ff ff       	call   263a <_ZN12BasicConsole7PrintlnEPKcj>
    ae32:	48 8b 45 a8          	mov    -0x58(%rbp),%rax
    ae36:	ba ff ff ff ff       	mov    $0xffffffff,%edx
    ae3b:	48 8d 0d 94 74 01 00 	lea    0x17494(%rip),%rcx        # 222d6 <_ZL4font+0x1016>
    ae42:	48 89 ce             	mov    %rcx,%rsi
    ae45:	48 89 c7             	mov    %rax,%rdi
    ae48:	e8 ed 77 ff ff       	call   263a <_ZN12BasicConsole7PrintlnEPKcj>
    ae4d:	48 8b 45 d0          	mov    -0x30(%rbp),%rax
    ae51:	48 89 45 e8          	mov    %rax,-0x18(%rbp)
    ae55:	eb 60                	jmp    aeb7 <start+0x177>
    ae57:	48 8b 45 a8          	mov    -0x58(%rbp),%rax
    ae5b:	ba ff ff ff ff       	mov    $0xffffffff,%edx
    ae60:	48 8d 0d 7f 74 01 00 	lea    0x1747f(%rip),%rcx        # 222e6 <_ZL4font+0x1026>
    ae67:	48 89 ce             	mov    %rcx,%rsi
    ae6a:	48 89 c7             	mov    %rax,%rdi
    ae6d:	e8 fc 76 ff ff       	call   256e <_ZN12BasicConsole5PrintEPKcj>
    ae72:	48 8b 45 a8          	mov    -0x58(%rbp),%rax
    ae76:	48 8b 4d e8          	mov    -0x18(%rbp),%rcx
    ae7a:	ba ff ff ff ff       	mov    $0xffffffff,%edx
    ae7f:	48 89 ce             	mov    %rcx,%rsi
    ae82:	48 89 c7             	mov    %rax,%rdi
    ae85:	e8 b0 77 ff ff       	call   263a <_ZN12BasicConsole7PrintlnEPKcj>
    ae8a:	48 c7 45 e0 00 00 00 	movq   $0x0,-0x20(%rbp)
    ae91:	00 
    ae92:	eb 05                	jmp    ae99 <start+0x159>
    ae94:	48 83 45 e0 01       	addq   $0x1,-0x20(%rbp)
    ae99:	48 8b 55 e8          	mov    -0x18(%rbp),%rdx
    ae9d:	48 8b 45 e0          	mov    -0x20(%rbp),%rax
    aea1:	48 01 d0             	add    %rdx,%rax
    aea4:	0f b6 00             	movzbl (%rax),%eax
    aea7:	84 c0                	test   %al,%al
    aea9:	75 e9                	jne    ae94 <start+0x154>
    aeab:	48 8b 45 e0          	mov    -0x20(%rbp),%rax
    aeaf:	48 83 c0 01          	add    $0x1,%rax
    aeb3:	48 01 45 e8          	add    %rax,-0x18(%rbp)
    aeb7:	48 8b 45 e8          	mov    -0x18(%rbp),%rax
    aebb:	0f b6 00             	movzbl (%rax),%eax
    aebe:	84 c0                	test   %al,%al
    aec0:	75 95                	jne    ae57 <start+0x117>
    aec2:	48 8b 45 a8          	mov    -0x58(%rbp),%rax
    aec6:	48 05 58 11 00 00    	add    $0x1158,%rax
    aecc:	48 89 c7             	mov    %rax,%rdi
    aecf:	e8 16 d4 ff ff       	call   82ea <_ZN13HeapAllocator10InitializeEv>
    aed4:	48 8b 45 a8          	mov    -0x58(%rbp),%rax
    aed8:	48 05 a8 00 00 00    	add    $0xa8,%rax
    aede:	48 89 c7             	mov    %rax,%rdi
    aee1:	e8 c8 7b ff ff       	call   2aae <_ZN3GDT14Create64BitGDTEv>
    aee6:	48 8b 45 a8          	mov    -0x58(%rbp),%rax
    aeea:	48 8d 88 30 11 00 00 	lea    0x1130(%rax),%rcx
    aef1:	48 8b 45 a8          	mov    -0x58(%rbp),%rax
    aef5:	48 8b 90 00 12 00 00 	mov    0x1200(%rax),%rdx
    aefc:	48 8b 45 a8          	mov    -0x58(%rbp),%rax
    af00:	48 89 c6             	mov    %rax,%rsi
    af03:	48 89 cf             	mov    %rcx,%rdi
    af06:	e8 15 62 ff ff       	call   1120 <_ZN4ACPI10InitializeEP12BasicConsolePv>
    af0b:	48 8b 55 a0          	mov    -0x60(%rbp),%rdx
    af0f:	48 8b 45 a8          	mov    -0x58(%rbp),%rax
    af13:	48 89 d6             	mov    %rdx,%rsi
    af16:	48 89 c7             	mov    %rax,%rdi
    af19:	e8 e7 f3 ff ff       	call   a305 <InitializeIDT>
    af1e:	48 8b 45 a8          	mov    -0x58(%rbp),%rax
    af22:	ba ff ff ff ff       	mov    $0xffffffff,%edx
    af27:	48 8d 0d bc 73 01 00 	lea    0x173bc(%rip),%rcx        # 222ea <_ZL4font+0x102a>
    af2e:	48 89 ce             	mov    %rcx,%rsi
    af31:	48 89 c7             	mov    %rax,%rdi
    af34:	e8 35 76 ff ff       	call   256e <_ZN12BasicConsole5PrintEPKcj>
    af39:	48 8b 5d a8          	mov    -0x58(%rbp),%rbx
    af3d:	48 8b 45 a8          	mov    -0x58(%rbp),%rax
    af41:	48 05 30 11 00 00    	add    $0x1130,%rax
    af47:	48 89 c7             	mov    %rax,%rdi
    af4a:	e8 49 67 ff ff       	call   1698 <_ZN4ACPI7GetMADTEv>
    af4f:	48 89 c7             	mov    %rax,%rdi
    af52:	e8 dd f6 ff ff       	call   a634 <_Z10to_hstringm>
    af57:	ba ff ff ff ff       	mov    $0xffffffff,%edx
    af5c:	48 89 c6             	mov    %rax,%rsi
    af5f:	48 89 df             	mov    %rbx,%rdi
    af62:	e8 d3 76 ff ff       	call   263a <_ZN12BasicConsole7PrintlnEPKcj>
    af67:	48 8b 45 a8          	mov    -0x58(%rbp),%rax
    af6b:	ba ff ff ff ff       	mov    $0xffffffff,%edx
    af70:	48 8d 0d 82 73 01 00 	lea    0x17382(%rip),%rcx        # 222f9 <_ZL4font+0x1039>
    af77:	48 89 ce             	mov    %rcx,%rsi
    af7a:	48 89 c7             	mov    %rax,%rdi
    af7d:	e8 ec 75 ff ff       	call   256e <_ZN12BasicConsole5PrintEPKcj>
    af82:	48 8b 5d a8          	mov    -0x58(%rbp),%rbx
    af86:	48 8b 45 a8          	mov    -0x58(%rbp),%rax
    af8a:	48 05 30 11 00 00    	add    $0x1130,%rax
    af90:	48 89 c7             	mov    %rax,%rdi
    af93:	e8 28 6c ff ff       	call   1bc0 <_ZN4ACPI21GetProcessorLocalAPICEv>
    af98:	48 89 c7             	mov    %rax,%rdi
    af9b:	e8 94 f6 ff ff       	call   a634 <_Z10to_hstringm>
    afa0:	ba ff ff ff ff       	mov    $0xffffffff,%edx
    afa5:	48 89 c6             	mov    %rax,%rsi
    afa8:	48 89 df             	mov    %rbx,%rdi
    afab:	e8 8a 76 ff ff       	call   263a <_ZN12BasicConsole7PrintlnEPKcj>
    afb0:	48 8b 45 a8          	mov    -0x58(%rbp),%rax
    afb4:	ba ff ff ff ff       	mov    $0xffffffff,%edx
    afb9:	48 8d 0d 55 73 01 00 	lea    0x17355(%rip),%rcx        # 22315 <_ZL4font+0x1055>
    afc0:	48 89 ce             	mov    %rcx,%rsi
    afc3:	48 89 c7             	mov    %rax,%rdi
    afc6:	e8 a3 75 ff ff       	call   256e <_ZN12BasicConsole5PrintEPKcj>
    afcb:	48 8b 5d a8          	mov    -0x58(%rbp),%rbx
    afcf:	48 8b 45 a8          	mov    -0x58(%rbp),%rax
    afd3:	48 05 30 11 00 00    	add    $0x1130,%rax
    afd9:	48 89 c7             	mov    %rax,%rdi
    afdc:	e8 b1 6c ff ff       	call   1c92 <_ZN4ACPI9GetIOAPICEv>
    afe1:	48 89 c7             	mov    %rax,%rdi
    afe4:	e8 4b f6 ff ff       	call   a634 <_Z10to_hstringm>
    afe9:	ba ff ff ff ff       	mov    $0xffffffff,%edx
    afee:	48 89 c6             	mov    %rax,%rsi
    aff1:	48 89 df             	mov    %rbx,%rdi
    aff4:	e8 41 76 ff ff       	call   263a <_ZN12BasicConsole7PrintlnEPKcj>
    aff9:	48 8b 45 a8          	mov    -0x58(%rbp),%rax
    affd:	48 05 58 11 00 00    	add    $0x1158,%rax
    b003:	be 20 00 00 00       	mov    $0x20,%esi
    b008:	48 89 c7             	mov    %rax,%rdi
    b00b:	e8 e0 d3 ff ff       	call   83f0 <_ZN13HeapAllocator6mallocEm>
    b010:	48 89 45 c8          	mov    %rax,-0x38(%rbp)
    b014:	48 8b 45 a8          	mov    -0x58(%rbp),%rax
    b018:	ba ff ff ff ff       	mov    $0xffffffff,%edx
    b01d:	48 8d 0d 01 73 01 00 	lea    0x17301(%rip),%rcx        # 22325 <_ZL4font+0x1065>
    b024:	48 89 ce             	mov    %rcx,%rsi
    b027:	48 89 c7             	mov    %rax,%rdi
    b02a:	e8 3f 75 ff ff       	call   256e <_ZN12BasicConsole5PrintEPKcj>
    b02f:	48 8b 5d a8          	mov    -0x58(%rbp),%rbx
    b033:	48 8b 45 c8          	mov    -0x38(%rbp),%rax
    b037:	48 89 c7             	mov    %rax,%rdi
    b03a:	e8 f5 f5 ff ff       	call   a634 <_Z10to_hstringm>
    b03f:	ba ff ff ff ff       	mov    $0xffffffff,%edx
    b044:	48 89 c6             	mov    %rax,%rsi
    b047:	48 89 df             	mov    %rbx,%rdi
    b04a:	e8 eb 75 ff ff       	call   263a <_ZN12BasicConsole7PrintlnEPKcj>
    b04f:	48 8b 45 a8          	mov    -0x58(%rbp),%rax
    b053:	48 05 58 11 00 00    	add    $0x1158,%rax
    b059:	be 40 00 00 00       	mov    $0x40,%esi
    b05e:	48 89 c7             	mov    %rax,%rdi
    b061:	e8 8a d3 ff ff       	call   83f0 <_ZN13HeapAllocator6mallocEm>
    b066:	48 89 45 c0          	mov    %rax,-0x40(%rbp)
    b06a:	48 8b 45 a8          	mov    -0x58(%rbp),%rax
    b06e:	ba ff ff ff ff       	mov    $0xffffffff,%edx
    b073:	48 8d 0d c2 72 01 00 	lea    0x172c2(%rip),%rcx        # 2233c <_ZL4font+0x107c>
    b07a:	48 89 ce             	mov    %rcx,%rsi
    b07d:	48 89 c7             	mov    %rax,%rdi
    b080:	e8 b5 75 ff ff       	call   263a <_ZN12BasicConsole7PrintlnEPKcj>
    b085:	48 8b 5d a8          	mov    -0x58(%rbp),%rbx
    b089:	48 8b 45 c0          	mov    -0x40(%rbp),%rax
    b08d:	48 89 c7             	mov    %rax,%rdi
    b090:	e8 9f f5 ff ff       	call   a634 <_Z10to_hstringm>
    b095:	ba ff ff ff ff       	mov    $0xffffffff,%edx
    b09a:	48 89 c6             	mov    %rax,%rsi
    b09d:	48 89 df             	mov    %rbx,%rdi
    b0a0:	e8 95 75 ff ff       	call   263a <_ZN12BasicConsole7PrintlnEPKcj>
    b0a5:	48 8b 45 c8          	mov    -0x38(%rbp),%rax
    b0a9:	ba 20 00 00 00       	mov    $0x20,%edx
    b0ae:	be aa 00 00 00       	mov    $0xaa,%esi
    b0b3:	48 89 c7             	mov    %rax,%rdi
    b0b6:	e8 1c d9 ff ff       	call   89d7 <memsetC>
    b0bb:	48 8b 45 c0          	mov    -0x40(%rbp),%rax
    b0bf:	ba 40 00 00 00       	mov    $0x40,%edx
    b0c4:	be 55 00 00 00       	mov    $0x55,%esi
    b0c9:	48 89 c7             	mov    %rax,%rdi
    b0cc:	e8 06 d9 ff ff       	call   89d7 <memsetC>
    b0d1:	48 8b 45 a8          	mov    -0x58(%rbp),%rax
    b0d5:	48 8d 90 58 11 00 00 	lea    0x1158(%rax),%rdx
    b0dc:	48 8b 45 c8          	mov    -0x38(%rbp),%rax
    b0e0:	48 89 c6             	mov    %rax,%rsi
    b0e3:	48 89 d7             	mov    %rdx,%rdi
    b0e6:	e8 21 d5 ff ff       	call   860c <_ZN13HeapAllocator4freeEPv>
    b0eb:	48 8b 45 a8          	mov    -0x58(%rbp),%rax
    b0ef:	ba ff ff ff ff       	mov    $0xffffffff,%edx
    b0f4:	48 8d 0d 58 72 01 00 	lea    0x17258(%rip),%rcx        # 22353 <_ZL4font+0x1093>
    b0fb:	48 89 ce             	mov    %rcx,%rsi
    b0fe:	48 89 c7             	mov    %rax,%rdi
    b101:	e8 34 75 ff ff       	call   263a <_ZN12BasicConsole7PrintlnEPKcj>
    b106:	48 8b 45 a8          	mov    -0x58(%rbp),%rax
    b10a:	48 05 58 11 00 00    	add    $0x1158,%rax
    b110:	be 10 00 00 00       	mov    $0x10,%esi
    b115:	48 89 c7             	mov    %rax,%rdi
    b118:	e8 d3 d2 ff ff       	call   83f0 <_ZN13HeapAllocator6mallocEm>
    b11d:	48 89 45 b8          	mov    %rax,-0x48(%rbp)
    b121:	48 8b 45 a8          	mov    -0x58(%rbp),%rax
    b125:	ba ff ff ff ff       	mov    $0xffffffff,%edx
    b12a:	48 8d 0d 36 72 01 00 	lea    0x17236(%rip),%rcx        # 22367 <_ZL4font+0x10a7>
    b131:	48 89 ce             	mov    %rcx,%rsi
    b134:	48 89 c7             	mov    %rax,%rdi
    b137:	e8 32 74 ff ff       	call   256e <_ZN12BasicConsole5PrintEPKcj>
    b13c:	48 8b 5d a8          	mov    -0x58(%rbp),%rbx
    b140:	48 8b 45 b8          	mov    -0x48(%rbp),%rax
    b144:	48 89 c7             	mov    %rax,%rdi
    b147:	e8 e8 f4 ff ff       	call   a634 <_Z10to_hstringm>
    b14c:	ba ff ff ff ff       	mov    $0xffffffff,%edx
    b151:	48 89 c6             	mov    %rax,%rsi
    b154:	48 89 df             	mov    %rbx,%rdi
    b157:	e8 de 74 ff ff       	call   263a <_ZN12BasicConsole7PrintlnEPKcj>
    b15c:	48 8b 45 a8          	mov    -0x58(%rbp),%rax
    b160:	48 8d 90 58 11 00 00 	lea    0x1158(%rax),%rdx
    b167:	48 8b 45 c0          	mov    -0x40(%rbp),%rax
    b16b:	48 89 c6             	mov    %rax,%rsi
    b16e:	48 89 d7             	mov    %rdx,%rdi
    b171:	e8 96 d4 ff ff       	call   860c <_ZN13HeapAllocator4freeEPv>
    b176:	48 8b 45 a8          	mov    -0x58(%rbp),%rax
    b17a:	48 8d 90 58 11 00 00 	lea    0x1158(%rax),%rdx
    b181:	48 8b 45 b8          	mov    -0x48(%rbp),%rax
    b185:	48 89 c6             	mov    %rax,%rsi
    b188:	48 89 d7             	mov    %rdx,%rdi
    b18b:	e8 7c d4 ff ff       	call   860c <_ZN13HeapAllocator4freeEPv>
    b190:	48 8b 45 a8          	mov    -0x58(%rbp),%rax
    b194:	ba ff ff ff ff       	mov    $0xffffffff,%edx
    b199:	48 8d 0d de 71 01 00 	lea    0x171de(%rip),%rcx        # 2237e <_ZL4font+0x10be>
    b1a0:	48 89 ce             	mov    %rcx,%rsi
    b1a3:	48 89 c7             	mov    %rax,%rdi
    b1a6:	e8 8f 74 ff ff       	call   263a <_ZN12BasicConsole7PrintlnEPKcj>
    b1ab:	48 8b 45 a8          	mov    -0x58(%rbp),%rax
    b1af:	48 8d 98 90 11 00 00 	lea    0x1190(%rax),%rbx
    b1b6:	48 8b 45 a8          	mov    -0x58(%rbp),%rax
    b1ba:	48 05 30 11 00 00    	add    $0x1130,%rax
    b1c0:	48 89 c7             	mov    %rax,%rdi
    b1c3:	e8 f0 68 ff ff       	call   1ab8 <_ZN4ACPI7GetMCFGEv>
    b1c8:	48 89 c6             	mov    %rax,%rsi
    b1cb:	48 89 df             	mov    %rbx,%rdi
    b1ce:	e8 a3 b0 ff ff       	call   6276 <_ZN4PCIe14InitializePCIeEP4MCFG>
    b1d3:	48 8b 45 a8          	mov    -0x58(%rbp),%rax
    b1d7:	48 05 90 11 00 00    	add    $0x1190,%rax
    b1dd:	48 89 c7             	mov    %rax,%rdi
    b1e0:	e8 c1 b0 ff ff       	call   62a6 <_ZN4PCIe10PCIeExistsEv>
    b1e5:	84 c0                	test   %al,%al
    b1e7:	74 2f                	je     b218 <start+0x4d8>
    b1e9:	48 8b 45 a8          	mov    -0x58(%rbp),%rax
    b1ed:	ba ff ff ff ff       	mov    $0xffffffff,%edx
    b1f2:	48 8d 0d 9c 71 01 00 	lea    0x1719c(%rip),%rcx        # 22395 <_ZL4font+0x10d5>
    b1f9:	48 89 ce             	mov    %rcx,%rsi
    b1fc:	48 89 c7             	mov    %rax,%rdi
    b1ff:	e8 36 74 ff ff       	call   263a <_ZN12BasicConsole7PrintlnEPKcj>
    b204:	48 8b 45 a8          	mov    -0x58(%rbp),%rax
    b208:	48 05 90 11 00 00    	add    $0x1190,%rax
    b20e:	48 89 c7             	mov    %rax,%rdi
    b211:	e8 22 b0 ff ff       	call   6238 <_ZN4PCIe10InitializeEv>
    b216:	eb 61                	jmp    b279 <start+0x539>
    b218:	48 8b 45 a8          	mov    -0x58(%rbp),%rax
    b21c:	48 05 78 11 00 00    	add    $0x1178,%rax
    b222:	48 89 c7             	mov    %rax,%rdi
    b225:	e8 8c 8f ff ff       	call   41b6 <_ZN3PCI9PCIExistsEv>
    b22a:	84 c0                	test   %al,%al
    b22c:	74 2f                	je     b25d <start+0x51d>
    b22e:	48 8b 45 a8          	mov    -0x58(%rbp),%rax
    b232:	ba ff ff ff ff       	mov    $0xffffffff,%edx
    b237:	48 8d 0d 63 71 01 00 	lea    0x17163(%rip),%rcx        # 223a1 <_ZL4font+0x10e1>
    b23e:	48 89 ce             	mov    %rcx,%rsi
    b241:	48 89 c7             	mov    %rax,%rdi
    b244:	e8 f1 73 ff ff       	call   263a <_ZN12BasicConsole7PrintlnEPKcj>
    b249:	48 8b 45 a8          	mov    -0x58(%rbp),%rax
    b24d:	48 05 78 11 00 00    	add    $0x1178,%rax
    b253:	48 89 c7             	mov    %rax,%rdi
    b256:	e8 ed a0 ff ff       	call   5348 <_ZN3PCI10InitializeEv>
    b25b:	eb 1c                	jmp    b279 <start+0x539>
    b25d:	48 8b 45 a8          	mov    -0x58(%rbp),%rax
    b261:	ba ff ff ff ff       	mov    $0xffffffff,%edx
    b266:	48 8d 0d 40 71 01 00 	lea    0x17140(%rip),%rcx        # 223ad <_ZL4font+0x10ed>
    b26d:	48 89 ce             	mov    %rcx,%rsi
    b270:	48 89 c7             	mov    %rax,%rdi
    b273:	e8 c2 73 ff ff       	call   263a <_ZN12BasicConsole7PrintlnEPKcj>
    b278:	90                   	nop
    b279:	90                   	nop
    b27a:	eb fd                	jmp    b279 <start+0x539>

000000000000b27c <_ZN3PCID1Ev>:
    b27c:	f3 0f 1e fa          	endbr64
    b280:	55                   	push   %rbp
    b281:	48 89 e5             	mov    %rsp,%rbp
    b284:	48 83 ec 10          	sub    $0x10,%rsp
    b288:	48 89 7d f8          	mov    %rdi,-0x8(%rbp)
    b28c:	48 8b 45 f8          	mov    -0x8(%rbp),%rax
    b290:	48 89 c7             	mov    %rax,%rdi
    b293:	e8 5c 00 00 00       	call   b2f4 <_ZN5ArrayI9DeviceKeyED1Ev>
    b298:	90                   	nop
    b299:	c9                   	leave
    b29a:	c3                   	ret
    b29b:	90                   	nop

000000000000b29c <_ZN4PCIeD1Ev>:
    b29c:	f3 0f 1e fa          	endbr64
    b2a0:	55                   	push   %rbp
    b2a1:	48 89 e5             	mov    %rsp,%rbp
    b2a4:	48 83 ec 10          	sub    $0x10,%rsp
    b2a8:	48 89 7d f8          	mov    %rdi,-0x8(%rbp)
    b2ac:	48 8b 45 f8          	mov    -0x8(%rbp),%rax
    b2b0:	48 89 c7             	mov    %rax,%rdi
    b2b3:	e8 8e 00 00 00       	call   b346 <_ZN5ArrayI13PCIeDeviceKeyED1Ev>
    b2b8:	90                   	nop
    b2b9:	c9                   	leave
    b2ba:	c3                   	ret
    b2bb:	90                   	nop

000000000000b2bc <_ZN14KernelServicesD1Ev>:
    b2bc:	f3 0f 1e fa          	endbr64
    b2c0:	55                   	push   %rbp
    b2c1:	48 89 e5             	mov    %rsp,%rbp
    b2c4:	48 83 ec 10          	sub    $0x10,%rsp
    b2c8:	48 89 7d f8          	mov    %rdi,-0x8(%rbp)
    b2cc:	48 8b 45 f8          	mov    -0x8(%rbp),%rax
    b2d0:	48 05 90 11 00 00    	add    $0x1190,%rax
    b2d6:	48 89 c7             	mov    %rax,%rdi
    b2d9:	e8 be ff ff ff       	call   b29c <_ZN4PCIeD1Ev>
    b2de:	48 8b 45 f8          	mov    -0x8(%rbp),%rax
    b2e2:	48 05 78 11 00 00    	add    $0x1178,%rax
    b2e8:	48 89 c7             	mov    %rax,%rdi
    b2eb:	e8 8c ff ff ff       	call   b27c <_ZN3PCID1Ev>
    b2f0:	90                   	nop
    b2f1:	c9                   	leave
    b2f2:	c3                   	ret
    b2f3:	90                   	nop

000000000000b2f4 <_ZN5ArrayI9DeviceKeyED1Ev>:
    b2f4:	f3 0f 1e fa          	endbr64
    b2f8:	55                   	push   %rbp
    b2f9:	48 89 e5             	mov    %rsp,%rbp
    b2fc:	48 83 ec 10          	sub    $0x10,%rsp
    b300:	48 89 7d f8          	mov    %rdi,-0x8(%rbp)
    b304:	48 8b 45 f8          	mov    -0x8(%rbp),%rax
    b308:	48 8b 00             	mov    (%rax),%rax
    b30b:	48 85 c0             	test   %rax,%rax
    b30e:	74 0f                	je     b31f <_ZN5ArrayI9DeviceKeyED1Ev+0x2b>
    b310:	48 8b 45 f8          	mov    -0x8(%rbp),%rax
    b314:	48 8b 00             	mov    (%rax),%rax
    b317:	48 89 c7             	mov    %rax,%rdi
    b31a:	e8 34 d4 ff ff       	call   8753 <_Z4freePv>
    b31f:	48 8b 45 f8          	mov    -0x8(%rbp),%rax
    b323:	48 c7 00 00 00 00 00 	movq   $0x0,(%rax)
    b32a:	48 8b 45 f8          	mov    -0x8(%rbp),%rax
    b32e:	48 c7 40 08 00 00 00 	movq   $0x0,0x8(%rax)
    b335:	00 
    b336:	48 8b 45 f8          	mov    -0x8(%rbp),%rax
    b33a:	48 c7 40 10 00 00 00 	movq   $0x0,0x10(%rax)
    b341:	00 
    b342:	90                   	nop
    b343:	c9                   	leave
    b344:	c3                   	ret
    b345:	90                   	nop

000000000000b346 <_ZN5ArrayI13PCIeDeviceKeyED1Ev>:
    b346:	f3 0f 1e fa          	endbr64
    b34a:	55                   	push   %rbp
    b34b:	48 89 e5             	mov    %rsp,%rbp
    b34e:	48 83 ec 10          	sub    $0x10,%rsp
    b352:	48 89 7d f8          	mov    %rdi,-0x8(%rbp)
    b356:	48 8b 45 f8          	mov    -0x8(%rbp),%rax
    b35a:	48 8b 00             	mov    (%rax),%rax
    b35d:	48 85 c0             	test   %rax,%rax
    b360:	74 0f                	je     b371 <_ZN5ArrayI13PCIeDeviceKeyED1Ev+0x2b>
    b362:	48 8b 45 f8          	mov    -0x8(%rbp),%rax
    b366:	48 8b 00             	mov    (%rax),%rax
    b369:	48 89 c7             	mov    %rax,%rdi
    b36c:	e8 e2 d3 ff ff       	call   8753 <_Z4freePv>
    b371:	48 8b 45 f8          	mov    -0x8(%rbp),%rax
    b375:	48 c7 00 00 00 00 00 	movq   $0x0,(%rax)
    b37c:	48 8b 45 f8          	mov    -0x8(%rbp),%rax
    b380:	48 c7 40 08 00 00 00 	movq   $0x0,0x8(%rax)
    b387:	00 
    b388:	48 8b 45 f8          	mov    -0x8(%rbp),%rax
    b38c:	48 c7 40 10 00 00 00 	movq   $0x0,0x10(%rax)
    b393:	00 
    b394:	90                   	nop
    b395:	c9                   	leave
    b396:	c3                   	ret
